---
triple:          'arm64-apple-darwin'
binary-path:     'bin/linked_list_tests'
relocations:
  - { offsetInCU: 0x3C, offset: 0x3C, size: 0x8, addend: 0x0, symName: _.str, symObjAddr: 0x35E060, symBinAddr: 0x100390820, symSize: 0x0 }
  - { offsetInCU: 0x6D, offset: 0x6D, size: 0x8, addend: 0x0, symName: _.str.1, symObjAddr: 0x35E080, symBinAddr: 0x100390840, symSize: 0x0 }
  - { offsetInCU: 0x8B, offset: 0x8B, size: 0x8, addend: 0x0, symName: _.str.2, symObjAddr: 0x35E0A0, symBinAddr: 0x100390860, symSize: 0x0 }
  - { offsetInCU: 0xA9, offset: 0xA9, size: 0x8, addend: 0x0, symName: _.str.3, symObjAddr: 0x35E0E0, symBinAddr: 0x1003908A0, symSize: 0x0 }
  - { offsetInCU: 0xC7, offset: 0xC7, size: 0x8, addend: 0x0, symName: _.str.4, symObjAddr: 0x35E140, symBinAddr: 0x100390900, symSize: 0x0 }
  - { offsetInCU: 0xE5, offset: 0xE5, size: 0x8, addend: 0x0, symName: _.str.5, symObjAddr: 0x35E180, symBinAddr: 0x100390940, symSize: 0x0 }
  - { offsetInCU: 0x103, offset: 0x103, size: 0x8, addend: 0x0, symName: _.str.6, symObjAddr: 0x35E1E0, symBinAddr: 0x1003909A0, symSize: 0x0 }
  - { offsetInCU: 0x121, offset: 0x121, size: 0x8, addend: 0x0, symName: _.str.7, symObjAddr: 0x35E200, symBinAddr: 0x1003909C0, symSize: 0x0 }
  - { offsetInCU: 0x133, offset: 0x133, size: 0x8, addend: 0x0, symName: _.str.8, symObjAddr: 0x35E220, symBinAddr: 0x1003909E0, symSize: 0x0 }
  - { offsetInCU: 0x145, offset: 0x145, size: 0x8, addend: 0x0, symName: _.str.9, symObjAddr: 0x35E240, symBinAddr: 0x100390A00, symSize: 0x0 }
  - { offsetInCU: 0x163, offset: 0x163, size: 0x8, addend: 0x0, symName: _.str.10, symObjAddr: 0x35E2A0, symBinAddr: 0x100390A60, symSize: 0x0 }
  - { offsetInCU: 0x175, offset: 0x175, size: 0x8, addend: 0x0, symName: _.str.11, symObjAddr: 0x35E2C0, symBinAddr: 0x100390A80, symSize: 0x0 }
  - { offsetInCU: 0x187, offset: 0x187, size: 0x8, addend: 0x0, symName: _.str.12, symObjAddr: 0x35E2E0, symBinAddr: 0x100390AA0, symSize: 0x0 }
  - { offsetInCU: 0x199, offset: 0x199, size: 0x8, addend: 0x0, symName: _.str.13, symObjAddr: 0x35E300, symBinAddr: 0x100390AC0, symSize: 0x0 }
  - { offsetInCU: 0x1B7, offset: 0x1B7, size: 0x8, addend: 0x0, symName: _.str.14, symObjAddr: 0x35E320, symBinAddr: 0x100390AE0, symSize: 0x0 }
  - { offsetInCU: 0x1D5, offset: 0x1D5, size: 0x8, addend: 0x0, symName: _.str.15, symObjAddr: 0x35E360, symBinAddr: 0x100390B20, symSize: 0x0 }
  - { offsetInCU: 0x1E7, offset: 0x1E7, size: 0x8, addend: 0x0, symName: _.str.16, symObjAddr: 0x35E380, symBinAddr: 0x100390B40, symSize: 0x0 }
  - { offsetInCU: 0x205, offset: 0x205, size: 0x8, addend: 0x0, symName: _.str.17, symObjAddr: 0x35E3A0, symBinAddr: 0x100390B60, symSize: 0x0 }
  - { offsetInCU: 0x223, offset: 0x223, size: 0x8, addend: 0x0, symName: _.str.18, symObjAddr: 0x35E3E0, symBinAddr: 0x100390BA0, symSize: 0x0 }
  - { offsetInCU: 0x235, offset: 0x235, size: 0x8, addend: 0x0, symName: _.str.19, symObjAddr: 0x35E400, symBinAddr: 0x100390BC0, symSize: 0x0 }
  - { offsetInCU: 0x253, offset: 0x253, size: 0x8, addend: 0x0, symName: _.str.20, symObjAddr: 0x35E420, symBinAddr: 0x100390BE0, symSize: 0x0 }
  - { offsetInCU: 0x271, offset: 0x271, size: 0x8, addend: 0x0, symName: _.str.21, symObjAddr: 0x35E480, symBinAddr: 0x100390C40, symSize: 0x0 }
  - { offsetInCU: 0x283, offset: 0x283, size: 0x8, addend: 0x0, symName: _.str.22, symObjAddr: 0x35E4A0, symBinAddr: 0x100390C60, symSize: 0x0 }
  - { offsetInCU: 0x2A1, offset: 0x2A1, size: 0x8, addend: 0x0, symName: _.str.23, symObjAddr: 0x35E4C0, symBinAddr: 0x100390C80, symSize: 0x0 }
  - { offsetInCU: 0x2BF, offset: 0x2BF, size: 0x8, addend: 0x0, symName: _.str.24, symObjAddr: 0x35E500, symBinAddr: 0x100390CC0, symSize: 0x0 }
  - { offsetInCU: 0x2D1, offset: 0x2D1, size: 0x8, addend: 0x0, symName: _.str.25, symObjAddr: 0x35E520, symBinAddr: 0x100390CE0, symSize: 0x0 }
  - { offsetInCU: 0x2E3, offset: 0x2E3, size: 0x8, addend: 0x0, symName: _.str.26, symObjAddr: 0x35E540, symBinAddr: 0x100390D00, symSize: 0x0 }
  - { offsetInCU: 0x301, offset: 0x301, size: 0x8, addend: 0x0, symName: _.str.27, symObjAddr: 0x35E580, symBinAddr: 0x100390D40, symSize: 0x0 }
  - { offsetInCU: 0x313, offset: 0x313, size: 0x8, addend: 0x0, symName: _.str.28, symObjAddr: 0x35E5A0, symBinAddr: 0x100390D60, symSize: 0x0 }
  - { offsetInCU: 0x325, offset: 0x325, size: 0x8, addend: 0x0, symName: _.str.29, symObjAddr: 0x35E5C0, symBinAddr: 0x100390D80, symSize: 0x0 }
  - { offsetInCU: 0x343, offset: 0x343, size: 0x8, addend: 0x0, symName: _.str.30, symObjAddr: 0x35E620, symBinAddr: 0x100390DE0, symSize: 0x0 }
  - { offsetInCU: 0x355, offset: 0x355, size: 0x8, addend: 0x0, symName: _.str.31, symObjAddr: 0x35E640, symBinAddr: 0x100390E00, symSize: 0x0 }
  - { offsetInCU: 0x367, offset: 0x367, size: 0x8, addend: 0x0, symName: _.str.32, symObjAddr: 0x35E660, symBinAddr: 0x100390E20, symSize: 0x0 }
  - { offsetInCU: 0x385, offset: 0x385, size: 0x8, addend: 0x0, symName: _.str.33, symObjAddr: 0x35E680, symBinAddr: 0x100390E40, symSize: 0x0 }
  - { offsetInCU: 0x3A3, offset: 0x3A3, size: 0x8, addend: 0x0, symName: _.str.34, symObjAddr: 0x35E6A0, symBinAddr: 0x100390E60, symSize: 0x0 }
  - { offsetInCU: 0x3C1, offset: 0x3C1, size: 0x8, addend: 0x0, symName: _.str.35, symObjAddr: 0x35E6C0, symBinAddr: 0x100390E80, symSize: 0x0 }
  - { offsetInCU: 0x3D3, offset: 0x3D3, size: 0x8, addend: 0x0, symName: _.str.36, symObjAddr: 0x35E6E0, symBinAddr: 0x100390EA0, symSize: 0x0 }
  - { offsetInCU: 0x3F1, offset: 0x3F1, size: 0x8, addend: 0x0, symName: _.str.37, symObjAddr: 0x35E700, symBinAddr: 0x100390EC0, symSize: 0x0 }
  - { offsetInCU: 0x40F, offset: 0x40F, size: 0x8, addend: 0x0, symName: _.str.38, symObjAddr: 0x35E760, symBinAddr: 0x100390F20, symSize: 0x0 }
  - { offsetInCU: 0x421, offset: 0x421, size: 0x8, addend: 0x0, symName: _.str.39, symObjAddr: 0x35E780, symBinAddr: 0x100390F40, symSize: 0x0 }
  - { offsetInCU: 0x43F, offset: 0x43F, size: 0x8, addend: 0x0, symName: _.str.40, symObjAddr: 0x35E7A0, symBinAddr: 0x100390F60, symSize: 0x0 }
  - { offsetInCU: 0x451, offset: 0x451, size: 0x8, addend: 0x0, symName: _.str.41, symObjAddr: 0x35E7C0, symBinAddr: 0x100390F80, symSize: 0x0 }
  - { offsetInCU: 0x463, offset: 0x463, size: 0x8, addend: 0x0, symName: _.str.42, symObjAddr: 0x35E7E0, symBinAddr: 0x100390FA0, symSize: 0x0 }
  - { offsetInCU: 0x475, offset: 0x475, size: 0x8, addend: 0x0, symName: _.str.43, symObjAddr: 0x35E800, symBinAddr: 0x100390FC0, symSize: 0x0 }
  - { offsetInCU: 0x487, offset: 0x487, size: 0x8, addend: 0x0, symName: _.str.44, symObjAddr: 0x35E840, symBinAddr: 0x100391000, symSize: 0x0 }
  - { offsetInCU: 0x499, offset: 0x499, size: 0x8, addend: 0x0, symName: _.str.45, symObjAddr: 0x35E860, symBinAddr: 0x100391020, symSize: 0x0 }
  - { offsetInCU: 0x4AB, offset: 0x4AB, size: 0x8, addend: 0x0, symName: _.str.46, symObjAddr: 0x35E880, symBinAddr: 0x100391040, symSize: 0x0 }
  - { offsetInCU: 0x4BD, offset: 0x4BD, size: 0x8, addend: 0x0, symName: _.str.47, symObjAddr: 0x35E8A0, symBinAddr: 0x100391060, symSize: 0x0 }
  - { offsetInCU: 0x4CF, offset: 0x4CF, size: 0x8, addend: 0x0, symName: _.str.48, symObjAddr: 0x35E8E0, symBinAddr: 0x1003910A0, symSize: 0x0 }
  - { offsetInCU: 0x4E1, offset: 0x4E1, size: 0x8, addend: 0x0, symName: _.str.49, symObjAddr: 0x35E900, symBinAddr: 0x1003910C0, symSize: 0x0 }
  - { offsetInCU: 0x4F3, offset: 0x4F3, size: 0x8, addend: 0x0, symName: _.str.50, symObjAddr: 0x35E920, symBinAddr: 0x1003910E0, symSize: 0x0 }
  - { offsetInCU: 0x505, offset: 0x505, size: 0x8, addend: 0x0, symName: _.str.51, symObjAddr: 0x35E940, symBinAddr: 0x100391100, symSize: 0x0 }
  - { offsetInCU: 0x517, offset: 0x517, size: 0x8, addend: 0x0, symName: _.str.52, symObjAddr: 0x35E960, symBinAddr: 0x100391120, symSize: 0x0 }
  - { offsetInCU: 0x529, offset: 0x529, size: 0x8, addend: 0x0, symName: _.str.53, symObjAddr: 0x35E980, symBinAddr: 0x100391140, symSize: 0x0 }
  - { offsetInCU: 0x53B, offset: 0x53B, size: 0x8, addend: 0x0, symName: _.str.54, symObjAddr: 0x35E9A0, symBinAddr: 0x100391160, symSize: 0x0 }
  - { offsetInCU: 0x54D, offset: 0x54D, size: 0x8, addend: 0x0, symName: _.str.55, symObjAddr: 0x35E9C0, symBinAddr: 0x100391180, symSize: 0x0 }
  - { offsetInCU: 0x56B, offset: 0x56B, size: 0x8, addend: 0x0, symName: _.str.56, symObjAddr: 0x35EA00, symBinAddr: 0x1003911C0, symSize: 0x0 }
  - { offsetInCU: 0x57D, offset: 0x57D, size: 0x8, addend: 0x0, symName: _.str.57, symObjAddr: 0x35EA20, symBinAddr: 0x1003911E0, symSize: 0x0 }
  - { offsetInCU: 0x58F, offset: 0x58F, size: 0x8, addend: 0x0, symName: _.str.58, symObjAddr: 0x35EA40, symBinAddr: 0x100391200, symSize: 0x0 }
  - { offsetInCU: 0x5AD, offset: 0x5AD, size: 0x8, addend: 0x0, symName: _.str.59, symObjAddr: 0x35EA60, symBinAddr: 0x100391220, symSize: 0x0 }
  - { offsetInCU: 0x5CB, offset: 0x5CB, size: 0x8, addend: 0x0, symName: _.str.60, symObjAddr: 0x35EAE0, symBinAddr: 0x1003912A0, symSize: 0x0 }
  - { offsetInCU: 0x5DD, offset: 0x5DD, size: 0x8, addend: 0x0, symName: _.str.61, symObjAddr: 0x35EB00, symBinAddr: 0x1003912C0, symSize: 0x0 }
  - { offsetInCU: 0x5EF, offset: 0x5EF, size: 0x8, addend: 0x0, symName: _.str.62, symObjAddr: 0x35EB20, symBinAddr: 0x1003912E0, symSize: 0x0 }
  - { offsetInCU: 0x601, offset: 0x601, size: 0x8, addend: 0x0, symName: _.str.63, symObjAddr: 0x35EB80, symBinAddr: 0x100391340, symSize: 0x0 }
  - { offsetInCU: 0x613, offset: 0x613, size: 0x8, addend: 0x0, symName: _.str.64, symObjAddr: 0x35EBA0, symBinAddr: 0x100391360, symSize: 0x0 }
  - { offsetInCU: 0x625, offset: 0x625, size: 0x8, addend: 0x0, symName: _.str.65, symObjAddr: 0x35EBE0, symBinAddr: 0x1003913A0, symSize: 0x0 }
  - { offsetInCU: 0x643, offset: 0x643, size: 0x8, addend: 0x0, symName: _.str.66, symObjAddr: 0x35EC20, symBinAddr: 0x1003913E0, symSize: 0x0 }
  - { offsetInCU: 0x655, offset: 0x655, size: 0x8, addend: 0x0, symName: _.str.67, symObjAddr: 0x35EC40, symBinAddr: 0x100391400, symSize: 0x0 }
  - { offsetInCU: 0x667, offset: 0x667, size: 0x8, addend: 0x0, symName: _.str.68, symObjAddr: 0x35EC60, symBinAddr: 0x100391420, symSize: 0x0 }
  - { offsetInCU: 0x679, offset: 0x679, size: 0x8, addend: 0x0, symName: _.str.69, symObjAddr: 0x35EC80, symBinAddr: 0x100391440, symSize: 0x0 }
  - { offsetInCU: 0x68B, offset: 0x68B, size: 0x8, addend: 0x0, symName: _.str.70, symObjAddr: 0x35ECC0, symBinAddr: 0x100391480, symSize: 0x0 }
  - { offsetInCU: 0x6A9, offset: 0x6A9, size: 0x8, addend: 0x0, symName: _.str.71, symObjAddr: 0x35ED00, symBinAddr: 0x1003914C0, symSize: 0x0 }
  - { offsetInCU: 0x6BB, offset: 0x6BB, size: 0x8, addend: 0x0, symName: _.str.72, symObjAddr: 0x35ED20, symBinAddr: 0x1003914E0, symSize: 0x0 }
  - { offsetInCU: 0x6CD, offset: 0x6CD, size: 0x8, addend: 0x0, symName: _.str.73, symObjAddr: 0x35ED40, symBinAddr: 0x100391500, symSize: 0x0 }
  - { offsetInCU: 0x6DF, offset: 0x6DF, size: 0x8, addend: 0x0, symName: _.str.74, symObjAddr: 0x35ED80, symBinAddr: 0x100391540, symSize: 0x0 }
  - { offsetInCU: 0x6F1, offset: 0x6F1, size: 0x8, addend: 0x0, symName: _.str.75, symObjAddr: 0x35EDC0, symBinAddr: 0x100391580, symSize: 0x0 }
  - { offsetInCU: 0x703, offset: 0x703, size: 0x8, addend: 0x0, symName: _.str.76, symObjAddr: 0x35EE20, symBinAddr: 0x1003915E0, symSize: 0x0 }
  - { offsetInCU: 0x721, offset: 0x721, size: 0x8, addend: 0x0, symName: _.str.77, symObjAddr: 0x35EE60, symBinAddr: 0x100391620, symSize: 0x0 }
  - { offsetInCU: 0x73F, offset: 0x73F, size: 0x8, addend: 0x0, symName: _.str.78, symObjAddr: 0x35EEA0, symBinAddr: 0x100391660, symSize: 0x0 }
  - { offsetInCU: 0x75D, offset: 0x75D, size: 0x8, addend: 0x0, symName: _.str.79, symObjAddr: 0x35EEC0, symBinAddr: 0x100391680, symSize: 0x0 }
  - { offsetInCU: 0x76F, offset: 0x76F, size: 0x8, addend: 0x0, symName: _.str.80, symObjAddr: 0x35EEE0, symBinAddr: 0x1003916A0, symSize: 0x0 }
  - { offsetInCU: 0x781, offset: 0x781, size: 0x8, addend: 0x0, symName: _.str.81, symObjAddr: 0x35EF40, symBinAddr: 0x100391700, symSize: 0x0 }
  - { offsetInCU: 0x793, offset: 0x793, size: 0x8, addend: 0x0, symName: _.str.82, symObjAddr: 0x35EF60, symBinAddr: 0x100391720, symSize: 0x0 }
  - { offsetInCU: 0x7A5, offset: 0x7A5, size: 0x8, addend: 0x0, symName: _.str.83, symObjAddr: 0x35EF80, symBinAddr: 0x100391740, symSize: 0x0 }
  - { offsetInCU: 0x7C3, offset: 0x7C3, size: 0x8, addend: 0x0, symName: _.str.84, symObjAddr: 0x35EFE0, symBinAddr: 0x1003917A0, symSize: 0x0 }
  - { offsetInCU: 0x7D5, offset: 0x7D5, size: 0x8, addend: 0x0, symName: _.str.85, symObjAddr: 0x35F000, symBinAddr: 0x1003917C0, symSize: 0x0 }
  - { offsetInCU: 0x7E7, offset: 0x7E7, size: 0x8, addend: 0x0, symName: _.str.86, symObjAddr: 0x35F040, symBinAddr: 0x100391800, symSize: 0x0 }
  - { offsetInCU: 0x7F9, offset: 0x7F9, size: 0x8, addend: 0x0, symName: _.str.87, symObjAddr: 0x35F060, symBinAddr: 0x100391820, symSize: 0x0 }
  - { offsetInCU: 0x817, offset: 0x817, size: 0x8, addend: 0x0, symName: _.str.88, symObjAddr: 0x35F0C0, symBinAddr: 0x100391880, symSize: 0x0 }
  - { offsetInCU: 0x835, offset: 0x835, size: 0x8, addend: 0x0, symName: _.str.89, symObjAddr: 0x35F100, symBinAddr: 0x1003918C0, symSize: 0x0 }
  - { offsetInCU: 0x847, offset: 0x847, size: 0x8, addend: 0x0, symName: _.str.90, symObjAddr: 0x35F140, symBinAddr: 0x100391900, symSize: 0x0 }
  - { offsetInCU: 0x865, offset: 0x865, size: 0x8, addend: 0x0, symName: _.str.91, symObjAddr: 0x35F1A0, symBinAddr: 0x100391960, symSize: 0x0 }
  - { offsetInCU: 0x877, offset: 0x877, size: 0x8, addend: 0x0, symName: _.str.92, symObjAddr: 0x35F1C0, symBinAddr: 0x100391980, symSize: 0x0 }
  - { offsetInCU: 0x889, offset: 0x889, size: 0x8, addend: 0x0, symName: _.str.93, symObjAddr: 0x35F200, symBinAddr: 0x1003919C0, symSize: 0x0 }
  - { offsetInCU: 0x8A7, offset: 0x8A7, size: 0x8, addend: 0x0, symName: _.str.94, symObjAddr: 0x35F260, symBinAddr: 0x100391A20, symSize: 0x0 }
  - { offsetInCU: 0x8B9, offset: 0x8B9, size: 0x8, addend: 0x0, symName: _.str.95, symObjAddr: 0x35F280, symBinAddr: 0x100391A40, symSize: 0x0 }
  - { offsetInCU: 0x8CB, offset: 0x8CB, size: 0x8, addend: 0x0, symName: _.str.96, symObjAddr: 0x35F2C0, symBinAddr: 0x100391A80, symSize: 0x0 }
  - { offsetInCU: 0x8E9, offset: 0x8E9, size: 0x8, addend: 0x0, symName: _.str.97, symObjAddr: 0x35F320, symBinAddr: 0x100391AE0, symSize: 0x0 }
  - { offsetInCU: 0x8FB, offset: 0x8FB, size: 0x8, addend: 0x0, symName: _.str.98, symObjAddr: 0x35F360, symBinAddr: 0x100391B20, symSize: 0x0 }
  - { offsetInCU: 0x919, offset: 0x919, size: 0x8, addend: 0x0, symName: _.str.99, symObjAddr: 0x35F3A0, symBinAddr: 0x100391B60, symSize: 0x0 }
  - { offsetInCU: 0x937, offset: 0x937, size: 0x8, addend: 0x0, symName: _.str.100, symObjAddr: 0x35F420, symBinAddr: 0x100391BE0, symSize: 0x0 }
  - { offsetInCU: 0x955, offset: 0x955, size: 0x8, addend: 0x0, symName: _.str.101, symObjAddr: 0x35F460, symBinAddr: 0x100391C20, symSize: 0x0 }
  - { offsetInCU: 0x973, offset: 0x973, size: 0x8, addend: 0x0, symName: _.str.102, symObjAddr: 0x35F4C0, symBinAddr: 0x100391C80, symSize: 0x0 }
  - { offsetInCU: 0x985, offset: 0x985, size: 0x8, addend: 0x0, symName: _.str.103, symObjAddr: 0x35F500, symBinAddr: 0x100391CC0, symSize: 0x0 }
  - { offsetInCU: 0x997, offset: 0x997, size: 0x8, addend: 0x0, symName: _.str.104, symObjAddr: 0x35F540, symBinAddr: 0x100391D00, symSize: 0x0 }
  - { offsetInCU: 0x9B5, offset: 0x9B5, size: 0x8, addend: 0x0, symName: _.str.105, symObjAddr: 0x35F5C0, symBinAddr: 0x100391D80, symSize: 0x0 }
  - { offsetInCU: 0x9C7, offset: 0x9C7, size: 0x8, addend: 0x0, symName: _.str.106, symObjAddr: 0x35F600, symBinAddr: 0x100391DC0, symSize: 0x0 }
  - { offsetInCU: 0xB69, offset: 0xB69, size: 0x8, addend: 0x0, symName: __ZN5Catch12_GLOBAL__N_142catch_internal_RegistrarForCompactReporterE, symObjAddr: 0xAC2CC0, symBinAddr: 0x10048AB80, symSize: 0x0 }
  - { offsetInCU: 0xB83, offset: 0xB83, size: 0x8, addend: 0x0, symName: __ZN5Catch12_GLOBAL__N_142catch_internal_RegistrarForConsoleReporterE, symObjAddr: 0xAC2CE0, symBinAddr: 0x10048ABA0, symSize: 0x0 }
  - { offsetInCU: 0xC04, offset: 0xC04, size: 0x8, addend: 0x0, symName: __ZN5Catch12_GLOBAL__N_140catch_internal_RegistrarForJunitReporterE, symObjAddr: 0xAC2D00, symBinAddr: 0x10048ABC0, symSize: 0x0 }
  - { offsetInCU: 0xC1E, offset: 0xC1E, size: 0x8, addend: 0x0, symName: __ZN5Catch12_GLOBAL__N_138catch_internal_RegistrarForXmlReporterE, symObjAddr: 0xAC2D20, symBinAddr: 0x10048ABE0, symSize: 0x0 }
  - { offsetInCU: 0xCF4, offset: 0xCF4, size: 0x8, addend: 0x0, symName: __ZN5Catch12_GLOBAL__N_113getSingletonsEv, symObjAddr: 0x4B77C, symBinAddr: 0x10004C8B8, symSize: 0x58 }
  - { offsetInCU: 0xD1F, offset: 0xD1F, size: 0x8, addend: 0x0, symName: __ZZN5Catch12_GLOBAL__N_113getSingletonsEvE12g_singletons, symObjAddr: 0xAC2D40, symBinAddr: 0x10048AC00, symSize: 0x0 }
  - { offsetInCU: 0xD29, offset: 0xD29, size: 0x8, addend: 0x0, symName: __ZN5Catch12_GLOBAL__N_123estimateClockResolutionEv, symObjAddr: 0x6BAD4, symBinAddr: 0x10006CC10, symSize: 0x150 }
  - { offsetInCU: 0xD54, offset: 0xD54, size: 0x8, addend: 0x0, symName: __ZZN5Catch12_GLOBAL__N_123estimateClockResolutionEvE10iterations, symObjAddr: 0x367720, symBinAddr: 0x10038F620, symSize: 0x0 }
  - { offsetInCU: 0xFE5, offset: 0xFE5, size: 0x8, addend: 0x0, symName: __ZN5Catch12_GLOBAL__N_1lsERNSt3__113basic_ostreamIcNS1_11char_traitsIcEEEERKNS_20ITransientExpressionE, symObjAddr: 0x2FF0, symBinAddr: 0x10000412C, symSize: 0xB8 }
  - { offsetInCU: 0x1022, offset: 0x1022, size: 0x8, addend: 0x0, symName: __ZN5Catch12_GLOBAL__N_122platformColourInstanceEv, symObjAddr: 0x13EE0, symBinAddr: 0x10001501C, symSize: 0x4D8 }
  - { offsetInCU: 0x1077, offset: 0x1077, size: 0x8, addend: 0x0, symName: __ZN5Catch12_GLOBAL__N_115almostEqualUlpsIfEEbT_S2_y, symObjAddr: 0x2A6A8, symBinAddr: 0x10002B7E4, symSize: 0x118 }
  - { offsetInCU: 0x10F9, offset: 0x10F9, size: 0x8, addend: 0x0, symName: __ZN5Catch12_GLOBAL__N_115almostEqualUlpsIdEEbT_S2_y, symObjAddr: 0x2A7C0, symBinAddr: 0x10002B8FC, symSize: 0x118 }
  - { offsetInCU: 0x117B, offset: 0x117B, size: 0x8, addend: 0x0, symName: __ZN5Catch12_GLOBAL__N_15writeIfEEvRNSt3__113basic_ostreamIcNS2_11char_traitsIcEEEET_, symObjAddr: 0x2B4B8, symBinAddr: 0x10002C5F4, symSize: 0x268 }
  - { offsetInCU: 0x11BF, offset: 0x11BF, size: 0x8, addend: 0x0, symName: __ZN5Catch12_GLOBAL__N_15writeIdEEvRNSt3__113basic_ostreamIcNS2_11char_traitsIcEEEET_, symObjAddr: 0x2B720, symBinAddr: 0x10002C85C, symSize: 0x268 }
  - { offsetInCU: 0x1203, offset: 0x1203, size: 0x8, addend: 0x0, symName: __ZN5Catch12_GLOBAL__N_14stepIdEET_S2_S2_y, symObjAddr: 0x2B988, symBinAddr: 0x10002CAC4, symSize: 0x70 }
  - { offsetInCU: 0x1275, offset: 0x1275, size: 0x8, addend: 0x0, symName: __ZN5Catch12_GLOBAL__N_14stepIfEET_S2_S2_y, symObjAddr: 0x2B9F8, symBinAddr: 0x10002CB34, symSize: 0x70 }
  - { offsetInCU: 0x12E7, offset: 0x12E7, size: 0x8, addend: 0x0, symName: __ZN5Catch12_GLOBAL__N_116marginComparisonEddd, symObjAddr: 0x2C684, symBinAddr: 0x10002D7C0, symSize: 0x68 }
  - { offsetInCU: 0x1333, offset: 0x1333, size: 0x8, addend: 0x0, symName: __ZN5Catch12_GLOBAL__N_112rotate_rightEjj, symObjAddr: 0x355A4, symBinAddr: 0x1000366E0, symSize: 0x50 }
  - { offsetInCU: 0x137F, offset: 0x137F, size: 0x8, addend: 0x0, symName: __ZN5Catch12_GLOBAL__N_120applyFilenamesAsTagsERKNS_7IConfigE, symObjAddr: 0x4A0A0, symBinAddr: 0x10004B1DC, symSize: 0x6A8 }
  - { offsetInCU: 0x14DD, offset: 0x14DD, size: 0x8, addend: 0x0, symName: __ZN5Catch12_GLOBAL__N_19toLowerChEc, symObjAddr: 0x4F568, symBinAddr: 0x1000506A4, symSize: 0x28 }
  - { offsetInCU: 0x150B, offset: 0x150B, size: 0x8, addend: 0x0, symName: __ZN5Catch12_GLOBAL__N_115parseSpecialTagERKNSt3__112basic_stringIcNS1_11char_traitsIcEENS1_9allocatorIcEEEE, symObjAddr: 0x54394, symBinAddr: 0x1000554D0, symSize: 0x114 }
  - { offsetInCU: 0x1539, offset: 0x1539, size: 0x8, addend: 0x0, symName: __ZN5Catch12_GLOBAL__N_121enforceNotReservedTagERKNSt3__112basic_stringIcNS1_11char_traitsIcEENS1_9allocatorIcEEEERKNS_14SourceLineInfoE, symObjAddr: 0x544A8, symBinAddr: 0x1000555E4, symSize: 0x3DC }
  - { offsetInCU: 0x15C7, offset: 0x15C7, size: 0x8, addend: 0x0, symName: __ZN5Catch12_GLOBAL__N_113hexEscapeCharERNSt3__113basic_ostreamIcNS1_11char_traitsIcEEEEh, symObjAddr: 0x74198, symBinAddr: 0x1000752D4, symSize: 0x424 }
  - { offsetInCU: 0x1612, offset: 0x1612, size: 0x8, addend: 0x0, symName: __ZN5Catch12_GLOBAL__N_113trailingBytesEh, symObjAddr: 0x745BC, symBinAddr: 0x1000756F8, symSize: 0x458 }
  - { offsetInCU: 0x1641, offset: 0x1641, size: 0x8, addend: 0x0, symName: __ZN5Catch12_GLOBAL__N_111headerValueEh, symObjAddr: 0x74A14, symBinAddr: 0x100075B50, symSize: 0x464 }
  - { offsetInCU: 0x1670, offset: 0x1670, size: 0x8, addend: 0x0, symName: __ZN5Catch12_GLOBAL__N_112shouldIndentENS_13XmlFormattingE, symObjAddr: 0x76670, symBinAddr: 0x1000777AC, symSize: 0x34 }
  - { offsetInCU: 0x169E, offset: 0x169E, size: 0x8, addend: 0x0, symName: __ZN5Catch12_GLOBAL__N_113shouldNewlineENS_13XmlFormattingE, symObjAddr: 0x76F68, symBinAddr: 0x1000780A4, symSize: 0x34 }
  - { offsetInCU: 0x1829, offset: 0x1829, size: 0x8, addend: 0x0, symName: __ZN5Catch12_GLOBAL__N_111printTotalsERNSt3__113basic_ostreamIcNS1_11char_traitsIcEEEERKNS_6TotalsE, symObjAddr: 0x7A580, symBinAddr: 0x10007B6BC, symSize: 0x13B4 }
  - { offsetInCU: 0x1A0B, offset: 0x1A0B, size: 0x8, addend: 0x0, symName: __ZN5Catch12_GLOBAL__N_19makeRatioEmm, symObjAddr: 0x857A0, symBinAddr: 0x1000868DC, symSize: 0x9C }
  - { offsetInCU: 0x1A57, offset: 0x1A57, size: 0x8, addend: 0x0, symName: __ZN5Catch12_GLOBAL__N_17findMaxERmS1_S1_, symObjAddr: 0x8583C, symBinAddr: 0x100086978, symSize: 0x208 }
  - { offsetInCU: 0x1AA3, offset: 0x1AA3, size: 0x8, addend: 0x0, symName: __ZN5Catch12_GLOBAL__N_114formatDurationEd, symObjAddr: 0x8A328, symBinAddr: 0x10008B464, symSize: 0x45C }
  - { offsetInCU: 0x1AE8, offset: 0x1AE8, size: 0x8, addend: 0x0, symName: __ZN5Catch12_GLOBAL__N_119getCurrentTimestampEv, symObjAddr: 0x8A784, symBinAddr: 0x10008B8C0, symSize: 0x27C }
  - { offsetInCU: 0x1B5D, offset: 0x1B5D, size: 0x8, addend: 0x0, symName: __ZN5Catch12_GLOBAL__N_111fileNameTagERKNSt3__16vectorINS1_12basic_stringIcNS1_11char_traitsIcEENS1_9allocatorIcEEEENS6_IS8_EEEE, symObjAddr: 0x8BC08, symBinAddr: 0x10008CD44, symSize: 0x44C }
  - { offsetInCU: 0x1BBE, offset: 0x1BBE, size: 0x8, addend: 0x0, symName: __ZN5Catch12_GLOBAL__N_119useColourOnPlatformEv, symObjAddr: 0xC83C4, symBinAddr: 0x1000C9500, symSize: 0x4C }
  - { offsetInCU: 0x1BDC, offset: 0x1BDC, size: 0x8, addend: 0x0, symName: __ZN5Catch12_GLOBAL__N_112makeReporterERKNSt3__110shared_ptrINS_6ConfigEEE, symObjAddr: 0x1625D0, symBinAddr: 0x10016370C, symSize: 0x9E8 }
  - { offsetInCU: 0x1C85, offset: 0x1C85, size: 0x8, addend: 0x0, symName: __ZN5Catch12_GLOBAL__N_114createReporterERKNSt3__112basic_stringIcNS1_11char_traitsIcEENS1_9allocatorIcEEEERKNS1_10shared_ptrIKNS_7IConfigEEE, symObjAddr: 0x164288, symBinAddr: 0x1001653C4, symSize: 0x52C }
  - { offsetInCU: 0x1CD5, offset: 0x1CD5, size: 0x8, addend: 0x0, symName: __ZN5Catch12_GLOBAL__N_113isReservedTagERKNSt3__112basic_stringIcNS1_11char_traitsIcEENS1_9allocatorIcEEEE, symObjAddr: 0x18915C, symBinAddr: 0x10018A298, symSize: 0xF0 }
  - { offsetInCU: 0x1D03, offset: 0x1D03, size: 0x8, addend: 0x0, symName: __ZN5Catch12_GLOBAL__N_17convertEf, symObjAddr: 0x25FE5C, symBinAddr: 0x100260F98, symSize: 0x2A8 }
  - { offsetInCU: 0x1D48, offset: 0x1D48, size: 0x8, addend: 0x0, symName: __ZN5Catch12_GLOBAL__N_17convertEd, symObjAddr: 0x26011C, symBinAddr: 0x100261258, symSize: 0x27C }
  - { offsetInCU: 0x1D8D, offset: 0x1D8D, size: 0x8, addend: 0x0, symName: __ZN5Catch12_GLOBAL__N_19nextafterEdd, symObjAddr: 0x2607B0, symBinAddr: 0x1002618EC, symSize: 0x2C }
  - { offsetInCU: 0x1DCA, offset: 0x1DCA, size: 0x8, addend: 0x0, symName: __ZN5Catch12_GLOBAL__N_19nextafterEff, symObjAddr: 0x2607DC, symBinAddr: 0x100261918, symSize: 0x2C }
  - { offsetInCU: 0x1E18, offset: 0x1E18, size: 0x8, addend: 0x0, symName: __ZN5Catch15IMutableContext14currentContextE, symObjAddr: 0xAC2D80, symBinAddr: 0x10048ADA0, symSize: 0x0 }
  - { offsetInCU: 0x26E0, offset: 0x26E0, size: 0x8, addend: 0x0, symName: __ZN5Catch10Generators23acquireGeneratorTrackerENS_9StringRefERKNS_14SourceLineInfoE, symObjAddr: 0x1C578, symBinAddr: 0x10001D6B4, symSize: 0x320 }
  - { offsetInCU: 0x41ED, offset: 0x41ED, size: 0x8, addend: 0x0, symName: __ZN5Catch3rngEv, symObjAddr: 0x14780, symBinAddr: 0x1000158BC, symSize: 0xA0 }
  - { offsetInCU: 0x4218, offset: 0x4218, size: 0x8, addend: 0x0, symName: __ZZN5Catch3rngEvE5s_rng, symObjAddr: 0xAC2AC0, symBinAddr: 0x10048A980, symSize: 0x0 }
  - { offsetInCU: 0x42EE, offset: 0x42EE, size: 0x8, addend: 0x0, symName: __ZN5Catch11MessageInfo11globalCountE, symObjAddr: 0xAC2DA0, symBinAddr: 0x10048ADC0, symSize: 0x0 }
  - { offsetInCU: 0x66E6, offset: 0x66E6, size: 0x8, addend: 0x0, symName: __ZN5Catch5clara6detaillsERNSt3__113basic_ostreamIcNS2_11char_traitsIcEEEERKNS1_6ParserE, symObjAddr: 0x4724C, symBinAddr: 0x100048388, symSize: 0x30 }
  - { offsetInCU: 0x6723, offset: 0x6723, size: 0x8, addend: 0x0, symName: __ZN5Catch5clara6detail11convertIntoERKNSt3__112basic_stringIcNS2_11char_traitsIcEENS2_9allocatorIcEEEERS8_, symObjAddr: 0xAACA0, symBinAddr: 0x1000ABDDC, symSize: 0x250 }
  - { offsetInCU: 0x690B, offset: 0x690B, size: 0x8, addend: 0x0, symName: __ZN5Catch5clara6detail12normaliseOptERKNSt3__112basic_stringIcNS2_11char_traitsIcEENS2_9allocatorIcEEEE, symObjAddr: 0xB24B4, symBinAddr: 0x1000B35F0, symSize: 0x38 }
  - { offsetInCU: 0x6939, offset: 0x6939, size: 0x8, addend: 0x0, symName: __ZN5Catch5clara6detail11isOptPrefixEc, symObjAddr: 0xB59B0, symBinAddr: 0x1000B6AEC, symSize: 0x20 }
  - { offsetInCU: 0x6967, offset: 0x6967, size: 0x8, addend: 0x0, symName: '__ZN5Catch5clara6detail12invokeLambdaINSt3__112basic_stringIcNS3_11char_traitsIcEENS3_9allocatorIcEEEEZNS_21makeCommandLineParserERNS_10ConfigDataEE3$_1EENS1_11BasicResultINS1_15ParseResultTypeEEERKT0_RKS9_', symObjAddr: 0x229904, symBinAddr: 0x10022AA40, symSize: 0x3E0 }
  - { offsetInCU: 0x6A75, offset: 0x6A75, size: 0x8, addend: 0x0, symName: '__ZN5Catch5clara6detail12invokeLambdaIiZNS_21makeCommandLineParserERNS_10ConfigDataEE3$_3EENS1_11BasicResultINS1_15ParseResultTypeEEERKT0_RKNSt3__112basic_stringIcNSC_11char_traitsIcEENSC_9allocatorIcEEEE', symObjAddr: 0x22F358, symBinAddr: 0x100230494, symSize: 0x394 }
  - { offsetInCU: 0x6AEC, offset: 0x6AEC, size: 0x8, addend: 0x0, symName: __ZN5Catch5clara6detail11convertIntoIiEENS1_11BasicResultINS1_15ParseResultTypeEEERKNSt3__112basic_stringIcNS6_11char_traitsIcEENS6_9allocatorIcEEEERT_, symObjAddr: 0x22F6EC, symBinAddr: 0x100230828, symSize: 0x624 }
  - { offsetInCU: 0x6B47, offset: 0x6B47, size: 0x8, addend: 0x0, symName: '__ZN5Catch5clara6detail12invokeLambdaINSt3__112basic_stringIcNS3_11char_traitsIcEENS3_9allocatorIcEEEEZNS_21makeCommandLineParserERNS_10ConfigDataEE3$_4EENS1_11BasicResultINS1_15ParseResultTypeEEERKT0_RKS9_', symObjAddr: 0x23232C, symBinAddr: 0x100233468, symSize: 0x3E0 }
  - { offsetInCU: 0x6BBE, offset: 0x6BBE, size: 0x8, addend: 0x0, symName: '__ZN5Catch5clara6detail12invokeLambdaIbZNS_21makeCommandLineParserERNS_10ConfigDataEE3$_5EENS1_11BasicResultINS1_15ParseResultTypeEEERKT0_RKNSt3__112basic_stringIcNSC_11char_traitsIcEENSC_9allocatorIcEEEE', symObjAddr: 0x2350F8, symBinAddr: 0x100236234, symSize: 0x390 }
  - { offsetInCU: 0x6C35, offset: 0x6C35, size: 0x8, addend: 0x0, symName: __ZN5Catch5clara6detail11convertIntoERKNSt3__112basic_stringIcNS2_11char_traitsIcEENS2_9allocatorIcEEEERb, symObjAddr: 0x235488, symBinAddr: 0x1002365C4, symSize: 0x92C }
  - { offsetInCU: 0x6CA6, offset: 0x6CA6, size: 0x8, addend: 0x0, symName: __ZN5Catch5clara6detail11convertIntoIdEENS1_11BasicResultINS1_15ParseResultTypeEEERKNSt3__112basic_stringIcNS6_11char_traitsIcEENS6_9allocatorIcEEEERT_, symObjAddr: 0x2388F8, symBinAddr: 0x100239A34, symSize: 0x624 }
  - { offsetInCU: 0x6D01, offset: 0x6D01, size: 0x8, addend: 0x0, symName: '__ZN5Catch5clara6detail12invokeLambdaINSt3__112basic_stringIcNS3_11char_traitsIcEENS3_9allocatorIcEEEEZNS_21makeCommandLineParserERNS_10ConfigDataEE3$_6EENS1_11BasicResultINS1_15ParseResultTypeEEERKT0_RKS9_', symObjAddr: 0x23B1AC, symBinAddr: 0x10023C2E8, symSize: 0x3E0 }
  - { offsetInCU: 0x6D78, offset: 0x6D78, size: 0x8, addend: 0x0, symName: '__ZN5Catch5clara6detail12invokeLambdaINSt3__112basic_stringIcNS3_11char_traitsIcEENS3_9allocatorIcEEEEZNS_21makeCommandLineParserERNS_10ConfigDataEE3$_7EENS1_11BasicResultINS1_15ParseResultTypeEEERKT0_RKS9_', symObjAddr: 0x240F88, symBinAddr: 0x1002420C4, symSize: 0x3E0 }
  - { offsetInCU: 0x6DEF, offset: 0x6DEF, size: 0x8, addend: 0x0, symName: '__ZN5Catch5clara6detail12invokeLambdaINSt3__112basic_stringIcNS3_11char_traitsIcEENS3_9allocatorIcEEEEZNS_21makeCommandLineParserERNS_10ConfigDataEE3$_8EENS1_11BasicResultINS1_15ParseResultTypeEEERKT0_RKS9_', symObjAddr: 0x243D94, symBinAddr: 0x100244ED0, symSize: 0x3E0 }
  - { offsetInCU: 0x6E66, offset: 0x6E66, size: 0x8, addend: 0x0, symName: '__ZN5Catch5clara6detail12invokeLambdaINSt3__112basic_stringIcNS3_11char_traitsIcEENS3_9allocatorIcEEEEZNS_21makeCommandLineParserERNS_10ConfigDataEE3$_9EENS1_11BasicResultINS1_15ParseResultTypeEEERKT0_RKS9_', symObjAddr: 0x246C7C, symBinAddr: 0x100247DB8, symSize: 0x3E0 }
  - { offsetInCU: 0x6EDD, offset: 0x6EDD, size: 0x8, addend: 0x0, symName: __ZN5Catch5clara6detail11convertIntoIjEENS1_11BasicResultINS1_15ParseResultTypeEEERKNSt3__112basic_stringIcNS6_11char_traitsIcEENS6_9allocatorIcEEEERT_, symObjAddr: 0x2473F8, symBinAddr: 0x100248534, symSize: 0x624 }
  - { offsetInCU: 0x6F38, offset: 0x6F38, size: 0x8, addend: 0x0, symName: '__ZN5Catch5clara6detail12invokeLambdaINSt3__112basic_stringIcNS3_11char_traitsIcEENS3_9allocatorIcEEEEZNS_21makeCommandLineParserERNS_10ConfigDataEE4$_10EENS1_11BasicResultINS1_15ParseResultTypeEEERKT0_RKS9_', symObjAddr: 0x249CAC, symBinAddr: 0x10024ADE8, symSize: 0x3E0 }
  - { offsetInCU: 0x6FAF, offset: 0x6FAF, size: 0x8, addend: 0x0, symName: '__ZN5Catch5clara6detail12invokeLambdaINSt3__112basic_stringIcNS3_11char_traitsIcEENS3_9allocatorIcEEEEZNS_21makeCommandLineParserERNS_10ConfigDataEE4$_11EENS1_11BasicResultINS1_15ParseResultTypeEEERKT0_RKS9_', symObjAddr: 0x24CAB8, symBinAddr: 0x10024DBF4, symSize: 0x3E0 }
  - { offsetInCU: 0x7026, offset: 0x7026, size: 0x8, addend: 0x0, symName: __ZN5Catch5clara6detail11convertIntoIxEENS1_11BasicResultINS1_15ParseResultTypeEEERKNSt3__112basic_stringIcNS6_11char_traitsIcEENS6_9allocatorIcEEEERT_, symObjAddr: 0x251D14, symBinAddr: 0x100252E50, symSize: 0x624 }
  - { offsetInCU: 0x7087, offset: 0x7087, size: 0x8, addend: 0x0, symName: __ZN5Catch5clara8TextFlow17isBreakableBeforeEc, symObjAddr: 0xEEFB8, symBinAddr: 0x1000F00F4, symSize: 0xDC }
  - { offsetInCU: 0x70B2, offset: 0x70B2, size: 0x8, addend: 0x0, symName: __ZZN5Catch5clara8TextFlow17isBreakableBeforeEcE5chars, symObjAddr: 0x36ED80, symBinAddr: 0x100478120, symSize: 0x0 }
  - { offsetInCU: 0x70CB, offset: 0x70CB, size: 0x8, addend: 0x0, symName: __ZN5Catch5clara8TextFlow16isBreakableAfterEc, symObjAddr: 0xEF094, symBinAddr: 0x1000F01D0, symSize: 0xDC }
  - { offsetInCU: 0x70F6, offset: 0x70F6, size: 0x8, addend: 0x0, symName: __ZZN5Catch5clara8TextFlow16isBreakableAfterEcE5chars, symObjAddr: 0x36EDA0, symBinAddr: 0x100478140, symSize: 0x0 }
  - { offsetInCU: 0x710F, offset: 0x710F, size: 0x8, addend: 0x0, symName: __ZN5Catch5clara8TextFlow12isWhitespaceEc, symObjAddr: 0xEEEDC, symBinAddr: 0x1000F0018, symSize: 0xDC }
  - { offsetInCU: 0x713A, offset: 0x713A, size: 0x8, addend: 0x0, symName: __ZZN5Catch5clara8TextFlow12isWhitespaceEcE5chars, symObjAddr: 0x36EDC0, symBinAddr: 0x100478160, symSize: 0x0 }
  - { offsetInCU: 0x7603, offset: 0x7603, size: 0x8, addend: 0x0, symName: __ZN5Catch5clara8TextFlowlsERNSt3__113basic_ostreamIcNS2_11char_traitsIcEEEERKNS1_6ColumnE, symObjAddr: 0x20670, symBinAddr: 0x1000217AC, symSize: 0x464 }
  - { offsetInCU: 0x769F, offset: 0x769F, size: 0x8, addend: 0x0, symName: __ZN5Catch5clara8TextFlowlsERNSt3__113basic_ostreamIcNS2_11char_traitsIcEEEERKNS1_7ColumnsE, symObjAddr: 0x268D0, symBinAddr: 0x100027A0C, symSize: 0x508 }
  - { offsetInCU: 0x7E52, offset: 0x7E52, size: 0x8, addend: 0x0, symName: __ZN5Catch4trimERKNSt3__112basic_stringIcNS0_11char_traitsIcEENS0_9allocatorIcEEEE, symObjAddr: 0x1180C, symBinAddr: 0x100012948, symSize: 0x9C }
  - { offsetInCU: 0x7E7D, offset: 0x7E7D, size: 0x8, addend: 0x0, symName: __ZZN5Catch4trimERKNSt3__112basic_stringIcNS0_11char_traitsIcEENS0_9allocatorIcEEEEE15whitespaceChars, symObjAddr: 0x36ECE0, symBinAddr: 0x100478080, symSize: 0x0 }
  - { offsetInCU: 0x7EB4, offset: 0x7EB4, size: 0x8, addend: 0x0, symName: __ZN5Catch27getEstimatedClockResolutionEv, symObjAddr: 0x6BA2C, symBinAddr: 0x10006CB68, symSize: 0xA8 }
  - { offsetInCU: 0x7EDF, offset: 0x7EDF, size: 0x8, addend: 0x0, symName: __ZZN5Catch27getEstimatedClockResolutionEvE12s_resolution, symObjAddr: 0xAC2C20, symBinAddr: 0x10048AAE0, symSize: 0x0 }
  - { offsetInCU: 0x7EFB, offset: 0x7EFB, size: 0x8, addend: 0x0, symName: __ZN5Catch6Detail17unprintableStringE, symObjAddr: 0xAC2DC0, symBinAddr: 0x10048ADE0, symSize: 0x0 }
  - { offsetInCU: 0x7F4C, offset: 0x7F4C, size: 0x8, addend: 0x0, symName: __ZN5Catch6Detail12_GLOBAL__N_119extractInstanceNameENS_9StringRefE, symObjAddr: 0x172AC, symBinAddr: 0x1000183E8, symSize: 0x340 }
  - { offsetInCU: 0x83A7, offset: 0x83A7, size: 0x8, addend: 0x0, symName: __ZN5Catch6Detail9stringifyIdEENSt3__112basic_stringIcNS2_11char_traitsIcEENS2_9allocatorIcEEEERKT_, symObjAddr: 0xDD0, symBinAddr: 0x100001F0C, symSize: 0x74 }
  - { offsetInCU: 0x83DE, offset: 0x83DE, size: 0x8, addend: 0x0, symName: __ZN5Catch6Detail10parseEnumsENS_9StringRefE, symObjAddr: 0x15830, symBinAddr: 0x10001696C, symSize: 0x6BC }
  - { offsetInCU: 0x847F, offset: 0x847F, size: 0x8, addend: 0x0, symName: __ZN5Catch6Detail12makeEnumInfoENS_9StringRefES1_RKNSt3__16vectorIiNS2_9allocatorIiEEEE, symObjAddr: 0x18358, symBinAddr: 0x100019494, symSize: 0x7A8 }
  - { offsetInCU: 0x855F, offset: 0x855F, size: 0x8, addend: 0x0, symName: __ZN5Catch6Detail9stringifyINS_14SourceLineInfoEEENSt3__112basic_stringIcNS3_11char_traitsIcEENS3_9allocatorIcEEEERKT_, symObjAddr: 0x20C1C, symBinAddr: 0x100021D58, symSize: 0x2C }
  - { offsetInCU: 0x8596, offset: 0x8596, size: 0x8, addend: 0x0, symName: __ZN5Catch6Detail9stringifyINSt3__112basic_stringIcNS2_11char_traitsIcEENS2_9allocatorIcEEEEEES8_RKT_, symObjAddr: 0x30D38, symBinAddr: 0x100031E74, symSize: 0x2C }
  - { offsetInCU: 0x85CD, offset: 0x85CD, size: 0x8, addend: 0x0, symName: __ZN5Catch6Detail17rawMemoryToStringEPKvm, symObjAddr: 0x6BCFC, symBinAddr: 0x10006CE38, symSize: 0x690 }
  - { offsetInCU: 0x865F, offset: 0x865F, size: 0x8, addend: 0x0, symName: __ZN5Catch6Detail9stringifyINSt3__112basic_stringIwNS2_11char_traitsIwEENS2_9allocatorIwEEEEEENS3_IcNS4_IcEENS6_IcEEEERKT_, symObjAddr: 0x6EFDC, symBinAddr: 0x100070118, symSize: 0x2C }
  - { offsetInCU: 0x8696, offset: 0x8696, size: 0x8, addend: 0x0, symName: __ZN5Catch6Detail9stringifyIyEENSt3__112basic_stringIcNS2_11char_traitsIcEENS2_9allocatorIcEEEERKT_, symObjAddr: 0x6F568, symBinAddr: 0x1000706A4, symSize: 0x74 }
  - { offsetInCU: 0x86CD, offset: 0x86CD, size: 0x8, addend: 0x0, symName: __ZN5Catch6Detail9stringifyIxEENSt3__112basic_stringIcNS2_11char_traitsIcEENS2_9allocatorIcEEEERKT_, symObjAddr: 0x6F808, symBinAddr: 0x100070944, symSize: 0x74 }
  - { offsetInCU: 0x8704, offset: 0x8704, size: 0x8, addend: 0x0, symName: __ZN5Catch6Detail9stringifyIjEENSt3__112basic_stringIcNS2_11char_traitsIcEENS2_9allocatorIcEEEERKT_, symObjAddr: 0x70DCC, symBinAddr: 0x100071F08, symSize: 0x9C }
  - { offsetInCU: 0x873B, offset: 0x873B, size: 0x8, addend: 0x0, symName: __ZN5Catch6Detail9stringifyIaEENSt3__112basic_stringIcNS2_11char_traitsIcEENS2_9allocatorIcEEEERKT_, symObjAddr: 0x710A4, symBinAddr: 0x1000721E0, symSize: 0x98 }
  - { offsetInCU: 0x8772, offset: 0x8772, size: 0x8, addend: 0x0, symName: __ZN5Catch6Detail9stringifyIcEENSt3__112basic_stringIcNS2_11char_traitsIcEENS2_9allocatorIcEEEERKT_, symObjAddr: 0x71378, symBinAddr: 0x1000724B4, symSize: 0x98 }
  - { offsetInCU: 0x87B0, offset: 0x87B0, size: 0x8, addend: 0x0, symName: __ZN5Catch11StringMakerIfvE9precisionE, symObjAddr: 0x36ED00, symBinAddr: 0x1004780A0, symSize: 0x0 }
  - { offsetInCU: 0x87FA, offset: 0x87FA, size: 0x8, addend: 0x0, symName: __ZN5Catch11StringMakerIdvE9precisionE, symObjAddr: 0x36ED20, symBinAddr: 0x1004780C0, symSize: 0x0 }
  - { offsetInCU: 0x883E, offset: 0x883E, size: 0x8, addend: 0x0, symName: __ZN5Catch14libraryVersionEv, symObjAddr: 0x4759C, symBinAddr: 0x1000486D8, symSize: 0x88 }
  - { offsetInCU: 0x8869, offset: 0x8869, size: 0x8, addend: 0x0, symName: __ZZN5Catch14libraryVersionEvE7version, symObjAddr: 0xAC2C60, symBinAddr: 0x10048AB20, symSize: 0x0 }
  - { offsetInCU: 0xB57C, offset: 0xB57C, size: 0x8, addend: 0x0, symName: __ZN5Catch12leakDetectorE, symObjAddr: 0xAC2E00, symBinAddr: 0x10048AE20, symSize: 0x0 }
  - { offsetInCU: 0xB5BD, offset: 0xB5BD, size: 0x8, addend: 0x0, symName: __ZN5CatchL11altStackMemE, symObjAddr: 0xAC2B00, symBinAddr: 0x10048A9C0, symSize: 0x0 }
  - { offsetInCU: 0xB5D7, offset: 0xB5D7, size: 0x8, addend: 0x0, symName: __ZN5CatchL12altStackSizeE, symObjAddr: 0xAC2B20, symBinAddr: 0x10048A9E0, symSize: 0x0 }
  - { offsetInCU: 0xB5F1, offset: 0xB5F1, size: 0x8, addend: 0x0, symName: __ZN5CatchL11oldSigStackE, symObjAddr: 0xAC2B40, symBinAddr: 0x10048AA00, symSize: 0x0 }
  - { offsetInCU: 0xB60B, offset: 0xB60B, size: 0x8, addend: 0x0, symName: __ZN5CatchL10signalDefsE, symObjAddr: 0x36EC60, symBinAddr: 0x100478000, symSize: 0x0 }
  - { offsetInCU: 0xB64A, offset: 0xB64A, size: 0x8, addend: 0x0, symName: __ZN5CatchL13oldSigActionsE, symObjAddr: 0xAC2B80, symBinAddr: 0x10048AA40, symSize: 0x0 }
  - { offsetInCU: 0xC14D, offset: 0xC14D, size: 0x8, addend: 0x0, symName: __ZN5Catch14getLineOfCharsILc45EEEPKcv, symObjAddr: 0x83DE4, symBinAddr: 0x100084F20, symSize: 0x58 }
  - { offsetInCU: 0xC178, offset: 0xC178, size: 0x8, addend: 0x0, symName: __ZZN5Catch14getLineOfCharsILc45EEEPKcvE4line, symObjAddr: 0x36EDE8, symBinAddr: 0x100478188, symSize: 0x0 }
  - { offsetInCU: 0xC18C, offset: 0xC18C, size: 0x8, addend: 0x0, symName: __ZN5Catch14getLineOfCharsILc126EEEPKcv, symObjAddr: 0x82C38, symBinAddr: 0x100083D74, symSize: 0x58 }
  - { offsetInCU: 0xC1B7, offset: 0xC1B7, size: 0x8, addend: 0x0, symName: __ZZN5Catch14getLineOfCharsILc126EEEPKcvE4line, symObjAddr: 0x36EE38, symBinAddr: 0x1004781D8, symSize: 0x0 }
  - { offsetInCU: 0xC1CC, offset: 0xC1CC, size: 0x8, addend: 0x0, symName: __ZN5Catch14getLineOfCharsILc46EEEPKcv, symObjAddr: 0x83E3C, symBinAddr: 0x100084F78, symSize: 0x58 }
  - { offsetInCU: 0xC1F7, offset: 0xC1F7, size: 0x8, addend: 0x0, symName: __ZZN5Catch14getLineOfCharsILc46EEEPKcvE4line, symObjAddr: 0x36EE88, symBinAddr: 0x100478228, symSize: 0x0 }
  - { offsetInCU: 0xC94F, offset: 0xC94F, size: 0x8, addend: 0x0, symName: __ZN5Catch16TestCaseTrackingeqERKNS0_15NameAndLocationES3_, symObjAddr: 0x11B8C8, symBinAddr: 0x10011CA04, symSize: 0x60 }
  - { offsetInCU: 0xD54D, offset: 0xD54D, size: 0x8, addend: 0x0, symName: __ZN5Catch8Matchers6EqualsERKNSt3__112basic_stringIcNS1_11char_traitsIcEENS1_9allocatorIcEEEENS_13CaseSensitive6ChoiceE, symObjAddr: 0x5240, symBinAddr: 0x10000637C, symSize: 0x2C0 }
  - { offsetInCU: 0xD58C, offset: 0xD58C, size: 0x8, addend: 0x0, symName: __ZN5Catch8Matchers7MessageERKNSt3__112basic_stringIcNS1_11char_traitsIcEENS1_9allocatorIcEEEE, symObjAddr: 0x28954, symBinAddr: 0x100029A90, symSize: 0x38 }
  - { offsetInCU: 0xD5BA, offset: 0xD5BA, size: 0x8, addend: 0x0, symName: __ZN5Catch8Matchers9WithinULPEdy, symObjAddr: 0x2CC88, symBinAddr: 0x10002DDC4, symSize: 0x44 }
  - { offsetInCU: 0xD5F7, offset: 0xD5F7, size: 0x8, addend: 0x0, symName: __ZN5Catch8Matchers9WithinULPEfy, symObjAddr: 0x2CCCC, symBinAddr: 0x10002DE08, symSize: 0x48 }
  - { offsetInCU: 0xD634, offset: 0xD634, size: 0x8, addend: 0x0, symName: __ZN5Catch8Matchers9WithinAbsEdd, symObjAddr: 0x2CD14, symBinAddr: 0x10002DE50, symSize: 0x38 }
  - { offsetInCU: 0xD671, offset: 0xD671, size: 0x8, addend: 0x0, symName: __ZN5Catch8Matchers9WithinRelEdd, symObjAddr: 0x2CD4C, symBinAddr: 0x10002DE88, symSize: 0x38 }
  - { offsetInCU: 0xD6AE, offset: 0xD6AE, size: 0x8, addend: 0x0, symName: __ZN5Catch8Matchers9WithinRelEd, symObjAddr: 0x2CD84, symBinAddr: 0x10002DEC0, symSize: 0x4C }
  - { offsetInCU: 0xD6DC, offset: 0xD6DC, size: 0x8, addend: 0x0, symName: __ZN5Catch8Matchers9WithinRelEff, symObjAddr: 0x2CDE4, symBinAddr: 0x10002DF20, symSize: 0x40 }
  - { offsetInCU: 0xD719, offset: 0xD719, size: 0x8, addend: 0x0, symName: __ZN5Catch8Matchers9WithinRelEf, symObjAddr: 0x2CE24, symBinAddr: 0x10002DF60, symSize: 0x54 }
  - { offsetInCU: 0xD751, offset: 0xD751, size: 0x8, addend: 0x0, symName: __ZN5Catch8Matchers7Generic6Detail19finalizeDescriptionERKNSt3__112basic_stringIcNS3_11char_traitsIcEENS3_9allocatorIcEEEE, symObjAddr: 0x2CE78, symBinAddr: 0x10002DFB4, symSize: 0x314 }
  - { offsetInCU: 0xD782, offset: 0xD782, size: 0x8, addend: 0x0, symName: __ZN5Catch8Matchers8ContainsERKNSt3__112basic_stringIcNS1_11char_traitsIcEENS1_9allocatorIcEEEENS_13CaseSensitive6ChoiceE, symObjAddr: 0x30D64, symBinAddr: 0x100031EA0, symSize: 0x2C0 }
  - { offsetInCU: 0xD7C1, offset: 0xD7C1, size: 0x8, addend: 0x0, symName: __ZN5Catch8Matchers8EndsWithERKNSt3__112basic_stringIcNS1_11char_traitsIcEENS1_9allocatorIcEEEENS_13CaseSensitive6ChoiceE, symObjAddr: 0x31024, symBinAddr: 0x100032160, symSize: 0x2C0 }
  - { offsetInCU: 0xD800, offset: 0xD800, size: 0x8, addend: 0x0, symName: __ZN5Catch8Matchers10StartsWithERKNSt3__112basic_stringIcNS1_11char_traitsIcEENS1_9allocatorIcEEEENS_13CaseSensitive6ChoiceE, symObjAddr: 0x312E4, symBinAddr: 0x100032420, symSize: 0x2C0 }
  - { offsetInCU: 0xD83F, offset: 0xD83F, size: 0x8, addend: 0x0, symName: __ZN5Catch8Matchers7MatchesERKNSt3__112basic_stringIcNS1_11char_traitsIcEENS1_9allocatorIcEEEENS_13CaseSensitive6ChoiceE, symObjAddr: 0x315A4, symBinAddr: 0x1000326E0, symSize: 0x200 }
  - { offsetInCU: 0xDA67, offset: 0xDA67, size: 0x8, addend: 0x0, symName: __ZN5Catch21makeCommandLineParserERNS_10ConfigDataE, symObjAddr: 0x75B8, symBinAddr: 0x1000086F4, symSize: 0x7350 }
  - { offsetInCU: 0xDDEC, offset: 0xDDEC, size: 0x8, addend: 0x0, symName: __ZN5Catch18throw_domain_errorERKNSt3__112basic_stringIcNS0_11char_traitsIcEENS0_9allocatorIcEEEE, symObjAddr: 0x17BC, symBinAddr: 0x1000028F8, symSize: 0x1CC }
  - { offsetInCU: 0xDE1C, offset: 0xDE1C, size: 0x8, addend: 0x0, symName: __ZN5Catch8literalsli2_aEe, symObjAddr: 0x22B0, symBinAddr: 0x1000033EC, symSize: 0x304 }
  - { offsetInCU: 0xDE4E, offset: 0xDE4E, size: 0x8, addend: 0x0, symName: __ZN5Catch8literalsli2_aEy, symObjAddr: 0x262C, symBinAddr: 0x100003768, symSize: 0x304 }
  - { offsetInCU: 0xDEAC, offset: 0xDEAC, size: 0x8, addend: 0x0, symName: __ZN5CatchlsERNSt3__113basic_ostreamIcNS0_11char_traitsIcEEEERKNS_14LazyExpressionE, symObjAddr: 0x2CD8, symBinAddr: 0x100003E14, symSize: 0x244 }
  - { offsetInCU: 0xE02B, offset: 0xE02B, size: 0x8, addend: 0x0, symName: __ZN5Catch16getResultCaptureEv, symObjAddr: 0x345C, symBinAddr: 0x100004598, symSize: 0x480 }
  - { offsetInCU: 0xE060, offset: 0xE060, size: 0x8, addend: 0x0, symName: __ZN5Catch17getCurrentContextEv, symObjAddr: 0x3EB4, symBinAddr: 0x100004FF0, symSize: 0x14 }
  - { offsetInCU: 0xE07E, offset: 0xE07E, size: 0x8, addend: 0x0, symName: __ZN5Catch24translateActiveExceptionEv, symObjAddr: 0x465C, symBinAddr: 0x100005798, symSize: 0x130 }
  - { offsetInCU: 0xE09C, offset: 0xE09C, size: 0x8, addend: 0x0, symName: __ZN5Catch24handleExceptionMatchExprERNS_16AssertionHandlerERKNSt3__112basic_stringIcNS2_11char_traitsIcEENS2_9allocatorIcEEEERKNS_9StringRefE, symObjAddr: 0x4B68, symBinAddr: 0x100005CA4, symSize: 0x324 }
  - { offsetInCU: 0xE0E7, offset: 0xE0E7, size: 0x8, addend: 0x0, symName: __ZN5Catch24handleExceptionMatchExprERNS_16AssertionHandlerERKNS_8Matchers4Impl11MatcherBaseINSt3__112basic_stringIcNS5_11char_traitsIcEENS5_9allocatorIcEEEEEERKNS_9StringRefE, symObjAddr: 0x4E8C, symBinAddr: 0x100005FC8, symSize: 0x3B4 }
  - { offsetInCU: 0xE158, offset: 0xE158, size: 0x8, addend: 0x0, symName: __ZN5Catch4isOkENS_9ResultWas6OfTypeE, symObjAddr: 0x5C88, symBinAddr: 0x100006DC4, symSize: 0x20 }
  - { offsetInCU: 0xE186, offset: 0xE186, size: 0x8, addend: 0x0, symName: __ZN5Catch21shouldSuppressFailureEi, symObjAddr: 0x5DC4, symBinAddr: 0x100006F00, symSize: 0x20 }
  - { offsetInCU: 0xE1B4, offset: 0xE1B4, size: 0x8, addend: 0x0, symName: __ZN5Catch11isFalseTestEi, symObjAddr: 0x61A4, symBinAddr: 0x1000072E0, symSize: 0x20 }
  - { offsetInCU: 0xE1E2, offset: 0xE1E2, size: 0x8, addend: 0x0, symName: __ZN5CatchpLERNSt3__112basic_stringIcNS0_11char_traitsIcEENS0_9allocatorIcEEEERKNS_9StringRefE, symObjAddr: 0x61F0, symBinAddr: 0x10000732C, symSize: 0x50 }
  - { offsetInCU: 0xE2C0, offset: 0xE2C0, size: 0x8, addend: 0x0, symName: __ZN5CatchlsERNSt3__113basic_ostreamIcNS0_11char_traitsIcEEEERKNS_14SourceLineInfoE, symObjAddr: 0x100D0, symBinAddr: 0x10001120C, symSize: 0xD0 }
  - { offsetInCU: 0xE31E, offset: 0xE31E, size: 0x8, addend: 0x0, symName: __ZN5Catch10makeStreamERKNS_9StringRefE, symObjAddr: 0x132F0, symBinAddr: 0x10001442C, symSize: 0x554 }
  - { offsetInCU: 0xE34D, offset: 0xE34D, size: 0x8, addend: 0x0, symName: __ZN5CatchlsERNSt3__113basic_ostreamIcNS0_11char_traitsIcEEEERKNS_6ColourE, symObjAddr: 0x143B8, symBinAddr: 0x1000154F4, symSize: 0x18 }
  - { offsetInCU: 0xE4A9, offset: 0xE4A9, size: 0x8, addend: 0x0, symName: __ZN5Catch14cleanUpContextEv, symObjAddr: 0x1446C, symBinAddr: 0x1000155A8, symSize: 0xCC }
  - { offsetInCU: 0xE4C3, offset: 0xE4C3, size: 0x8, addend: 0x0, symName: __ZN5Catch19writeToDebugConsoleERKNSt3__112basic_stringIcNS0_11char_traitsIcEENS0_9allocatorIcEEEE, symObjAddr: 0x14854, symBinAddr: 0x100015990, symSize: 0x28 }
  - { offsetInCU: 0xE4ED, offset: 0xE4ED, size: 0x8, addend: 0x0, symName: __ZN5Catch4coutEv, symObjAddr: 0x148C8, symBinAddr: 0x100015A04, symSize: 0xC }
  - { offsetInCU: 0xE50B, offset: 0xE50B, size: 0x8, addend: 0x0, symName: __ZN5Catch16isDebuggerActiveEv, symObjAddr: 0x148D4, symBinAddr: 0x100015A10, symSize: 0x598 }
  - { offsetInCU: 0xE564, offset: 0xE564, size: 0x8, addend: 0x0, symName: __ZN5Catch4cerrEv, symObjAddr: 0x14E6C, symBinAddr: 0x100015FA8, symSize: 0xC }
  - { offsetInCU: 0xE582, offset: 0xE582, size: 0x8, addend: 0x0, symName: __ZN5Catch29formatReconstructedExpressionERNSt3__113basic_ostreamIcNS0_11char_traitsIcEEEERKNS0_12basic_stringIcS3_NS0_9allocatorIcEEEENS_9StringRefESB_, symObjAddr: 0x14FC4, symBinAddr: 0x100016100, symSize: 0x2F4 }
  - { offsetInCU: 0xE5E0, offset: 0xE5E0, size: 0x8, addend: 0x0, symName: __ZN5CatchlsERNSt3__113basic_ostreamIcNS0_11char_traitsIcEEEERKNS_9StringRefE, symObjAddr: 0x1530C, symBinAddr: 0x100016448, symSize: 0x4C }
  - { offsetInCU: 0xE61D, offset: 0xE61D, size: 0x8, addend: 0x0, symName: __ZN5Catch17throw_logic_errorERKNSt3__112basic_stringIcNS0_11char_traitsIcEENS0_9allocatorIcEEEE, symObjAddr: 0x15358, symBinAddr: 0x100016494, symSize: 0x1CC }
  - { offsetInCU: 0xE648, offset: 0xE648, size: 0x8, addend: 0x0, symName: __ZN5Catch15throw_exceptionISt11logic_errorEEvRKT_, symObjAddr: 0x15524, symBinAddr: 0x100016660, symSize: 0x40 }
  - { offsetInCU: 0xE67B, offset: 0xE67B, size: 0x8, addend: 0x0, symName: __ZN5Catch15throw_exceptionISt12domain_errorEEvRKT_, symObjAddr: 0x15564, symBinAddr: 0x1000166A0, symSize: 0x40 }
  - { offsetInCU: 0xE6AE, offset: 0xE6AE, size: 0x8, addend: 0x0, symName: __ZN5Catch19throw_runtime_errorERKNSt3__112basic_stringIcNS0_11char_traitsIcEENS0_9allocatorIcEEEE, symObjAddr: 0x155D8, symBinAddr: 0x100016714, symSize: 0x1CC }
  - { offsetInCU: 0xE6D9, offset: 0xE6D9, size: 0x8, addend: 0x0, symName: __ZN5Catch15throw_exceptionISt13runtime_errorEEvRKT_, symObjAddr: 0x157A4, symBinAddr: 0x1000168E0, symSize: 0x40 }
  - { offsetInCU: 0xE70C, offset: 0xE70C, size: 0x8, addend: 0x0, symName: __ZN5Catch14splitStringRefENS_9StringRefEc, symObjAddr: 0x15EEC, symBinAddr: 0x100017028, symSize: 0x530 }
  - { offsetInCU: 0xE78D, offset: 0xE78D, size: 0x8, addend: 0x0, symName: __ZN5Catch4trimENS_9StringRefE, symObjAddr: 0x16EA4, symBinAddr: 0x100017FE0, symSize: 0x408 }
  - { offsetInCU: 0xE811, offset: 0xE811, size: 0x8, addend: 0x0, symName: __ZN5Catchli3_srEPKcm, symObjAddr: 0x1814C, symBinAddr: 0x100019288, symSize: 0x20C }
  - { offsetInCU: 0xE906, offset: 0xE906, size: 0x8, addend: 0x0, symName: __ZN5CatchL12handleSignalEi, symObjAddr: 0x1C1CC, symBinAddr: 0x10001D308, symSize: 0x19C }
  - { offsetInCU: 0xE98E, offset: 0xE98E, size: 0x8, addend: 0x0, symName: __ZN5CatchL29restorePreviousSignalHandlersEv, symObjAddr: 0x1C388, symBinAddr: 0x10001D4C4, symSize: 0xF4 }
  - { offsetInCU: 0xEA30, offset: 0xEA30, size: 0x8, addend: 0x0, symName: __ZN5Catch7cleanUpEv, symObjAddr: 0x1EA38, symBinAddr: 0x10001FB74, symSize: 0x18 }
  - { offsetInCU: 0xEA4A, offset: 0xEA4A, size: 0x8, addend: 0x0, symName: __ZN5Catch9listTestsERKNS_6ConfigE, symObjAddr: 0x1EA7C, symBinAddr: 0x10001FBB8, symSize: 0x103C }
  - { offsetInCU: 0xEB3A, offset: 0xEB3A, size: 0x8, addend: 0x0, symName: __ZN5Catch11filterTestsERKNSt3__16vectorINS_8TestCaseENS0_9allocatorIS2_EEEERKNS_8TestSpecERKNS_7IConfigE, symObjAddr: 0x1FAB8, symBinAddr: 0x100020BF4, symSize: 0x484 }
  - { offsetInCU: 0xEBEB, offset: 0xEBEB, size: 0x8, addend: 0x0, symName: __ZN5Catch21getAllTestCasesSortedERKNS_7IConfigE, symObjAddr: 0x1FF3C, symBinAddr: 0x100021078, symSize: 0x134 }
  - { offsetInCU: 0xEC19, offset: 0xEC19, size: 0x8, addend: 0x0, symName: __ZN5CatchlsERNSt3__113basic_ostreamIcNS0_11char_traitsIcEEEERKNS_9pluraliseE, symObjAddr: 0x2129C, symBinAddr: 0x1000223D8, symSize: 0xEC }
  - { offsetInCU: 0xEC9E, offset: 0xEC9E, size: 0x8, addend: 0x0, symName: __ZN5Catch18listTestsNamesOnlyERKNS_6ConfigE, symObjAddr: 0x214CC, symBinAddr: 0x100022608, symSize: 0x66C }
  - { offsetInCU: 0xED4A, offset: 0xED4A, size: 0x8, addend: 0x0, symName: __ZN5Catch10startsWithERKNSt3__112basic_stringIcNS0_11char_traitsIcEENS0_9allocatorIcEEEEc, symObjAddr: 0x21B38, symBinAddr: 0x100022C74, symSize: 0xCC }
  - { offsetInCU: 0xED87, offset: 0xED87, size: 0x8, addend: 0x0, symName: __ZN5Catch8listTagsERKNS_6ConfigE, symObjAddr: 0x22C5C, symBinAddr: 0x100023D98, symSize: 0x1300 }
  - { offsetInCU: 0xEF5D, offset: 0xEF5D, size: 0x8, addend: 0x0, symName: __ZN5Catch7toLowerERKNSt3__112basic_stringIcNS0_11char_traitsIcEENS0_9allocatorIcEEEE, symObjAddr: 0x24504, symBinAddr: 0x100025640, symSize: 0xA0 }
  - { offsetInCU: 0xEF9B, offset: 0xEF9B, size: 0x8, addend: 0x0, symName: __ZN5Catch13listReportersEv, symObjAddr: 0x25750, symBinAddr: 0x10002688C, symSize: 0xB80 }
  - { offsetInCU: 0xF089, offset: 0xF089, size: 0x8, addend: 0x0, symName: __ZN5Catch14getRegistryHubEv, symObjAddr: 0x262D0, symBinAddr: 0x10002740C, symSize: 0x14 }
  - { offsetInCU: 0xF0A7, offset: 0xF0A7, size: 0x8, addend: 0x0, symName: __ZN5Catch4listERKNSt3__110shared_ptrINS_6ConfigEEE, symObjAddr: 0x27274, symBinAddr: 0x1000283B0, symSize: 0x8A0 }
  - { offsetInCU: 0xF27B, offset: 0xF27B, size: 0x8, addend: 0x0, symName: __ZN5Catch24getCurrentMutableContextEv, symObjAddr: 0x27B40, symBinAddr: 0x100028C7C, symSize: 0x38 }
  - { offsetInCU: 0xF299, offset: 0xF299, size: 0x8, addend: 0x0, symName: __ZN5Catch8containsERKNSt3__112basic_stringIcNS0_11char_traitsIcEENS0_9allocatorIcEEEES8_, symObjAddr: 0x2E868, symBinAddr: 0x10002F9A4, symSize: 0x3C }
  - { offsetInCU: 0xF2D6, offset: 0xF2D6, size: 0x8, addend: 0x0, symName: __ZN5Catch10startsWithERKNSt3__112basic_stringIcNS0_11char_traitsIcEENS0_9allocatorIcEEEES8_, symObjAddr: 0x2EF60, symBinAddr: 0x10003009C, symSize: 0x3F8 }
  - { offsetInCU: 0xF315, offset: 0xF315, size: 0x8, addend: 0x0, symName: __ZN5Catch8endsWithERKNSt3__112basic_stringIcNS0_11char_traitsIcEENS0_9allocatorIcEEEES8_, symObjAddr: 0x2FA14, symBinAddr: 0x100030B50, symSize: 0x3E0 }
  - { offsetInCU: 0xF354, offset: 0xF354, size: 0x8, addend: 0x0, symName: __ZN5Catch19uncaught_exceptionsEv, symObjAddr: 0x32310, symBinAddr: 0x10003344C, symSize: 0x20 }
  - { offsetInCU: 0xF508, offset: 0xF508, size: 0x8, addend: 0x0, symName: __ZN5Catch4clogEv, symObjAddr: 0x34C74, symBinAddr: 0x100035DB0, symSize: 0xC }
  - { offsetInCU: 0xF5ED, offset: 0xF5ED, size: 0x8, addend: 0x0, symName: __ZN5Catch5isnanEf, symObjAddr: 0x351EC, symBinAddr: 0x100036328, symSize: 0x28 }
  - { offsetInCU: 0xF61B, offset: 0xF61B, size: 0x8, addend: 0x0, symName: __ZN5Catch5isnanEd, symObjAddr: 0x35234, symBinAddr: 0x100036370, symSize: 0x28 }
  - { offsetInCU: 0xF649, offset: 0xF649, size: 0x8, addend: 0x0, symName: __ZN5CatcheqERKNS_11SimplePcg32ES2_, symObjAddr: 0x355F4, symBinAddr: 0x100036730, symSize: 0xB8 }
  - { offsetInCU: 0xF686, offset: 0xF686, size: 0x8, addend: 0x0, symName: __ZN5CatchneERKNS_11SimplePcg32ES2_, symObjAddr: 0x356AC, symBinAddr: 0x1000367E8, symSize: 0xB8 }
  - { offsetInCU: 0xF6C3, offset: 0xF6C3, size: 0x8, addend: 0x0, symName: __ZN5Catch21getMutableRegistryHubEv, symObjAddr: 0x35778, symBinAddr: 0x1000368B4, symSize: 0x14 }
  - { offsetInCU: 0xF6E1, offset: 0xF6E1, size: 0x8, addend: 0x0, symName: __ZN5Catch17cleanupSingletonsEv, symObjAddr: 0x357A4, symBinAddr: 0x1000368E0, symSize: 0x48C }
  - { offsetInCU: 0xF765, offset: 0xF765, size: 0x8, addend: 0x0, symName: __ZN5Catch10isJustInfoEi, symObjAddr: 0x36BDC, symBinAddr: 0x100037D18, symSize: 0x20 }
  - { offsetInCU: 0xF793, offset: 0xF793, size: 0x8, addend: 0x0, symName: __ZN5CatchorENS_17ResultDisposition5FlagsES1_, symObjAddr: 0x36BFC, symBinAddr: 0x100037D38, symSize: 0x20 }
  - { offsetInCU: 0xF7D0, offset: 0xF7D0, size: 0x8, addend: 0x0, symName: __ZN5Catch23shouldContinueOnFailureEi, symObjAddr: 0x36C1C, symBinAddr: 0x100037D58, symSize: 0x20 }
  - { offsetInCU: 0xFF0F, offset: 0xFF0F, size: 0x8, addend: 0x0, symName: __ZN5Catch7seedRngERKNS_7IConfigE, symObjAddr: 0x41F0C, symBinAddr: 0x100043048, symSize: 0x1D4 }
  - { offsetInCU: 0xFF74, offset: 0xFF74, size: 0x8, addend: 0x0, symName: __ZN5Catch7rngSeedEv, symObjAddr: 0x44E48, symBinAddr: 0x100045F84, symSize: 0x128 }
  - { offsetInCU: 0x1002A, offset: 0x1002A, size: 0x8, addend: 0x0, symName: __ZN5CatchlsERNSt3__113basic_ostreamIcNS0_11char_traitsIcEEEERKNS_7VersionE, symObjAddr: 0x4727C, symBinAddr: 0x1000483B8, symSize: 0x320 }
  - { offsetInCU: 0x10067, offset: 0x10067, size: 0x8, addend: 0x0, symName: __ZN5Catch12addSingletonEPNS_10ISingletonE, symObjAddr: 0x4B554, symBinAddr: 0x10004C690, symSize: 0x228 }
  - { offsetInCU: 0x10095, offset: 0x10095, size: 0x8, addend: 0x0, symName: __ZN5Catch8endsWithERKNSt3__112basic_stringIcNS0_11char_traitsIcEENS0_9allocatorIcEEEEc, symObjAddr: 0x4E6F4, symBinAddr: 0x10004F830, symSize: 0xE0 }
  - { offsetInCU: 0x100D2, offset: 0x100D2, size: 0x8, addend: 0x0, symName: __ZN5Catch14toLowerInPlaceERNSt3__112basic_stringIcNS0_11char_traitsIcEENS0_9allocatorIcEEEE, symObjAddr: 0x4E84C, symBinAddr: 0x10004F988, symSize: 0x410 }
  - { offsetInCU: 0x100FD, offset: 0x100FD, size: 0x8, addend: 0x0, symName: __ZN5Catch14replaceInPlaceERNSt3__112basic_stringIcNS0_11char_traitsIcEENS0_9allocatorIcEEEERKS6_S9_, symObjAddr: 0x4FD68, symBinAddr: 0x100050EA4, symSize: 0x584 }
  - { offsetInCU: 0x10194, offset: 0x10194, size: 0x8, addend: 0x0, symName: __ZN5Catch12makeTestCaseEPNS_12ITestInvokerERKNSt3__112basic_stringIcNS2_11char_traitsIcEENS2_9allocatorIcEEEERKNS_11NameAndTagsERKNS_14SourceLineInfoE, symObjAddr: 0x53680, symBinAddr: 0x1000547BC, symSize: 0xBE0 }
  - { offsetInCU: 0x102CA, offset: 0x102CA, size: 0x8, addend: 0x0, symName: __ZN5Catch7setTagsERNS_12TestCaseInfoENSt3__16vectorINS2_12basic_stringIcNS2_11char_traitsIcEENS2_9allocatorIcEEEENS7_IS9_EEEE, symObjAddr: 0x55120, symBinAddr: 0x10005625C, symSize: 0x9D4 }
  - { offsetInCU: 0x1036B, offset: 0x1036B, size: 0x8, addend: 0x0, symName: __ZN5Catch9sortTestsERKNS_7IConfigERKNSt3__16vectorINS_8TestCaseENS3_9allocatorIS5_EEEE, symObjAddr: 0x57E3C, symBinAddr: 0x100058F78, symSize: 0xC68 }
  - { offsetInCU: 0x104CD, offset: 0x104CD, size: 0x8, addend: 0x0, symName: __ZN5Catch11isThrowSafeERKNS_8TestCaseERKNS_7IConfigE, symObjAddr: 0x5AB40, symBinAddr: 0x10005BC7C, symSize: 0xD8 }
  - { offsetInCU: 0x1050A, offset: 0x1050A, size: 0x8, addend: 0x0, symName: __ZN5Catch9matchTestERKNS_8TestCaseERKNS_8TestSpecERKNS_7IConfigE, symObjAddr: 0x5AC18, symBinAddr: 0x10005BD54, symSize: 0x5C }
  - { offsetInCU: 0x10556, offset: 0x10556, size: 0x8, addend: 0x0, symName: __ZN5Catch27enforceNoDuplicateTestCasesERKNSt3__16vectorINS_8TestCaseENS0_9allocatorIS2_EEEE, symObjAddr: 0x5B02C, symBinAddr: 0x10005C168, symSize: 0x708 }
  - { offsetInCU: 0x1066E, offset: 0x1066E, size: 0x8, addend: 0x0, symName: __ZN5Catch16extractClassNameERKNS_9StringRefE, symObjAddr: 0x5CA7C, symBinAddr: 0x10005DBB8, symSize: 0x3A4 }
  - { offsetInCU: 0x106DC, offset: 0x106DC, size: 0x8, addend: 0x0, symName: __ZN5Catch15makeTestInvokerEPFvvE, symObjAddr: 0x629E8, symBinAddr: 0x100063B24, symSize: 0x88 }
  - { offsetInCU: 0x10794, offset: 0x10794, size: 0x8, addend: 0x0, symName: __ZN5Catch13parseTestSpecERKNSt3__112basic_stringIcNS0_11char_traitsIcEENS0_9allocatorIcEEEE, symObjAddr: 0x6AF00, symBinAddr: 0x10006C03C, symSize: 0x354 }
  - { offsetInCU: 0x107C3, offset: 0x107C3, size: 0x8, addend: 0x0, symName: __ZN5Catch31getCurrentNanosecondsSinceEpochEv, symObjAddr: 0x6B254, symBinAddr: 0x10006C390, symSize: 0x300 }
  - { offsetInCU: 0x10B3D, offset: 0x10B3D, size: 0x8, addend: 0x0, symName: __ZN5Catch10fpToStringIfEENSt3__112basic_stringIcNS1_11char_traitsIcEENS1_9allocatorIcEEEET_i, symObjAddr: 0x71730, symBinAddr: 0x10007286C, symSize: 0x6C8 }
  - { offsetInCU: 0x10BBC, offset: 0x10BBC, size: 0x8, addend: 0x0, symName: __ZN5Catch10fpToStringIdEENSt3__112basic_stringIcNS1_11char_traitsIcEENS1_9allocatorIcEEEET_i, symObjAddr: 0x71E2C, symBinAddr: 0x100072F68, symSize: 0x698 }
  - { offsetInCU: 0x10D13, offset: 0x10D13, size: 0x8, addend: 0x0, symName: __ZN5CatchorENS_13XmlFormattingES0_, symObjAddr: 0x736DC, symBinAddr: 0x100074818, symSize: 0x20 }
  - { offsetInCU: 0x10D50, offset: 0x10D50, size: 0x8, addend: 0x0, symName: __ZN5CatchanENS_13XmlFormattingES0_, symObjAddr: 0x736FC, symBinAddr: 0x100074838, symSize: 0x20 }
  - { offsetInCU: 0x10D8D, offset: 0x10D8D, size: 0x8, addend: 0x0, symName: __ZN5CatchlsERNSt3__113basic_ostreamIcNS0_11char_traitsIcEEEERKNS_9XmlEncodeE, symObjAddr: 0x74E78, symBinAddr: 0x100075FB4, symSize: 0x30 }
  - { offsetInCU: 0x10DCA, offset: 0x10DCA, size: 0x8, addend: 0x0, symName: __ZN5Catch25prepareExpandedExpressionERNS_15AssertionResultE, symObjAddr: 0x76F9C, symBinAddr: 0x1000780D8, symSize: 0x1E4 }
  - { offsetInCU: 0x10DF5, offset: 0x10DF5, size: 0x8, addend: 0x0, symName: __ZN5Catch20getFormattedDurationEd, symObjAddr: 0x77180, symBinAddr: 0x1000782BC, symSize: 0x3E4 }
  - { offsetInCU: 0x10E5B, offset: 0x10E5B, size: 0x8, addend: 0x0, symName: __ZN5Catch18shouldShowDurationERKNS_7IConfigEd, symObjAddr: 0x77564, symBinAddr: 0x1000786A0, symSize: 0x248 }
  - { offsetInCU: 0x10EA7, offset: 0x10EA7, size: 0x8, addend: 0x0, symName: __ZN5Catch16serializeFiltersERKNSt3__16vectorINS0_12basic_stringIcNS0_11char_traitsIcEENS0_9allocatorIcEEEENS5_IS7_EEEE, symObjAddr: 0x777AC, symBinAddr: 0x1000788E8, symSize: 0x54C }
  - { offsetInCU: 0x11490, offset: 0x11490, size: 0x8, addend: 0x0, symName: __ZN5CatchlsERNS_12TablePrinterENS_12_GLOBAL__N_18RowBreakE, symObjAddr: 0x2077B8, symBinAddr: 0x1002088F4, symSize: 0x158 }
  - { offsetInCU: 0x11531, offset: 0x11531, size: 0x8, addend: 0x0, symName: __ZN5Catch6Colour3useENS0_4CodeE, symObjAddr: 0x1390C, symBinAddr: 0x100014A48, symSize: 0x160 }
  - { offsetInCU: 0x11553, offset: 0x11553, size: 0x8, addend: 0x0, symName: __ZZN5Catch6Colour3useENS0_4CodeEE4impl, symObjAddr: 0xAC2A80, symBinAddr: 0x10048A940, symSize: 0x0 }
  - { offsetInCU: 0x20728, offset: 0x20728, size: 0x8, addend: 0x0, symName: __ZNSt3__16chrono13duration_castB8ue170006INS0_8durationIxNS_5ratioILl1ELl1000000000EEEEExS4_EENS_9enable_ifIXsr13__is_durationIT_EE5valueES7_E4typeERKNS2_IT0_T1_EE, symObjAddr: 0x6B554, symBinAddr: 0x10006C690, symSize: 0x27C }
  - { offsetInCU: 0x3B454, offset: 0x3B454, size: 0x8, addend: 0x0, symName: __ZNSt3__16ranges5__cpo9iter_moveE, symObjAddr: 0x367E58, symBinAddr: 0x10038FD58, symSize: 0x0 }
  - { offsetInCU: 0x4F505, offset: 0x4F505, size: 0x8, addend: 0x0, symName: __ZNSt3__115regex_constantsoRB8ue170006ERNS0_18syntax_option_typeES1_, symObjAddr: 0x3045C, symBinAddr: 0x100031598, symSize: 0x108 }
  - { offsetInCU: 0x4F542, offset: 0x4F542, size: 0x8, addend: 0x0, symName: __ZNSt3__115regex_constantsorB8ue170006ENS0_18syntax_option_typeES1_, symObjAddr: 0x107870, symBinAddr: 0x1001089AC, symSize: 0x20 }
  - { offsetInCU: 0x4F57F, offset: 0x4F57F, size: 0x8, addend: 0x0, symName: __ZNSt3__115regex_constants13__get_grammarB8ue170006ENS0_18syntax_option_typeE, symObjAddr: 0x26145C, symBinAddr: 0x100262598, symSize: 0x18 }
  - { offsetInCU: 0x4F5AD, offset: 0x4F5AD, size: 0x8, addend: 0x0, symName: __ZNSt3__115regex_constantsanB8ue170006ENS0_18syntax_option_typeES1_, symObjAddr: 0x26CD44, symBinAddr: 0x10026DE80, symSize: 0x20 }
  - { offsetInCU: 0x4F5EA, offset: 0x4F5EA, size: 0x8, addend: 0x0, symName: __ZNSt3__115regex_constantsanB8ue170006ENS0_15match_flag_typeES1_, symObjAddr: 0x26D460, symBinAddr: 0x10026E59C, symSize: 0x20 }
  - { offsetInCU: 0x4F627, offset: 0x4F627, size: 0x8, addend: 0x0, symName: __ZNSt3__115regex_constantsorB8ue170006ENS0_15match_flag_typeES1_, symObjAddr: 0x2714F0, symBinAddr: 0x10027262C, symSize: 0x20 }
  - { offsetInCU: 0x4F664, offset: 0x4F664, size: 0x8, addend: 0x0, symName: __ZNSt3__115regex_constantscoB8ue170006ENS0_15match_flag_typeE, symObjAddr: 0x271510, symBinAddr: 0x10027264C, symSize: 0x1C }
  - { offsetInCU: 0x4F692, offset: 0x4F692, size: 0x8, addend: 0x0, symName: __ZNSt3__115regex_constantsaNB8ue170006ERNS0_15match_flag_typeES1_, symObjAddr: 0x2CEDF4, symBinAddr: 0x1002CFF30, symSize: 0x108 }
  - { offsetInCU: 0x4F6CF, offset: 0x4F6CF, size: 0x8, addend: 0x0, symName: __ZNSt3__115regex_constantsoRB8ue170006ERNS0_15match_flag_typeES1_, symObjAddr: 0x2CF0D8, symBinAddr: 0x1002D0214, symSize: 0x108 }
  - { offsetInCU: 0x63300, offset: 0x63300, size: 0x8, addend: 0x0, symName: __ZNSt3__17advanceB8ue170006IPN5Catch5clara6detail5TokenEllvEEvRT_T0_, symObjAddr: 0xA872C, symBinAddr: 0x1000A9868, symSize: 0x38 }
  - { offsetInCU: 0x63ED8, offset: 0x63ED8, size: 0x8, addend: 0x0, symName: __ZNSt3__17advanceB8ue170006INS_16reverse_iteratorIPN5Catch5clara6detail5TokenEEEllvEEvRT_T0_, symObjAddr: 0xB9A20, symBinAddr: 0x1000BAB5C, symSize: 0x38 }
  - { offsetInCU: 0x6648D, offset: 0x6648D, size: 0x8, addend: 0x0, symName: __ZNSt3__17advanceB8ue170006IPNS_4pairIiN5Catch9StringRefEEEllvEEvRT_T0_, symObjAddr: 0xD436C, symBinAddr: 0x1000D54A8, symSize: 0x38 }
  - { offsetInCU: 0x6672F, offset: 0x6672F, size: 0x8, addend: 0x0, symName: __ZNSt3__17advanceB8ue170006INS_16reverse_iteratorIPNS_4pairIiN5Catch9StringRefEEEEEllvEEvRT_T0_, symObjAddr: 0xD55E4, symBinAddr: 0x1000D6720, symSize: 0x38 }
  - { offsetInCU: 0x66B20, offset: 0x66B20, size: 0x8, addend: 0x0, symName: __ZNSt3__17advanceB8ue170006IPNS_10unique_ptrIN5Catch6Detail8EnumInfoENS_14default_deleteIS4_EEEEllvEEvRT_T0_, symObjAddr: 0xDB420, symBinAddr: 0x1000DC55C, symSize: 0x38 }
  - { offsetInCU: 0x66DC2, offset: 0x66DC2, size: 0x8, addend: 0x0, symName: __ZNSt3__17advanceB8ue170006INS_16reverse_iteratorIPNS_10unique_ptrIN5Catch6Detail8EnumInfoENS_14default_deleteIS5_EEEEEEllvEEvRT_T0_, symObjAddr: 0xDC700, symBinAddr: 0x1000DD83C, symSize: 0x38 }
  - { offsetInCU: 0x671B3, offset: 0x671B3, size: 0x8, addend: 0x0, symName: __ZNSt3__17advanceB8ue170006IPNS_10unique_ptrIKN5Catch20IExceptionTranslatorENS_14default_deleteIS4_EEEEllvEEvRT_T0_, symObjAddr: 0xE15F0, symBinAddr: 0x1000E272C, symSize: 0x38 }
  - { offsetInCU: 0x67455, offset: 0x67455, size: 0x8, addend: 0x0, symName: __ZNSt3__17advanceB8ue170006INS_16reverse_iteratorIPNS_10unique_ptrIKN5Catch20IExceptionTranslatorENS_14default_deleteIS5_EEEEEEllvEEvRT_T0_, symObjAddr: 0xE2860, symBinAddr: 0x1000E399C, symSize: 0x38 }
  - { offsetInCU: 0x678F3, offset: 0x678F3, size: 0x8, addend: 0x0, symName: __ZNSt3__17advanceB8ue170006IPN5Catch11MessageInfoEllvEEvRT_T0_, symObjAddr: 0xE7EEC, symBinAddr: 0x1000E9028, symSize: 0x38 }
  - { offsetInCU: 0x67CE3, offset: 0x67CE3, size: 0x8, addend: 0x0, symName: __ZNSt3__17advanceB8ue170006INS_16reverse_iteratorIPN5Catch11MessageInfoEEEllvEEvRT_T0_, symObjAddr: 0xEC030, symBinAddr: 0x1000ED16C, symSize: 0x38 }
  - { offsetInCU: 0x69715, offset: 0x69715, size: 0x8, addend: 0x0, symName: __ZNSt3__17advanceB8ue170006IPN5Catch5clara8TextFlow6Column8iteratorEllvEEvRT_T0_, symObjAddr: 0xF6750, symBinAddr: 0x1000F788C, symSize: 0x38 }
  - { offsetInCU: 0x699B7, offset: 0x699B7, size: 0x8, addend: 0x0, symName: __ZNSt3__17advanceB8ue170006INS_16reverse_iteratorIPN5Catch5clara8TextFlow6Column8iteratorEEEllvEEvRT_T0_, symObjAddr: 0xF7A24, symBinAddr: 0x1000F8B60, symSize: 0x38 }
  - { offsetInCU: 0x69A27, offset: 0x69A27, size: 0x8, addend: 0x0, symName: __ZNSt3__16copy_nB8ue170006IPKcmPcEENS_9enable_ifIXsr37__has_random_access_iterator_categoryIT_EE5valueET1_E4typeES5_T0_S6_, symObjAddr: 0xFD0CC, symBinAddr: 0x1000FE208, symSize: 0x44 }
  - { offsetInCU: 0x69E36, offset: 0x69E36, size: 0x8, addend: 0x0, symName: __ZNSt3__17advanceB8ue170006IPN5Catch5clara8TextFlow6ColumnEllvEEvRT_T0_, symObjAddr: 0x103CFC, symBinAddr: 0x100104E38, symSize: 0x38 }
  - { offsetInCU: 0x6A0D8, offset: 0x6A0D8, size: 0x8, addend: 0x0, symName: __ZNSt3__17advanceB8ue170006INS_16reverse_iteratorIPN5Catch5clara8TextFlow6ColumnEEEllvEEvRT_T0_, symObjAddr: 0x104FE4, symBinAddr: 0x100106120, symSize: 0x38 }
  - { offsetInCU: 0x6A4C9, offset: 0x6A4C9, size: 0x8, addend: 0x0, symName: __ZNSt3__17advanceB8ue170006IPNS_10shared_ptrIN5Catch16IReporterFactoryEEEllvEEvRT_T0_, symObjAddr: 0x10FA00, symBinAddr: 0x100110B3C, symSize: 0x38 }
  - { offsetInCU: 0x6A76B, offset: 0x6A76B, size: 0x8, addend: 0x0, symName: __ZNSt3__17advanceB8ue170006INS_16reverse_iteratorIPNS_10shared_ptrIN5Catch16IReporterFactoryEEEEEllvEEvRT_T0_, symObjAddr: 0x110C70, symBinAddr: 0x100111DAC, symSize: 0x38 }
  - { offsetInCU: 0x6FA23, offset: 0x6FA23, size: 0x8, addend: 0x0, symName: __ZNSt3__17advanceB8ue170006IPN5Catch14SectionEndInfoEllvEEvRT_T0_, symObjAddr: 0x121C80, symBinAddr: 0x100122DBC, symSize: 0x38 }
  - { offsetInCU: 0x6FCC5, offset: 0x6FCC5, size: 0x8, addend: 0x0, symName: __ZNSt3__17advanceB8ue170006INS_16reverse_iteratorIPN5Catch14SectionEndInfoEEEllvEEvRT_T0_, symObjAddr: 0x122EF8, symBinAddr: 0x100124034, symSize: 0x38 }
  - { offsetInCU: 0x700B6, offset: 0x700B6, size: 0x8, addend: 0x0, symName: __ZNSt3__17advanceB8ue170006IPN5Catch13ScopedMessageEllvEEvRT_T0_, symObjAddr: 0x129DA4, symBinAddr: 0x10012AEE0, symSize: 0x38 }
  - { offsetInCU: 0x70358, offset: 0x70358, size: 0x8, addend: 0x0, symName: __ZNSt3__17advanceB8ue170006INS_16reverse_iteratorIPN5Catch13ScopedMessageEEEllvEEvRT_T0_, symObjAddr: 0x12B01C, symBinAddr: 0x10012C158, symSize: 0x38 }
  - { offsetInCU: 0x707F6, offset: 0x707F6, size: 0x8, addend: 0x0, symName: __ZNSt3__17advanceB8ue170006IPN5Catch5clara6detail11HelpColumnsEllvEEvRT_T0_, symObjAddr: 0x137C58, symBinAddr: 0x100138D94, symSize: 0x38 }
  - { offsetInCU: 0x70866, offset: 0x70866, size: 0x8, addend: 0x0, symName: __ZNSt3__17advanceB8ue170006INS_11__wrap_iterIPN5Catch5clara6detail11HelpColumnsEEEllvEEvRT_T0_, symObjAddr: 0x139B4C, symBinAddr: 0x10013AC88, symSize: 0x38 }
  - { offsetInCU: 0x70C73, offset: 0x70C73, size: 0x8, addend: 0x0, symName: __ZNSt3__17advanceB8ue170006INS_16reverse_iteratorIPN5Catch5clara6detail11HelpColumnsEEEllvEEvRT_T0_, symObjAddr: 0x144484, symBinAddr: 0x1001455C0, symSize: 0x38 }
  - { offsetInCU: 0x71338, offset: 0x71338, size: 0x8, addend: 0x0, symName: __ZNSt3__17advanceB8ue170006IPNS_12basic_stringIcNS_11char_traitsIcEENS_9allocatorIcEEEEllvEEvRT_T0_, symObjAddr: 0x14DDEC, symBinAddr: 0x10014EF28, symSize: 0x38 }
  - { offsetInCU: 0x713A8, offset: 0x713A8, size: 0x8, addend: 0x0, symName: __ZNSt3__17advanceB8ue170006IPN5Catch5clara6detail3OptEllvEEvRT_T0_, symObjAddr: 0x153E54, symBinAddr: 0x100154F90, symSize: 0x38 }
  - { offsetInCU: 0x7176D, offset: 0x7176D, size: 0x8, addend: 0x0, symName: __ZNSt3__17advanceB8ue170006IPN5Catch5clara6detail3ArgEllvEEvRT_T0_, symObjAddr: 0x159C10, symBinAddr: 0x10015AD4C, symSize: 0x38 }
  - { offsetInCU: 0x71EB2, offset: 0x71EB2, size: 0x8, addend: 0x0, symName: __ZNSt3__17advanceB8ue170006INS_16reverse_iteratorIPNS_12basic_stringIcNS_11char_traitsIcEENS_9allocatorIcEEEEEEllvEEvRT_T0_, symObjAddr: 0x161068, symBinAddr: 0x1001621A4, symSize: 0x38 }
  - { offsetInCU: 0x736CA, offset: 0x736CA, size: 0x8, addend: 0x0, symName: __ZNSt3__17advanceB8ue170006INS_21__tree_const_iteratorIPKN5Catch8TestCaseEPNS_11__tree_nodeIS5_PvEElEEllvEEvRT_T0_, symObjAddr: 0x16E72C, symBinAddr: 0x10016F868, symSize: 0x38 }
  - { offsetInCU: 0x73CDF, offset: 0x73CDF, size: 0x8, addend: 0x0, symName: __ZNSt3__17advanceB8ue170006IPSt13exception_ptrllvEEvRT_T0_, symObjAddr: 0x17ADB8, symBinAddr: 0x10017BEF4, symSize: 0x38 }
  - { offsetInCU: 0x73F81, offset: 0x73F81, size: 0x8, addend: 0x0, symName: __ZNSt3__17advanceB8ue170006INS_16reverse_iteratorIPSt13exception_ptrEEllvEEvRT_T0_, symObjAddr: 0x17C098, symBinAddr: 0x10017D1D4, symSize: 0x38 }
  - { offsetInCU: 0x74372, offset: 0x74372, size: 0x8, addend: 0x0, symName: __ZNSt3__17advanceB8ue170006IPNS_10unique_ptrINS_19basic_ostringstreamIcNS_11char_traitsIcEENS_9allocatorIcEEEENS_14default_deleteIS7_EEEEllvEEvRT_T0_, symObjAddr: 0x18318C, symBinAddr: 0x1001842C8, symSize: 0x38 }
  - { offsetInCU: 0x74614, offset: 0x74614, size: 0x8, addend: 0x0, symName: __ZNSt3__17advanceB8ue170006INS_16reverse_iteratorIPNS_10unique_ptrINS_19basic_ostringstreamIcNS_11char_traitsIcEENS_9allocatorIcEEEENS_14default_deleteIS8_EEEEEEllvEEvRT_T0_, symObjAddr: 0x18446C, symBinAddr: 0x1001855A8, symSize: 0x38 }
  - { offsetInCU: 0x74684, offset: 0x74684, size: 0x8, addend: 0x0, symName: __ZNSt3__17advanceB8ue170006IPKNS_12basic_stringIcNS_11char_traitsIcEENS_9allocatorIcEEEEllvEEvRT_T0_, symObjAddr: 0x18ABEC, symBinAddr: 0x10018BD28, symSize: 0x38 }
  - { offsetInCU: 0x746F3, offset: 0x746F3, size: 0x8, addend: 0x0, symName: __ZNSt3__111__introsortINS_17_ClassicAlgPolicyERNS_6__lessIvvEEPNS_12basic_stringIcNS_11char_traitsIcEENS_9allocatorIcEEEELb0EEEvT1_SC_T0_NS_15iterator_traitsISC_E15difference_typeEb, symObjAddr: 0x190D84, symBinAddr: 0x100191EC0, symSize: 0x1250 }
  - { offsetInCU: 0x7482C, offset: 0x7482C, size: 0x8, addend: 0x0, symName: __ZNSt3__126__insertion_sort_unguardedB8ue170006INS_17_ClassicAlgPolicyERNS_6__lessIvvEEPNS_12basic_stringIcNS_11char_traitsIcEENS_9allocatorIcEEEEEEvT1_SC_T0_, symObjAddr: 0x192AA0, symBinAddr: 0x100193BDC, symSize: 0x644 }
  - { offsetInCU: 0x74917, offset: 0x74917, size: 0x8, addend: 0x0, symName: __ZNSt3__111__sift_downB8ue170006INS_17_ClassicAlgPolicyERNS_6__lessIvvEEPNS_12basic_stringIcNS_11char_traitsIcEENS_9allocatorIcEEEEEEvT1_OT0_NS_15iterator_traitsISC_E15difference_typeESC_, symObjAddr: 0x198314, symBinAddr: 0x100199450, symSize: 0x8A8 }
  - { offsetInCU: 0x749DE, offset: 0x749DE, size: 0x8, addend: 0x0, symName: __ZNSt3__117__floyd_sift_downB8ue170006INS_17_ClassicAlgPolicyERNS_6__lessIvvEEPNS_12basic_stringIcNS_11char_traitsIcEENS_9allocatorIcEEEEEET1_SC_OT0_NS_15iterator_traitsISC_E15difference_typeE, symObjAddr: 0x1991E0, symBinAddr: 0x10019A31C, symSize: 0x3D4 }
  - { offsetInCU: 0x74A86, offset: 0x74A86, size: 0x8, addend: 0x0, symName: __ZNSt3__131__partition_with_equals_on_leftB8ue170006INS_17_ClassicAlgPolicyEPNS_12basic_stringIcNS_11char_traitsIcEENS_9allocatorIcEEEERNS_6__lessIvvEEEET0_SC_SC_T1_, symObjAddr: 0x193894, symBinAddr: 0x1001949D0, symSize: 0xACC }
  - { offsetInCU: 0x74B55, offset: 0x74B55, size: 0x8, addend: 0x0, symName: __ZNSt3__118__bitset_partitionB8ue170006INS_17_ClassicAlgPolicyEPNS_12basic_stringIcNS_11char_traitsIcEENS_9allocatorIcEEEERNS_6__lessIvvEEEENS_4pairIT0_bEESD_SD_T1_, symObjAddr: 0x194360, symBinAddr: 0x10019549C, symSize: 0x1030 }
  - { offsetInCU: 0x74C75, offset: 0x74C75, size: 0x8, addend: 0x0, symName: __ZNSt3__124__swap_bitmap_pos_withinB8ue170006INS_17_ClassicAlgPolicyEPNS_12basic_stringIcNS_11char_traitsIcEENS_9allocatorIcEEEEEEvRT0_SA_RySB_, symObjAddr: 0x19A9E0, symBinAddr: 0x10019BB1C, symSize: 0x7C0 }
  - { offsetInCU: 0x74D50, offset: 0x74D50, size: 0x8, addend: 0x0, symName: __ZNSt3__132__partition_with_equals_on_rightB8ue170006INS_17_ClassicAlgPolicyEPNS_12basic_stringIcNS_11char_traitsIcEENS_9allocatorIcEEEERNS_6__lessIvvEEEENS_4pairIT0_bEESD_SD_T1_, symObjAddr: 0x195390, symBinAddr: 0x1001964CC, symSize: 0xBE8 }
  - { offsetInCU: 0x74E34, offset: 0x74E34, size: 0x8, addend: 0x0, symName: __ZNSt3__127__insertion_sort_incompleteB8ue170006INS_17_ClassicAlgPolicyERNS_6__lessIvvEEPNS_12basic_stringIcNS_11char_traitsIcEENS_9allocatorIcEEEEEEbT1_SC_T0_, symObjAddr: 0x195F78, symBinAddr: 0x1001970B4, symSize: 0xCF8 }
  - { offsetInCU: 0x75504, offset: 0x75504, size: 0x8, addend: 0x0, symName: __ZNSt3__17advanceB8ue170006IPN5Catch8TestCaseEllvEEvRT_T0_, symObjAddr: 0x1A2FF4, symBinAddr: 0x1001A4130, symSize: 0x38 }
  - { offsetInCU: 0x75573, offset: 0x75573, size: 0x8, addend: 0x0, symName: __ZNSt3__111__introsortINS_17_ClassicAlgPolicyERNS_6__lessIvvEEPN5Catch8TestCaseELb0EEEvT1_S8_T0_NS_15iterator_traitsIS8_E15difference_typeEb, symObjAddr: 0x1A4374, symBinAddr: 0x1001A54B0, symSize: 0x1250 }
  - { offsetInCU: 0x756AC, offset: 0x756AC, size: 0x8, addend: 0x0, symName: __ZNSt3__126__insertion_sort_unguardedB8ue170006INS_17_ClassicAlgPolicyERNS_6__lessIvvEEPN5Catch8TestCaseEEEvT1_S8_T0_, symObjAddr: 0x1A5E08, symBinAddr: 0x1001A6F44, symSize: 0x650 }
  - { offsetInCU: 0x75797, offset: 0x75797, size: 0x8, addend: 0x0, symName: __ZNSt3__111__sift_downB8ue170006INS_17_ClassicAlgPolicyERNS_6__lessIvvEEPN5Catch8TestCaseEEEvT1_OT0_NS_15iterator_traitsIS8_E15difference_typeES8_, symObjAddr: 0x1ABDD8, symBinAddr: 0x1001ACF14, symSize: 0x8B0 }
  - { offsetInCU: 0x7585E, offset: 0x7585E, size: 0x8, addend: 0x0, symName: __ZNSt3__117__floyd_sift_downB8ue170006INS_17_ClassicAlgPolicyERNS_6__lessIvvEEPN5Catch8TestCaseEEET1_S8_OT0_NS_15iterator_traitsIS8_E15difference_typeE, symObjAddr: 0x1ACCD4, symBinAddr: 0x1001ADE10, symSize: 0x3D4 }
  - { offsetInCU: 0x75906, offset: 0x75906, size: 0x8, addend: 0x0, symName: __ZNSt3__131__partition_with_equals_on_leftB8ue170006INS_17_ClassicAlgPolicyEPN5Catch8TestCaseERNS_6__lessIvvEEEET0_S8_S8_T1_, symObjAddr: 0x1A6C08, symBinAddr: 0x1001A7D44, symSize: 0xAD8 }
  - { offsetInCU: 0x759D5, offset: 0x759D5, size: 0x8, addend: 0x0, symName: __ZNSt3__118__bitset_partitionB8ue170006INS_17_ClassicAlgPolicyEPN5Catch8TestCaseERNS_6__lessIvvEEEENS_4pairIT0_bEES9_S9_T1_, symObjAddr: 0x1A76E0, symBinAddr: 0x1001A881C, symSize: 0x1094 }
  - { offsetInCU: 0x75AF5, offset: 0x75AF5, size: 0x8, addend: 0x0, symName: __ZNSt3__124__swap_bitmap_pos_withinB8ue170006INS_17_ClassicAlgPolicyEPN5Catch8TestCaseEEEvRT0_S6_RyS7_, symObjAddr: 0x1AE4DC, symBinAddr: 0x1001AF618, symSize: 0x7C0 }
  - { offsetInCU: 0x75BD0, offset: 0x75BD0, size: 0x8, addend: 0x0, symName: __ZNSt3__132__partition_with_equals_on_rightB8ue170006INS_17_ClassicAlgPolicyEPN5Catch8TestCaseERNS_6__lessIvvEEEENS_4pairIT0_bEES9_S9_T1_, symObjAddr: 0x1A8774, symBinAddr: 0x1001A98B0, symSize: 0xBF0 }
  - { offsetInCU: 0x75CB4, offset: 0x75CB4, size: 0x8, addend: 0x0, symName: __ZNSt3__127__insertion_sort_incompleteB8ue170006INS_17_ClassicAlgPolicyERNS_6__lessIvvEEPN5Catch8TestCaseEEEbT1_S8_T0_, symObjAddr: 0x1A9364, symBinAddr: 0x1001AA4A0, symSize: 0xD20 }
  - { offsetInCU: 0x77A5E, offset: 0x77A5E, size: 0x8, addend: 0x0, symName: __ZNSt3__17advanceB8ue170006IPNS_4pairIyPKN5Catch8TestCaseEEEllvEEvRT_T0_, symObjAddr: 0x1B23E0, symBinAddr: 0x1001B351C, symSize: 0x38 }
  - { offsetInCU: 0x77D00, offset: 0x77D00, size: 0x8, addend: 0x0, symName: __ZNSt3__17advanceB8ue170006INS_16reverse_iteratorIPNS_4pairIyPKN5Catch8TestCaseEEEEEllvEEvRT_T0_, symObjAddr: 0x1B36AC, symBinAddr: 0x1001B47E8, symSize: 0x38 }
  - { offsetInCU: 0x77D6F, offset: 0x77D6F, size: 0x8, addend: 0x0, symName: '__ZNSt3__111__introsortINS_17_ClassicAlgPolicyERZN5Catch9sortTestsERKNS2_7IConfigERKNS_6vectorINS2_8TestCaseENS_9allocatorIS7_EEEEE4$_15PNS_4pairIyPKS7_EELb0EEEvT1_SK_T0_NS_15iterator_traitsISK_E15difference_typeEb', symObjAddr: 0x1B6030, symBinAddr: 0x1001B716C, symSize: 0x1218 }
  - { offsetInCU: 0x77EA8, offset: 0x77EA8, size: 0x8, addend: 0x0, symName: '__ZNSt3__126__insertion_sort_unguardedB8ue170006INS_17_ClassicAlgPolicyERZN5Catch9sortTestsERKNS2_7IConfigERKNS_6vectorINS2_8TestCaseENS_9allocatorIS7_EEEEE4$_15PNS_4pairIyPKS7_EEEEvT1_SK_T0_', symObjAddr: 0x1B7D7C, symBinAddr: 0x1001B8EB8, symSize: 0x510 }
  - { offsetInCU: 0x77FA2, offset: 0x77FA2, size: 0x8, addend: 0x0, symName: '__ZNSt3__111__sift_downB8ue170006INS_17_ClassicAlgPolicyERZN5Catch9sortTestsERKNS2_7IConfigERKNS_6vectorINS2_8TestCaseENS_9allocatorIS7_EEEEE4$_15PNS_4pairIyPKS7_EEEEvT1_OT0_NS_15iterator_traitsISK_E15difference_typeESK_', symObjAddr: 0x1BD15C, symBinAddr: 0x1001BE298, symSize: 0x788 }
  - { offsetInCU: 0x78069, offset: 0x78069, size: 0x8, addend: 0x0, symName: '__ZNSt3__117__floyd_sift_downB8ue170006INS_17_ClassicAlgPolicyERZN5Catch9sortTestsERKNS2_7IConfigERKNS_6vectorINS2_8TestCaseENS_9allocatorIS7_EEEEE4$_15PNS_4pairIyPKS7_EEEET1_SK_OT0_NS_15iterator_traitsISK_E15difference_typeE', symObjAddr: 0x1BDDF0, symBinAddr: 0x1001BEF2C, symSize: 0x3CC }
  - { offsetInCU: 0x78111, offset: 0x78111, size: 0x8, addend: 0x0, symName: '__ZNSt3__131__partition_with_equals_on_leftB8ue170006INS_17_ClassicAlgPolicyEPNS_4pairIyPKN5Catch8TestCaseEEERZNS3_9sortTestsERKNS3_7IConfigERKNS_6vectorIS4_NS_9allocatorIS4_EEEEE4$_15EET0_SK_SK_T1_', symObjAddr: 0x1B8A3C, symBinAddr: 0x1001B9B78, symSize: 0x9A0 }
  - { offsetInCU: 0x781E0, offset: 0x781E0, size: 0x8, addend: 0x0, symName: '__ZNSt3__118__bitset_partitionB8ue170006INS_17_ClassicAlgPolicyEPNS_4pairIyPKN5Catch8TestCaseEEERZNS3_9sortTestsERKNS3_7IConfigERKNS_6vectorIS4_NS_9allocatorIS4_EEEEE4$_15EENS2_IT0_bEESK_SK_T1_', symObjAddr: 0x1B93DC, symBinAddr: 0x1001BA518, symSize: 0xEC8 }
  - { offsetInCU: 0x78300, offset: 0x78300, size: 0x8, addend: 0x0, symName: __ZNSt3__124__swap_bitmap_pos_withinB8ue170006INS_17_ClassicAlgPolicyEPNS_4pairIyPKN5Catch8TestCaseEEEEEvRT0_SA_RySB_, symObjAddr: 0x1BF4B8, symBinAddr: 0x1001C05F4, symSize: 0x7B8 }
  - { offsetInCU: 0x783DB, offset: 0x783DB, size: 0x8, addend: 0x0, symName: '__ZNSt3__132__partition_with_equals_on_rightB8ue170006INS_17_ClassicAlgPolicyEPNS_4pairIyPKN5Catch8TestCaseEEERZNS3_9sortTestsERKNS3_7IConfigERKNS_6vectorIS4_NS_9allocatorIS4_EEEEE4$_15EENS2_IT0_bEESK_SK_T1_', symObjAddr: 0x1BA2A4, symBinAddr: 0x1001BB3E0, symSize: 0xAB0 }
  - { offsetInCU: 0x784BF, offset: 0x784BF, size: 0x8, addend: 0x0, symName: '__ZNSt3__127__insertion_sort_incompleteB8ue170006INS_17_ClassicAlgPolicyERZN5Catch9sortTestsERKNS2_7IConfigERKNS_6vectorINS2_8TestCaseENS_9allocatorIS7_EEEEE4$_15PNS_4pairIyPKS7_EEEEbT1_SK_T0_', symObjAddr: 0x1BAD54, symBinAddr: 0x1001BBE90, symSize: 0xBDC }
  - { offsetInCU: 0x78947, offset: 0x78947, size: 0x8, addend: 0x0, symName: __ZNSt3__17advanceB8ue170006INS_16reverse_iteratorIPN5Catch8TestCaseEEEllvEEvRT_T0_, symObjAddr: 0x1C38A4, symBinAddr: 0x1001C49E0, symSize: 0x38 }
  - { offsetInCU: 0x78D0C, offset: 0x78D0C, size: 0x8, addend: 0x0, symName: __ZNSt3__17advanceB8ue170006IPNS_10shared_ptrIN5Catch16TestCaseTracking8ITrackerEEEllvEEvRT_T0_, symObjAddr: 0x1CA850, symBinAddr: 0x1001CB98C, symSize: 0x38 }
  - { offsetInCU: 0x78FAE, offset: 0x78FAE, size: 0x8, addend: 0x0, symName: __ZNSt3__17advanceB8ue170006INS_16reverse_iteratorIPNS_10shared_ptrIN5Catch16TestCaseTracking8ITrackerEEEEEllvEEvRT_T0_, symObjAddr: 0x1CBAC0, symBinAddr: 0x1001CCBFC, symSize: 0x38 }
  - { offsetInCU: 0x7901E, offset: 0x7901E, size: 0x8, addend: 0x0, symName: __ZNSt3__17advanceB8ue170006INS_11__wrap_iterIPKNS_12basic_stringIcNS_11char_traitsIcEENS_9allocatorIcEEEEEEllvEEvRT_T0_, symObjAddr: 0x1CF17C, symBinAddr: 0x1001D02B8, symSize: 0x38 }
  - { offsetInCU: 0x79B11, offset: 0x79B11, size: 0x8, addend: 0x0, symName: __ZNSt3__17advanceB8ue170006IPNS_10shared_ptrIN5Catch8TestSpec7PatternEEEllvEEvRT_T0_, symObjAddr: 0x1E91B4, symBinAddr: 0x1001EA2F0, symSize: 0x38 }
  - { offsetInCU: 0x79DB4, offset: 0x79DB4, size: 0x8, addend: 0x0, symName: __ZNSt3__17advanceB8ue170006IPN5Catch8TestSpec6FilterEllvEEvRT_T0_, symObjAddr: 0x1EA7E8, symBinAddr: 0x1001EB924, symSize: 0x38 }
  - { offsetInCU: 0x7A3D7, offset: 0x7A3D7, size: 0x8, addend: 0x0, symName: __ZNSt3__17advanceB8ue170006INS_16reverse_iteratorIPN5Catch8TestSpec6FilterEEEllvEEvRT_T0_, symObjAddr: 0x1F4FBC, symBinAddr: 0x1001F60F8, symSize: 0x38 }
  - { offsetInCU: 0x7A7C7, offset: 0x7A7C7, size: 0x8, addend: 0x0, symName: __ZNSt3__17advanceB8ue170006INS_16reverse_iteratorIPNS_10shared_ptrIN5Catch8TestSpec7PatternEEEEEllvEEvRT_T0_, symObjAddr: 0x1F9604, symBinAddr: 0x1001FA740, symSize: 0x38 }
  - { offsetInCU: 0x7AD10, offset: 0x7AD10, size: 0x8, addend: 0x0, symName: __ZNSt3__17advanceB8ue170006IPN5Catch12_GLOBAL__N_110ColumnInfoEllvEEvRT_T0_, symObjAddr: 0x20417C, symBinAddr: 0x1002052B8, symSize: 0x38 }
  - { offsetInCU: 0x7B101, offset: 0x7B101, size: 0x8, addend: 0x0, symName: __ZNSt3__17advanceB8ue170006IPN5Catch13SummaryColumnEllvEEvRT_T0_, symObjAddr: 0x20BCE0, symBinAddr: 0x10020CE1C, symSize: 0x38 }
  - { offsetInCU: 0x7B3A3, offset: 0x7B3A3, size: 0x8, addend: 0x0, symName: __ZNSt3__17advanceB8ue170006INS_16reverse_iteratorIPN5Catch13SummaryColumnEEEllvEEvRT_T0_, symObjAddr: 0x20CFC8, symBinAddr: 0x10020E104, symSize: 0x38 }
  - { offsetInCU: 0x7CF69, offset: 0x7CF69, size: 0x8, addend: 0x0, symName: __ZNSt3__17advanceB8ue170006IPNS_10unique_ptrIN5Catch18IStreamingReporterENS_14default_deleteIS3_EEEEllvEEvRT_T0_, symObjAddr: 0x218220, symBinAddr: 0x10021935C, symSize: 0x38 }
  - { offsetInCU: 0x7D20B, offset: 0x7D20B, size: 0x8, addend: 0x0, symName: __ZNSt3__17advanceB8ue170006INS_16reverse_iteratorIPNS_10unique_ptrIN5Catch18IStreamingReporterENS_14default_deleteIS4_EEEEEEllvEEvRT_T0_, symObjAddr: 0x219500, symBinAddr: 0x10021A63C, symSize: 0x38 }
  - { offsetInCU: 0x7D27A, offset: 0x7D27A, size: 0x8, addend: 0x0, symName: __ZNSt3__124__put_character_sequenceB8ue170006IcNS_11char_traitsIcEEEERNS_13basic_ostreamIT_T0_EES7_PKS4_m, symObjAddr: 0x21CF44, symBinAddr: 0x10021E080, symSize: 0x738 }
  - { offsetInCU: 0x7D955, offset: 0x7D955, size: 0x8, addend: 0x0, symName: __ZNSt3__17advanceB8ue170006INS_16reverse_iteratorIPN5Catch5clara6detail3OptEEEllvEEvRT_T0_, symObjAddr: 0x227074, symBinAddr: 0x1002281B0, symSize: 0x38 }
  - { offsetInCU: 0x814A8, offset: 0x814A8, size: 0x8, addend: 0x0, symName: __ZNSt3__17advanceB8ue170006INS_16reverse_iteratorIPN5Catch5clara6detail3ArgEEEllvEEvRT_T0_, symObjAddr: 0x2560FC, symBinAddr: 0x100257238, symSize: 0x38 }
  - { offsetInCU: 0x84F1C, offset: 0x84F1C, size: 0x8, addend: 0x0, symName: __ZNSt3__17advanceB8ue170006IPKcllvEEvRT_T0_, symObjAddr: 0x26D708, symBinAddr: 0x10026E844, symSize: 0x38 }
  - { offsetInCU: 0x84F8C, offset: 0x84F8C, size: 0x8, addend: 0x0, symName: __ZNSt3__17advanceB8ue170006INS_11__wrap_iterIPKcEEllvEEvRT_T0_, symObjAddr: 0x26DE1C, symBinAddr: 0x10026EF58, symSize: 0x38 }
  - { offsetInCU: 0x866F8, offset: 0x866F8, size: 0x8, addend: 0x0, symName: __ZNSt3__17advanceB8ue170006IPNS_7__stateIcEEllvEEvRT_T0_, symObjAddr: 0x27A0A8, symBinAddr: 0x10027B1E4, symSize: 0x38 }
  - { offsetInCU: 0x8699A, offset: 0x8699A, size: 0x8, addend: 0x0, symName: __ZNSt3__17advanceB8ue170006INS_16reverse_iteratorIPNS_7__stateIcEEEEllvEEvRT_T0_, symObjAddr: 0x27B390, symBinAddr: 0x10027C4CC, symSize: 0x38 }
  - { offsetInCU: 0x86D8B, offset: 0x86D8B, size: 0x8, addend: 0x0, symName: __ZNSt3__17advanceB8ue170006IPNS_9sub_matchIPKcEEllvEEvRT_T0_, symObjAddr: 0x27F8D8, symBinAddr: 0x100280A14, symSize: 0x38 }
  - { offsetInCU: 0x8702D, offset: 0x8702D, size: 0x8, addend: 0x0, symName: __ZNSt3__17advanceB8ue170006INS_16reverse_iteratorIPNS_9sub_matchIPKcEEEEllvEEvRT_T0_, symObjAddr: 0x280B50, symBinAddr: 0x100281C8C, symSize: 0x38 }
  - { offsetInCU: 0x8741E, offset: 0x8741E, size: 0x8, addend: 0x0, symName: __ZNSt3__17advanceB8ue170006IPNS_4pairImPKcEEllvEEvRT_T0_, symObjAddr: 0x2851D8, symBinAddr: 0x100286314, symSize: 0x38 }
  - { offsetInCU: 0x876C0, offset: 0x876C0, size: 0x8, addend: 0x0, symName: __ZNSt3__17advanceB8ue170006INS_16reverse_iteratorIPNS_4pairImPKcEEEEllvEEvRT_T0_, symObjAddr: 0x286448, symBinAddr: 0x100287584, symSize: 0x38 }
  - { offsetInCU: 0x8C27B, offset: 0x8C27B, size: 0x8, addend: 0x0, symName: __ZNSt3__17advanceB8ue170006IPNS_4pairINS_12basic_stringIcNS_11char_traitsIcEENS_9allocatorIcEEEES7_EEllvEEvRT_T0_, symObjAddr: 0x2B7A20, symBinAddr: 0x1002B8B5C, symSize: 0x38 }
  - { offsetInCU: 0x8C51D, offset: 0x8C51D, size: 0x8, addend: 0x0, symName: __ZNSt3__17advanceB8ue170006INS_16reverse_iteratorIPNS_4pairINS_12basic_stringIcNS_11char_traitsIcEENS_9allocatorIcEEEES8_EEEEllvEEvRT_T0_, symObjAddr: 0x2B8C98, symBinAddr: 0x1002B9DD4, symSize: 0x38 }
  - { offsetInCU: 0x8C90E, offset: 0x8C90E, size: 0x8, addend: 0x0, symName: __ZNSt3__17advanceB8ue170006IPNS_4pairIccEEllvEEvRT_T0_, symObjAddr: 0x2BD10C, symBinAddr: 0x1002BE248, symSize: 0x38 }
  - { offsetInCU: 0x8CBB0, offset: 0x8CBB0, size: 0x8, addend: 0x0, symName: __ZNSt3__17advanceB8ue170006INS_16reverse_iteratorIPNS_4pairIccEEEEllvEEvRT_T0_, symObjAddr: 0x2BE37C, symBinAddr: 0x1002BF4B8, symSize: 0x38 }
  - { offsetInCU: 0x8F1AE, offset: 0x8F1AE, size: 0x8, addend: 0x0, symName: __ZNSt3__17advanceB8ue170006IPNS_9sub_matchINS_11__wrap_iterIPKcEEEEllvEEvRT_T0_, symObjAddr: 0x2E91DC, symBinAddr: 0x1002EA318, symSize: 0x38 }
  - { offsetInCU: 0x8F450, offset: 0x8F450, size: 0x8, addend: 0x0, symName: __ZNSt3__17advanceB8ue170006INS_16reverse_iteratorIPNS_9sub_matchINS_11__wrap_iterIPKcEEEEEEllvEEvRT_T0_, symObjAddr: 0x2EA454, symBinAddr: 0x1002EB590, symSize: 0x38 }
  - { offsetInCU: 0x92B80, offset: 0x92B80, size: 0x8, addend: 0x0, symName: __ZNSt3__17advanceB8ue170006INS_21__tree_const_iteratorIN5Catch9VerbosityEPNS_11__tree_nodeIS3_PvEElEEllvEEvRT_T0_, symObjAddr: 0x3168DC, symBinAddr: 0x100317A18, symSize: 0x38 }
  - { offsetInCU: 0x9376C, offset: 0x9376C, size: 0x8, addend: 0x0, symName: __ZNSt3__17advanceB8ue170006IPN5Catch11SectionInfoEllvEEvRT_T0_, symObjAddr: 0x31F400, symBinAddr: 0x10032053C, symSize: 0x38 }
  - { offsetInCU: 0x93A0E, offset: 0x93A0E, size: 0x8, addend: 0x0, symName: __ZNSt3__17advanceB8ue170006INS_16reverse_iteratorIPN5Catch11SectionInfoEEEllvEEvRT_T0_, symObjAddr: 0x320670, symBinAddr: 0x1003217AC, symSize: 0x38 }
  - { offsetInCU: 0x94609, offset: 0x94609, size: 0x8, addend: 0x0, symName: __ZNSt3__17advanceB8ue170006IPN5Catch14AssertionStatsEllvEEvRT_T0_, symObjAddr: 0x3296D4, symBinAddr: 0x10032A810, symSize: 0x38 }
  - { offsetInCU: 0x948AB, offset: 0x948AB, size: 0x8, addend: 0x0, symName: __ZNSt3__17advanceB8ue170006INS_16reverse_iteratorIPN5Catch14AssertionStatsEEEllvEEvRT_T0_, symObjAddr: 0x32A94C, symBinAddr: 0x10032BA88, symSize: 0x38 }
  - { offsetInCU: 0x95068, offset: 0x95068, size: 0x8, addend: 0x0, symName: __ZNSt3__17advanceB8ue170006IPNS_10shared_ptrIN5Catch22CumulativeReporterBaseINS2_13JunitReporterEE11SectionNodeEEEllvEEvRT_T0_, symObjAddr: 0x330E08, symBinAddr: 0x100331F44, symSize: 0x38 }
  - { offsetInCU: 0x9530A, offset: 0x9530A, size: 0x8, addend: 0x0, symName: __ZNSt3__17advanceB8ue170006INS_16reverse_iteratorIPNS_10shared_ptrIN5Catch22CumulativeReporterBaseINS3_13JunitReporterEE11SectionNodeEEEEEllvEEvRT_T0_, symObjAddr: 0x332078, symBinAddr: 0x1003331B4, symSize: 0x38 }
  - { offsetInCU: 0x956FB, offset: 0x956FB, size: 0x8, addend: 0x0, symName: __ZNSt3__17advanceB8ue170006IPNS_10shared_ptrIN5Catch22CumulativeReporterBaseINS2_13JunitReporterEE4NodeINS2_13TestCaseStatsENS5_11SectionNodeEEEEEllvEEvRT_T0_, symObjAddr: 0x3362D4, symBinAddr: 0x100337410, symSize: 0x38 }
  - { offsetInCU: 0x9599D, offset: 0x9599D, size: 0x8, addend: 0x0, symName: __ZNSt3__17advanceB8ue170006INS_16reverse_iteratorIPNS_10shared_ptrIN5Catch22CumulativeReporterBaseINS3_13JunitReporterEE4NodeINS3_13TestCaseStatsENS6_11SectionNodeEEEEEEEllvEEvRT_T0_, symObjAddr: 0x337544, symBinAddr: 0x100338680, symSize: 0x38 }
  - { offsetInCU: 0x96182, offset: 0x96182, size: 0x8, addend: 0x0, symName: __ZNSt3__17advanceB8ue170006IPNS_10shared_ptrIN5Catch22CumulativeReporterBaseINS2_13JunitReporterEE4NodeINS2_14TestGroupStatsENS6_INS2_13TestCaseStatsENS5_11SectionNodeEEEEEEEllvEEvRT_T0_, symObjAddr: 0x33D7C4, symBinAddr: 0x10033E900, symSize: 0x38 }
  - { offsetInCU: 0x96424, offset: 0x96424, size: 0x8, addend: 0x0, symName: __ZNSt3__17advanceB8ue170006INS_16reverse_iteratorIPNS_10shared_ptrIN5Catch22CumulativeReporterBaseINS3_13JunitReporterEE4NodeINS3_14TestGroupStatsENS7_INS3_13TestCaseStatsENS6_11SectionNodeEEEEEEEEEllvEEvRT_T0_, symObjAddr: 0x33EA34, symBinAddr: 0x10033FB70, symSize: 0x38 }
  - { offsetInCU: 0x98011, offset: 0x98011, size: 0x8, addend: 0x0, symName: __ZNSt3__17advanceB8ue170006IPNS_10shared_ptrIN5Catch22CumulativeReporterBaseINS2_13JunitReporterEE4NodeINS2_12TestRunStatsENS6_INS2_14TestGroupStatsENS6_INS2_13TestCaseStatsENS5_11SectionNodeEEEEEEEEEllvEEvRT_T0_, symObjAddr: 0x34F210, symBinAddr: 0x10035034C, symSize: 0x38 }
  - { offsetInCU: 0x982B3, offset: 0x982B3, size: 0x8, addend: 0x0, symName: __ZNSt3__17advanceB8ue170006INS_16reverse_iteratorIPNS_10shared_ptrIN5Catch22CumulativeReporterBaseINS3_13JunitReporterEE4NodeINS3_12TestRunStatsENS7_INS3_14TestGroupStatsENS7_INS3_13TestCaseStatsENS6_11SectionNodeEEEEEEEEEEEllvEEvRT_T0_, symObjAddr: 0x350480, symBinAddr: 0x1003515BC, symSize: 0x38 }
  - { offsetInCU: 0x9B952, offset: 0x9B952, size: 0x8, addend: 0x0, symName: __ZNSt3__1lsB8ue170006INS_11char_traitsIcEEEERNS_13basic_ostreamIcT_EES6_PKc, symObjAddr: 0x2F1C, symBinAddr: 0x100004058, symSize: 0x48 }
  - { offsetInCU: 0x9B998, offset: 0x9B998, size: 0x8, addend: 0x0, symName: __ZNSt3__1eqB8ue170006INS_9allocatorIcEEEEbRKNS_12basic_stringIcNS_11char_traitsIcEET_EES9_, symObjAddr: 0x6BBC, symBinAddr: 0x100007CF8, symSize: 0x234 }
  - { offsetInCU: 0x9BA0B, offset: 0x9BA0B, size: 0x8, addend: 0x0, symName: __ZNSt3__1lsB8ue170006INS_11char_traitsIcEEEERNS_13basic_ostreamIcT_EES6_c, symObjAddr: 0x101A0, symBinAddr: 0x1000112DC, symSize: 0x220 }
  - { offsetInCU: 0x9BA57, offset: 0x9BA57, size: 0x8, addend: 0x0, symName: __ZNSt3__1neB8ue170006IPNS_12basic_stringIcNS_11char_traitsIcEENS_9allocatorIcEEEEEEbRKNS_11__wrap_iterIT_EESC_, symObjAddr: 0x11778, symBinAddr: 0x1000128B4, symSize: 0x34 }
  - { offsetInCU: 0x9BABB, offset: 0x9BABB, size: 0x8, addend: 0x0, symName: __ZNSt3__1lsB8ue170006IcNS_11char_traitsIcEENS_9allocatorIcEEEERNS_13basic_ostreamIT_T0_EES9_RKNS_12basic_stringIS6_S7_T1_EE, symObjAddr: 0x1487C, symBinAddr: 0x1000159B8, symSize: 0x4C }
  - { offsetInCU: 0x9BB13, offset: 0x9BB13, size: 0x8, addend: 0x0, symName: __ZNSt3__14endlB8ue170006IcNS_11char_traitsIcEEEERNS_13basic_ostreamIT_T0_EES7_, symObjAddr: 0x14EA4, symBinAddr: 0x100015FE0, symSize: 0xD4 }
  - { offsetInCU: 0x9BB54, offset: 0x9BB54, size: 0x8, addend: 0x0, symName: __ZNSt3__1neB8ue170006IPN5Catch9StringRefEEEbRKNS_11__wrap_iterIT_EES8_, symObjAddr: 0x16D30, symBinAddr: 0x100017E6C, symSize: 0x34 }
  - { offsetInCU: 0x9BB9A, offset: 0x9BB9A, size: 0x8, addend: 0x0, symName: __ZNSt3__1neB8ue170006IPKNS_4pairIiN5Catch9StringRefEEEEEbRKNS_11__wrap_iterIT_EESB_, symObjAddr: 0x18050, symBinAddr: 0x10001918C, symSize: 0x34 }
  - { offsetInCU: 0x9BBE0, offset: 0x9BBE0, size: 0x8, addend: 0x0, symName: __ZNSt3__1neB8ue170006IPKiEEbRKNS_11__wrap_iterIT_EES7_, symObjAddr: 0x194B4, symBinAddr: 0x10001A5F0, symSize: 0x34 }
  - { offsetInCU: 0x9BC26, offset: 0x9BC26, size: 0x8, addend: 0x0, symName: __ZNSt3__13maxB8ue170006ImEERKT_S3_S3_, symObjAddr: 0x1BC5C, symBinAddr: 0x10001CD98, symSize: 0x2C }
  - { offsetInCU: 0x9BC6C, offset: 0x9BC6C, size: 0x8, addend: 0x0, symName: __ZNSt3__1neB8ue170006IPN5Catch8TestCaseEEEbRKNS_11__wrap_iterIT_EES8_, symObjAddr: 0x20544, symBinAddr: 0x100021680, symSize: 0x34 }
  - { offsetInCU: 0x9BCB1, offset: 0x9BCB1, size: 0x8, addend: 0x0, symName: __ZNSt3__1neB8ue170006ERKNS_21__tree_const_iteratorINS_12basic_stringIcNS_11char_traitsIcEENS_9allocatorIcEEEEPNS_11__tree_nodeIS6_PvEElEESD_, symObjAddr: 0x22B2C, symBinAddr: 0x100023C68, symSize: 0x34 }
  - { offsetInCU: 0x9BCEF, offset: 0x9BCEF, size: 0x8, addend: 0x0, symName: __ZNSt3__1neB8ue170006IPKNS_12basic_stringIcNS_11char_traitsIcEENS_9allocatorIcEEEEEEbRKNS_11__wrap_iterIT_EESD_, symObjAddr: 0x24470, symBinAddr: 0x1000255AC, symSize: 0x34 }
  - { offsetInCU: 0x9BD34, offset: 0x9BD34, size: 0x8, addend: 0x0, symName: __ZNSt3__1eqB8ue170006ERKNS_14__map_iteratorINS_15__tree_iteratorINS_12__value_typeINS_12basic_stringIcNS_11char_traitsIcEENS_9allocatorIcEEEEN5Catch7TagInfoEEEPNS_11__tree_nodeISB_PvEElEEEESJ_, symObjAddr: 0x24860, symBinAddr: 0x10002599C, symSize: 0x30 }
  - { offsetInCU: 0x9BE57, offset: 0x9BE57, size: 0x8, addend: 0x0, symName: __ZNSt3__19make_pairB8ue170006IRNS_12basic_stringIcNS_11char_traitsIcEENS_9allocatorIcEEEEN5Catch7TagInfoEEENS_4pairINS_18__unwrap_ref_decayIT_E4typeENSB_IT0_E4typeEEEOSC_OSF_, symObjAddr: 0x24DEC, symBinAddr: 0x100025F28, symSize: 0x40 }
  - { offsetInCU: 0x9BEA6, offset: 0x9BEA6, size: 0x8, addend: 0x0, symName: __ZNSt3__1neB8ue170006ERKNS_14__map_iteratorINS_15__tree_iteratorINS_12__value_typeINS_12basic_stringIcNS_11char_traitsIcEENS_9allocatorIcEEEEN5Catch7TagInfoEEEPNS_11__tree_nodeISB_PvEElEEEESJ_, symObjAddr: 0x251F8, symBinAddr: 0x100026334, symSize: 0x30 }
  - { offsetInCU: 0x9BEE3, offset: 0x9BEE3, size: 0x8, addend: 0x0, symName: __ZNSt3__14setwB8ue170006Ei, symObjAddr: 0x252C4, symBinAddr: 0x100026400, symSize: 0x220 }
  - { offsetInCU: 0x9BF12, offset: 0x9BF12, size: 0x8, addend: 0x0, symName: __ZNSt3__1neB8ue170006ERKNS_20__map_const_iteratorINS_21__tree_const_iteratorINS_12__value_typeINS_12basic_stringIcNS_11char_traitsIcEENS_9allocatorIcEEEENS_10shared_ptrIN5Catch16IReporterFactoryEEEEEPNS_11__tree_nodeISD_PvEElEEEESL_, symObjAddr: 0x2684C, symBinAddr: 0x100027988, symSize: 0x30 }
  - { offsetInCU: 0x9BF4F, offset: 0x9BF4F, size: 0x8, addend: 0x0, symName: __ZNSt3__1plB8ue170006IcNS_11char_traitsIcEENS_9allocatorIcEEEENS_12basic_stringIT_T0_T1_EERKS9_PKS6_, symObjAddr: 0x26DD8, symBinAddr: 0x100027F14, symSize: 0x2E8 }
  - { offsetInCU: 0x9BFF6, offset: 0x9BFF6, size: 0x8, addend: 0x0, symName: __ZNSt3__1eqB8ue170006IcNS_11char_traitsIcEENS_9allocatorIcEEEEbRKNS_12basic_stringIT_T0_T1_EEPKS6_, symObjAddr: 0x2831C, symBinAddr: 0x100029458, symSize: 0x2EC }
  - { offsetInCU: 0x9C050, offset: 0x9C050, size: 0x8, addend: 0x0, symName: __ZNSt3__1plB8ue170006IcNS_11char_traitsIcEENS_9allocatorIcEEEENS_12basic_stringIT_T0_T1_EEOS9_PKS6_, symObjAddr: 0x28914, symBinAddr: 0x100029A50, symSize: 0x40 }
  - { offsetInCU: 0x9C0A8, offset: 0x9C0A8, size: 0x8, addend: 0x0, symName: __ZNSt3__1plB8ue170006IcNS_11char_traitsIcEENS_9allocatorIcEEEENS_12basic_stringIT_T0_T1_EEOS9_SA_, symObjAddr: 0x29924, symBinAddr: 0x10002AA60, symSize: 0x40 }
  - { offsetInCU: 0x9C100, offset: 0x9C100, size: 0x8, addend: 0x0, symName: __ZNSt3__1plB8ue170006IcNS_11char_traitsIcEENS_9allocatorIcEEEENS_12basic_stringIT_T0_T1_EEPKS6_OS9_, symObjAddr: 0x29964, symBinAddr: 0x10002AAA0, symSize: 0x44 }
  - { offsetInCU: 0x9CB50, offset: 0x9CB50, size: 0x8, addend: 0x0, symName: __ZNSt3__13maxB8ue170006IdEERKT_S3_S3_, symObjAddr: 0x2C658, symBinAddr: 0x10002D794, symSize: 0x2C }
  - { offsetInCU: 0x9CB95, offset: 0x9CB95, size: 0x8, addend: 0x0, symName: __ZNSt3__1plB8ue170006IcNS_11char_traitsIcEENS_9allocatorIcEEEENS_12basic_stringIT_T0_T1_EEOS9_S6_, symObjAddr: 0x2D18C, symBinAddr: 0x10002E2C8, symSize: 0x40 }
  - { offsetInCU: 0x9CBED, offset: 0x9CBED, size: 0x8, addend: 0x0, symName: __ZNSt3__111regex_matchB8ue170006INS_11char_traitsIcEENS_9allocatorIcEEcNS_12regex_traitsIcEEEEbRKNS_12basic_stringIT1_T_T0_EERKNS_11basic_regexIS8_T2_EENS_15regex_constants15match_flag_typeE, symObjAddr: 0x305A0, symBinAddr: 0x1000316DC, symSize: 0x328 }
  - { offsetInCU: 0x9CE3D, offset: 0x9CE3D, size: 0x8, addend: 0x0, symName: __ZNSt3__1eqB8ue170006ERKNS_20__map_const_iteratorINS_21__tree_const_iteratorINS_12__value_typeINS_12basic_stringIcNS_11char_traitsIcEENS_9allocatorIcEEEENS_10shared_ptrIN5Catch16IReporterFactoryEEEEEPNS_11__tree_nodeISD_PvEElEEEESL_, symObjAddr: 0x36518, symBinAddr: 0x100037654, symSize: 0x30 }
  - { offsetInCU: 0x9CE7B, offset: 0x9CE7B, size: 0x8, addend: 0x0, symName: __ZNSt3__16removeB8ue170006INS_11__wrap_iterIPN5Catch11MessageInfoEEES3_EET_S6_S6_RKT0_, symObjAddr: 0x3FD20, symBinAddr: 0x100040E5C, symSize: 0x510 }
  - { offsetInCU: 0x9CEFC, offset: 0x9CEFC, size: 0x8, addend: 0x0, symName: __ZNSt3__1neB8ue170006INS_11__wrap_iterIPN5Catch14SectionEndInfoEEES5_EEbRKNS_16reverse_iteratorIT_EERKNS6_IT0_EE, symObjAddr: 0x42B90, symBinAddr: 0x100043CCC, symSize: 0x2B4 }
  - { offsetInCU: 0x9CF4D, offset: 0x9CF4D, size: 0x8, addend: 0x0, symName: __ZNSt3__1neB8ue170006IPKSt13exception_ptrEEbRKNS_11__wrap_iterIT_EES8_, symObjAddr: 0x46EEC, symBinAddr: 0x100048028, symSize: 0x34 }
  - { offsetInCU: 0x9CF92, offset: 0x9CF92, size: 0x8, addend: 0x0, symName: __ZNSt3__1lsB8ue170006IcNS_11char_traitsIcEEEERNS_13basic_ostreamIT_T0_EES7_RKNS_8__iom_t6E, symObjAddr: 0x47B18, symBinAddr: 0x100048C54, symSize: 0x120 }
  - { offsetInCU: 0x9CFE1, offset: 0x9CFE1, size: 0x8, addend: 0x0, symName: __ZNSt3__14leftB8ue170006ERNS_8ios_baseE, symObjAddr: 0x47CF8, symBinAddr: 0x100048E34, symSize: 0x30 }
  - { offsetInCU: 0x9D00F, offset: 0x9D00F, size: 0x8, addend: 0x0, symName: __ZNSt3__111make_sharedB8ue170006IN5Catch6ConfigEJRNS1_10ConfigDataEEvEENS_10shared_ptrIT_EEDpOT0_, symObjAddr: 0x49CC4, symBinAddr: 0x10004AE00, symSize: 0x1E8 }
  - { offsetInCU: 0x9D056, offset: 0x9D056, size: 0x8, addend: 0x0, symName: __ZNSt3__13minB8ue170006IiEERKT_S3_S3_, symObjAddr: 0x4A770, symBinAddr: 0x10004B8AC, symSize: 0x2C }
  - { offsetInCU: 0x9D87C, offset: 0x9D87C, size: 0x8, addend: 0x0, symName: __ZNSt3__13maxB8ue170006IiEERKT_S3_S3_, symObjAddr: 0x4B48C, symBinAddr: 0x10004C5C8, symSize: 0x2C }
  - { offsetInCU: 0x9D8C2, offset: 0x9D8C2, size: 0x8, addend: 0x0, symName: __ZNSt3__1neB8ue170006IPPN5Catch10ISingletonEEEbRKNS_11__wrap_iterIT_EES9_, symObjAddr: 0x4BD88, symBinAddr: 0x10004CEC4, symSize: 0x34 }
  - { offsetInCU: 0x9E5BB, offset: 0x9E5BB, size: 0x8, addend: 0x0, symName: __ZNSt3__15equalB8ue170006INS_11__wrap_iterIPKcEES4_EEbT_S5_T0_, symObjAddr: 0x4D434, symBinAddr: 0x10004E570, symSize: 0x40C }
  - { offsetInCU: 0x9E625, offset: 0x9E625, size: 0x8, addend: 0x0, symName: __ZNSt3__15equalB8ue170006INS_16reverse_iteratorINS_11__wrap_iterIPKcEEEES6_EEbT_S7_T0_, symObjAddr: 0x4DD24, symBinAddr: 0x10004EE60, symSize: 0x428 }
  - { offsetInCU: 0x9E68F, offset: 0x9E68F, size: 0x8, addend: 0x0, symName: __ZNSt3__19transformB8ue170006INS_11__wrap_iterIPcEES3_PFccEEET0_T_S7_S6_T1_, symObjAddr: 0x4EC5C, symBinAddr: 0x10004FD98, symSize: 0x458 }
  - { offsetInCU: 0x9E712, offset: 0x9E712, size: 0x8, addend: 0x0, symName: __ZNSt3__1plB8ue170006IcNS_11char_traitsIcEENS_9allocatorIcEEEENS_12basic_stringIT_T0_T1_EEOS9_RKS9_, symObjAddr: 0x502EC, symBinAddr: 0x100051428, symSize: 0x40 }
  - { offsetInCU: 0x9E76B, offset: 0x9E76B, size: 0x8, addend: 0x0, symName: __ZNSt3__13minB8ue170006ImEERKT_S3_S3_, symObjAddr: 0x50AB8, symBinAddr: 0x100051BF4, symSize: 0x2C }
  - { offsetInCU: 0x9E7B0, offset: 0x9E7B0, size: 0x8, addend: 0x0, symName: __ZNSt3__1neB8ue170006ERKNS_20__map_const_iteratorINS_21__tree_const_iteratorINS_12__value_typeINS_12basic_stringIcNS_11char_traitsIcEENS_9allocatorIcEEEEN5Catch8TagAliasEEEPNS_11__tree_nodeISB_PvEElEEEESJ_, symObjAddr: 0x51BE4, symBinAddr: 0x100052D20, symSize: 0x30 }
  - { offsetInCU: 0x9E8D3, offset: 0x9E8D3, size: 0x8, addend: 0x0, symName: __ZNSt3__19make_pairB8ue170006IRKNS_12basic_stringIcNS_11char_traitsIcEENS_9allocatorIcEEEEN5Catch8TagAliasEEENS_4pairINS_18__unwrap_ref_decayIT_E4typeENSC_IT0_E4typeEEEOSD_OSG_, symObjAddr: 0x535B0, symBinAddr: 0x1000546EC, symSize: 0x40 }
  - { offsetInCU: 0x9E922, offset: 0x9E922, size: 0x8, addend: 0x0, symName: __ZNSt3__14sortB8ue170006INS_11__wrap_iterIPNS_12basic_stringIcNS_11char_traitsIcEENS_9allocatorIcEEEEEEEEvT_SA_, symObjAddr: 0x55AF4, symBinAddr: 0x100056C30, symSize: 0x348 }
  - { offsetInCU: 0x9E96D, offset: 0x9E96D, size: 0x8, addend: 0x0, symName: __ZNSt3__15beginB8ue170006INS_6vectorINS_12basic_stringIcNS_11char_traitsIcEENS_9allocatorIcEEEENS5_IS7_EEEEEEDTcldtfp_5beginEERT_, symObjAddr: 0x55E3C, symBinAddr: 0x100056F78, symSize: 0x234 }
  - { offsetInCU: 0x9E9A5, offset: 0x9E9A5, size: 0x8, addend: 0x0, symName: __ZNSt3__13endB8ue170006INS_6vectorINS_12basic_stringIcNS_11char_traitsIcEENS_9allocatorIcEEEENS5_IS7_EEEEEEDTcldtfp_3endEERT_, symObjAddr: 0x56070, symBinAddr: 0x1000571AC, symSize: 0x234 }
  - { offsetInCU: 0x9E9DD, offset: 0x9E9DD, size: 0x8, addend: 0x0, symName: __ZNSt3__16uniqueB8ue170006INS_11__wrap_iterIPNS_12basic_stringIcNS_11char_traitsIcEENS_9allocatorIcEEEEEEEET_SA_SA_, symObjAddr: 0x56734, symBinAddr: 0x100057870, symSize: 0x3E4 }
  - { offsetInCU: 0x9EA2A, offset: 0x9EA2A, size: 0x8, addend: 0x0, symName: __ZNSt3__1ltB8ue170006ENS_15strong_orderingENS_20_CmpUnspecifiedParamE, symObjAddr: 0x577E8, symBinAddr: 0x100058924, symSize: 0x274 }
  - { offsetInCU: 0x9EA68, offset: 0x9EA68, size: 0x8, addend: 0x0, symName: __ZNSt3__1ssB8ue170006IcNS_11char_traitsIcEENS_9allocatorIcEEEEDaRKNS_12basic_stringIT_T0_T1_EESC_, symObjAddr: 0x57A5C, symBinAddr: 0x100058B98, symSize: 0x3AC }
  - { offsetInCU: 0x9EAE0, offset: 0x9EAE0, size: 0x8, addend: 0x0, symName: __ZNSt3__14sortB8ue170006INS_11__wrap_iterIPN5Catch8TestCaseEEEEEvT_S6_, symObjAddr: 0x58AD8, symBinAddr: 0x100059C14, symSize: 0x348 }
  - { offsetInCU: 0x9EB2B, offset: 0x9EB2B, size: 0x8, addend: 0x0, symName: __ZNSt3__1neB8ue170006IPKN5Catch8TestCaseEEEbRKNS_11__wrap_iterIT_EES9_, symObjAddr: 0x596B8, symBinAddr: 0x10005A7F4, symSize: 0x34 }
  - { offsetInCU: 0x9EB70, offset: 0x9EB70, size: 0x8, addend: 0x0, symName: '__ZNSt3__14sortB8ue170006INS_11__wrap_iterIPNS_4pairIyPKN5Catch8TestCaseEEEEEZNS3_9sortTestsERKNS3_7IConfigERKNS_6vectorIS4_NS_9allocatorIS4_EEEEE4$_15EEvT_SK_T0_', symObjAddr: 0x59CB0, symBinAddr: 0x10005ADEC, symSize: 0x36C }
  - { offsetInCU: 0x9EBD7, offset: 0x9EBD7, size: 0x8, addend: 0x0, symName: __ZNSt3__1neB8ue170006IPNS_4pairIyPKN5Catch8TestCaseEEEEEbRKNS_11__wrap_iterIT_EESC_, symObjAddr: 0x5A930, symBinAddr: 0x10005BA6C, symSize: 0x34 }
  - { offsetInCU: 0x9F914, offset: 0x9F914, size: 0x8, addend: 0x0, symName: __ZNSt3__111make_sharedB8ue170006IN5Catch16TestCaseTracking14SectionTrackerEJNS2_15NameAndLocationERNS2_14TrackerContextEDnEvEENS_10shared_ptrIT_EEDpOT0_, symObjAddr: 0x5CF98, symBinAddr: 0x10005E0D4, symSize: 0x1F8 }
  - { offsetInCU: 0x9F987, offset: 0x9F987, size: 0x8, addend: 0x0, symName: '__ZNSt3__17find_ifB8ue170006INS_11__wrap_iterIPNS_10shared_ptrIN5Catch16TestCaseTracking8ITrackerEEEEEZNS4_11TrackerBase9findChildERKNS4_15NameAndLocationEE4$_16EET_SE_SE_T0_', symObjAddr: 0x5E518, symBinAddr: 0x10005F654, symSize: 0x380 }
  - { offsetInCU: 0x9F9F2, offset: 0x9F9F2, size: 0x8, addend: 0x0, symName: __ZNSt3__1neB8ue170006IPNS_10shared_ptrIN5Catch16TestCaseTracking8ITrackerEEEEEbRKNS_11__wrap_iterIT_EESB_, symObjAddr: 0x5ED6C, symBinAddr: 0x10005FEA8, symSize: 0x34 }
  - { offsetInCU: 0x9FA38, offset: 0x9FA38, size: 0x8, addend: 0x0, symName: '__ZNSt3__16all_ofB8ue170006INS_11__wrap_iterIPNS_10shared_ptrIN5Catch16TestCaseTracking8ITrackerEEEEEZNS4_11TrackerBase5closeEvE4$_17EEbT_SB_T0_', symObjAddr: 0x5FD5C, symBinAddr: 0x100060E98, symSize: 0x304 }
  - { offsetInCU: 0x9FAA2, offset: 0x9FAA2, size: 0x8, addend: 0x0, symName: __ZNSt3__14findB8ue170006INS_11__wrap_iterIPKNS_12basic_stringIcNS_11char_traitsIcEENS_9allocatorIcEEEEEES7_EET_SB_SB_RKT0_, symObjAddr: 0x61288, symBinAddr: 0x1000623C4, symSize: 0x4AC }
  - { offsetInCU: 0x9FB1C, offset: 0x9FB1C, size: 0x8, addend: 0x0, symName: __ZNSt3__119static_pointer_castB8ue170006IN5Catch16TestCaseTracking14SectionTrackerENS2_8ITrackerEEENS_10shared_ptrIT_EERKNS5_IT0_EE, symObjAddr: 0x61808, symBinAddr: 0x100062944, symSize: 0x44 }
  - { offsetInCU: 0x9FB5C, offset: 0x9FB5C, size: 0x8, addend: 0x0, symName: __ZNSt3__111make_sharedB8ue170006IN5Catch16TestCaseTracking14SectionTrackerEJRKNS2_15NameAndLocationERNS2_14TrackerContextEPNS2_8ITrackerEEvEENS_10shared_ptrIT_EEDpOT0_, symObjAddr: 0x61A40, symBinAddr: 0x100062B7C, symSize: 0x1F8 }
  - { offsetInCU: 0x9FBCF, offset: 0x9FBCF, size: 0x8, addend: 0x0, symName: __ZNSt3__15beginB8ue170006INS_6vectorINS_12basic_stringIcNS_11char_traitsIcEENS_9allocatorIcEEEENS5_IS7_EEEEEEDTcldtfp_5beginEERKT_, symObjAddr: 0x64294, symBinAddr: 0x1000653D0, symSize: 0x234 }
  - { offsetInCU: 0x9FC07, offset: 0x9FC07, size: 0x8, addend: 0x0, symName: __ZNSt3__13endB8ue170006INS_6vectorINS_12basic_stringIcNS_11char_traitsIcEENS_9allocatorIcEEEENS5_IS7_EEEEEEDTcldtfp_3endEERKT_, symObjAddr: 0x644C8, symBinAddr: 0x100065604, symSize: 0x234 }
  - { offsetInCU: 0x9FC3F, offset: 0x9FC3F, size: 0x8, addend: 0x0, symName: '__ZNSt3__16all_ofB8ue170006INS_11__wrap_iterIPKNS_10shared_ptrIN5Catch8TestSpec7PatternEEEEEZNKS4_6Filter7matchesERKNS3_12TestCaseInfoEE4$_18EEbT_SF_T0_', symObjAddr: 0x64CF4, symBinAddr: 0x100065E30, symSize: 0x344 }
  - { offsetInCU: 0x9FCA9, offset: 0x9FCA9, size: 0x8, addend: 0x0, symName: __ZNSt3__1neB8ue170006IPKNS_10shared_ptrIN5Catch8TestSpec7PatternEEEEEbRKNS_11__wrap_iterIT_EESC_, symObjAddr: 0x65904, symBinAddr: 0x100066A40, symSize: 0x34 }
  - { offsetInCU: 0x9FCEF, offset: 0x9FCEF, size: 0x8, addend: 0x0, symName: '__ZNSt3__16any_ofB8ue170006INS_11__wrap_iterIPKN5Catch8TestSpec6FilterEEEZNKS3_7matchesERKNS2_12TestCaseInfoEE4$_19EEbT_SC_T0_', symObjAddr: 0x65AB0, symBinAddr: 0x100066BEC, symSize: 0x344 }
  - { offsetInCU: 0x9FD59, offset: 0x9FD59, size: 0x8, addend: 0x0, symName: '__ZNSt3__19transformB8ue170006INS_11__wrap_iterIPKN5Catch8TestSpec6FilterEEENS1_IPNS3_11FilterMatchEEEZNKS3_15matchesByFilterERKNS_6vectorINS2_8TestCaseENS_9allocatorISC_EEEERKNS2_7IConfigEE4$_20EET0_T_SN_SM_T1_', symObjAddr: 0x669A4, symBinAddr: 0x100067AE0, symSize: 0x434 }
  - { offsetInCU: 0x9FDE0, offset: 0x9FDE0, size: 0x8, addend: 0x0, symName: __ZNSt3__111make_sharedB8ue170006IN5Catch8TestSpec11NamePatternEJRNS_12basic_stringIcNS_11char_traitsIcEENS_9allocatorIcEEEESA_EvEENS_10shared_ptrIT_EEDpOT0_, symObjAddr: 0x69FBC, symBinAddr: 0x10006B0F8, symSize: 0x1F0 }
  - { offsetInCU: 0xA005C, offset: 0xA005C, size: 0x8, addend: 0x0, symName: __ZNSt3__111make_sharedB8ue170006IN5Catch8TestSpec15ExcludedPatternEJRNS_10shared_ptrINS2_7PatternEEEEvEENS4_IT_EEDpOT0_, symObjAddr: 0x6A20C, symBinAddr: 0x10006B348, symSize: 0x1E8 }
  - { offsetInCU: 0xA02C2, offset: 0xA02C2, size: 0x8, addend: 0x0, symName: __ZNSt3__111make_sharedB8ue170006IN5Catch8TestSpec10TagPatternEJRA2_KcRNS_12basic_stringIcNS_11char_traitsIcEENS_9allocatorIcEEEEEvEENS_10shared_ptrIT_EEDpOT0_, symObjAddr: 0x6AAC0, symBinAddr: 0x10006BBFC, symSize: 0x1F0 }
  - { offsetInCU: 0xA053E, offset: 0xA053E, size: 0x8, addend: 0x0, symName: __ZNSt3__111make_sharedB8ue170006IN5Catch8TestSpec10TagPatternEJRNS_12basic_stringIcNS_11char_traitsIcEENS_9allocatorIcEEEESA_EvEENS_10shared_ptrIT_EEDpOT0_, symObjAddr: 0x6AD10, symBinAddr: 0x10006BE4C, symSize: 0x1F0 }
  - { offsetInCU: 0xA059B, offset: 0xA059B, size: 0x8, addend: 0x0, symName: __ZNSt3__17setfillB8ue170006IcEENS_8__iom_t4IT_EES2_, symObjAddr: 0x6C6A4, symBinAddr: 0x10006D7E0, symSize: 0x21C }
  - { offsetInCU: 0xA05D2, offset: 0xA05D2, size: 0x8, addend: 0x0, symName: __ZNSt3__13hexB8ue170006ERNS_8ios_baseE, symObjAddr: 0x6C934, symBinAddr: 0x10006DA70, symSize: 0x30 }
  - { offsetInCU: 0xA0600, offset: 0xA0600, size: 0x8, addend: 0x0, symName: __ZNSt3__1plB8ue170006IcNS_11char_traitsIcEENS_9allocatorIcEEEENS_12basic_stringIT_T0_T1_EES6_RKS9_, symObjAddr: 0x6D10C, symBinAddr: 0x10006E248, symSize: 0x2D8 }
  - { offsetInCU: 0xA0698, offset: 0xA0698, size: 0x8, addend: 0x0, symName: __ZNSt3__1neB8ue170006IPKcEEbRKNS_11__wrap_iterIT_EES7_, symObjAddr: 0x6D3E4, symBinAddr: 0x10006E520, symSize: 0x34 }
  - { offsetInCU: 0xA06DE, offset: 0xA06DE, size: 0x8, addend: 0x0, symName: __ZNSt3__1neB8ue170006IPKwEEbRKNS_11__wrap_iterIT_EES7_, symObjAddr: 0x6E874, symBinAddr: 0x10006F9B0, symSize: 0x34 }
  - { offsetInCU: 0xA07B0, offset: 0xA07B0, size: 0x8, addend: 0x0, symName: __ZNSt3__1lsB8ue170006INS_11char_traitsIcEEEERNS_13basic_ostreamIcT_EES6_h, symObjAddr: 0x73F78, symBinAddr: 0x1000750B4, symSize: 0x220 }
  - { offsetInCU: 0xA07FB, offset: 0xA07FB, size: 0x8, addend: 0x0, symName: __ZNSt3__15flushB8ue170006IcNS_11char_traitsIcEEEERNS_13basic_ostreamIT_T0_EES7_, symObjAddr: 0x76874, symBinAddr: 0x1000779B0, symSize: 0x28 }
  - { offsetInCU: 0xA083C, offset: 0xA083C, size: 0x8, addend: 0x0, symName: __ZNSt3__1neB8ue170006IPN5Catch11SectionInfoEEEbRKNS_11__wrap_iterIT_EES8_, symObjAddr: 0x838C8, symBinAddr: 0x100084A04, symSize: 0x34 }
  - { offsetInCU: 0xA0882, offset: 0xA0882, size: 0x8, addend: 0x0, symName: __ZNSt3__1neB8ue170006IPKN5Catch13SummaryColumnEEEbRKNS_11__wrap_iterIT_EES9_, symObjAddr: 0x855FC, symBinAddr: 0x100086738, symSize: 0x34 }
  - { offsetInCU: 0xA08C8, offset: 0xA08C8, size: 0x8, addend: 0x0, symName: __ZNSt3__1neB8ue170006IPKNS_10shared_ptrIN5Catch22CumulativeReporterBaseINS2_13JunitReporterEE4NodeINS2_13TestCaseStatsENS5_11SectionNodeEEEEEEEbRKNS_11__wrap_iterIT_EESH_, symObjAddr: 0x8B0B4, symBinAddr: 0x10008C1F0, symSize: 0x34 }
  - { offsetInCU: 0xA090D, offset: 0xA090D, size: 0x8, addend: 0x0, symName: __ZNSt3__1plB8ue170006IcNS_11char_traitsIcEENS_9allocatorIcEEEENS_12basic_stringIT_T0_T1_EERKS9_S6_, symObjAddr: 0x8D3EC, symBinAddr: 0x10008E528, symSize: 0x2DC }
  - { offsetInCU: 0xA09A5, offset: 0xA09A5, size: 0x8, addend: 0x0, symName: __ZNSt3__1neB8ue170006IPKNS_10shared_ptrIN5Catch22CumulativeReporterBaseINS2_13JunitReporterEE11SectionNodeEEEEEbRKNS_11__wrap_iterIT_EESE_, symObjAddr: 0x8E3AC, symBinAddr: 0x10008F4E8, symSize: 0x34 }
  - { offsetInCU: 0xA09EB, offset: 0xA09EB, size: 0x8, addend: 0x0, symName: __ZNSt3__1neB8ue170006IPKN5Catch14AssertionStatsEEEbRKNS_11__wrap_iterIT_EES9_, symObjAddr: 0x8E97C, symBinAddr: 0x10008FAB8, symSize: 0x34 }
  - { offsetInCU: 0xA0A31, offset: 0xA0A31, size: 0x8, addend: 0x0, symName: __ZNSt3__1neB8ue170006IPKN5Catch11MessageInfoEEEbRKNS_11__wrap_iterIT_EES9_, symObjAddr: 0x90748, symBinAddr: 0x100091884, symSize: 0x34 }
  - { offsetInCU: 0xA0A77, offset: 0xA0A77, size: 0x8, addend: 0x0, symName: __ZNSt3__1neB8ue170006IPNS_10unique_ptrIN5Catch18IStreamingReporterENS_14default_deleteIS3_EEEEEEbRKNS_11__wrap_iterIT_EESC_, symObjAddr: 0x91CD8, symBinAddr: 0x100092E14, symSize: 0x34 }
  - { offsetInCU: 0xA0ABC, offset: 0xA0ABC, size: 0x8, addend: 0x0, symName: __ZNSt3__119__libcpp_deallocateB8ue170006EPvmm, symObjAddr: 0xA019C, symBinAddr: 0x1000A12D8, symSize: 0x60 }
  - { offsetInCU: 0xA0B21, offset: 0xA0B21, size: 0x8, addend: 0x0, symName: __ZNSt3__124__is_overaligned_for_newB8ue170006Em, symObjAddr: 0xA01FC, symBinAddr: 0x1000A1338, symSize: 0x20 }
  - { offsetInCU: 0xA0B4F, offset: 0xA0B4F, size: 0x8, addend: 0x0, symName: __ZNSt3__127__do_deallocate_handle_sizeB8ue170006IJSt11align_val_tEEEvPvmDpT_, symObjAddr: 0xA021C, symBinAddr: 0x1000A1358, symSize: 0x30 }
  - { offsetInCU: 0xA0BA4, offset: 0xA0BA4, size: 0x8, addend: 0x0, symName: __ZNSt3__127__do_deallocate_handle_sizeB8ue170006IJEEEvPvmDpT_, symObjAddr: 0xA024C, symBinAddr: 0x1000A1388, symSize: 0x28 }
  - { offsetInCU: 0xA0BE3, offset: 0xA0BE3, size: 0x8, addend: 0x0, symName: __ZNSt3__124__libcpp_operator_deleteB8ue170006IJPvSt11align_val_tEEEvDpT_, symObjAddr: 0xA0274, symBinAddr: 0x1000A13B0, symSize: 0x2C }
  - { offsetInCU: 0xA0C2F, offset: 0xA0C2F, size: 0x8, addend: 0x0, symName: __ZNSt3__124__libcpp_operator_deleteB8ue170006IJPvEEEvDpT_, symObjAddr: 0xA02A0, symBinAddr: 0x1000A13DC, symSize: 0x24 }
  - { offsetInCU: 0xA0C67, offset: 0xA0C67, size: 0x8, addend: 0x0, symName: __ZNSt3__112__to_addressB8ue170006IKcEEPT_S3_, symObjAddr: 0xA0750, symBinAddr: 0x1000A188C, symSize: 0x14 }
  - { offsetInCU: 0xA0CDF, offset: 0xA0CDF, size: 0x8, addend: 0x0, symName: __ZNSt3__111make_sharedB8ue170006IN5Catch5clara6detail13BoundValueRefINS_12basic_stringIcNS_11char_traitsIcEENS_9allocatorIcEEEEEEJRSA_EvEENS_10shared_ptrIT_EEDpOT0_, symObjAddr: 0xA08B8, symBinAddr: 0x1000A19F4, symSize: 0x1E8 }
  - { offsetInCU: 0xA0F45, offset: 0xA0F45, size: 0x8, addend: 0x0, symName: __ZNSt3__111make_sharedB8ue170006INS_12basic_stringIcNS_11char_traitsIcEENS_9allocatorIcEEEEJRA13_KcEvEENS_10shared_ptrIT_EEDpOT0_, symObjAddr: 0xA0E10, symBinAddr: 0x1000A1F4C, symSize: 0x1E8 }
  - { offsetInCU: 0xA0F8B, offset: 0xA0F8B, size: 0x8, addend: 0x0, symName: __ZNSt3__115allocate_sharedB8ue170006INS_12basic_stringIcNS_11char_traitsIcEENS_9allocatorIcEEEENS4_IS6_EEJRA13_KcEvEENS_10shared_ptrIT_EERKT0_DpOT1_, symObjAddr: 0xA1488, symBinAddr: 0x1000A25C4, symSize: 0x300 }
  - { offsetInCU: 0xA1276, offset: 0xA1276, size: 0x8, addend: 0x0, symName: __ZNSt3__117__libcpp_allocateB8ue170006Emm, symObjAddr: 0xA1EF4, symBinAddr: 0x1000A3030, symSize: 0x60 }
  - { offsetInCU: 0xA14BD, offset: 0xA14BD, size: 0x8, addend: 0x0, symName: __ZNSt3__121__libcpp_operator_newB8ue170006IJmSt11align_val_tEEEPvDpT_, symObjAddr: 0xA1F70, symBinAddr: 0x1000A30AC, symSize: 0x2C }
  - { offsetInCU: 0xA150D, offset: 0xA150D, size: 0x8, addend: 0x0, symName: __ZNSt3__121__libcpp_operator_newB8ue170006IJmEEEPvDpT_, symObjAddr: 0xA1F9C, symBinAddr: 0x1000A30D8, symSize: 0x24 }
  - { offsetInCU: 0xA1570, offset: 0xA1570, size: 0x8, addend: 0x0, symName: __ZNSt3__112construct_atB8ue170006INS_12basic_stringIcNS_11char_traitsIcEENS_9allocatorIcEEEEJRA13_KcEPS6_EEPT_SC_DpOT0_, symObjAddr: 0xA2A18, symBinAddr: 0x1000A3B54, symSize: 0x3C }
  - { offsetInCU: 0xA15E8, offset: 0xA15E8, size: 0x8, addend: 0x0, symName: __ZNSt3__110destroy_atB8ue170006INS_12basic_stringIcNS_11char_traitsIcEENS_9allocatorIcEEEELi0EEEvPT_, symObjAddr: 0xA2B30, symBinAddr: 0x1000A3C6C, symSize: 0x24 }
  - { offsetInCU: 0xA1622, offset: 0xA1622, size: 0x8, addend: 0x0, symName: __ZNSt3__112__destroy_atB8ue170006INS_12basic_stringIcNS_11char_traitsIcEENS_9allocatorIcEEEELi0EEEvPT_, symObjAddr: 0xA2B54, symBinAddr: 0x1000A3C90, symSize: 0x24 }
  - { offsetInCU: 0xA1692, offset: 0xA1692, size: 0x8, addend: 0x0, symName: __ZNSt3__134__libcpp_atomic_refcount_decrementB8ue170006IlEET_RS1_, symObjAddr: 0xA2F10, symBinAddr: 0x1000A404C, symSize: 0x80 }
  - { offsetInCU: 0xA16C9, offset: 0xA16C9, size: 0x8, addend: 0x0, symName: __ZNSt3__122__make_exception_guardB8ue170006INS_6vectorIN5Catch5clara6detail5TokenENS_9allocatorIS5_EEE16__destroy_vectorEEENS_28__exception_guard_exceptionsIT_EESB_, symObjAddr: 0xA4764, symBinAddr: 0x1000A58A0, symSize: 0x278 }
  - { offsetInCU: 0xA1704, offset: 0xA1704, size: 0x8, addend: 0x0, symName: __ZNSt3__119__allocate_at_leastB8ue170006INS_9allocatorIN5Catch5clara6detail5TokenEEEEENS_19__allocation_resultINS_16allocator_traitsIT_E7pointerEEERS9_m, symObjAddr: 0xA5A90, symBinAddr: 0x1000A6BCC, symSize: 0x28C }
  - { offsetInCU: 0xA1935, offset: 0xA1935, size: 0x8, addend: 0x0, symName: __ZNSt3__120__throw_length_errorB8ue170006EPKc, symObjAddr: 0xA5E70, symBinAddr: 0x1000A6FAC, symSize: 0x68 }
  - { offsetInCU: 0xA1960, offset: 0xA1960, size: 0x8, addend: 0x0, symName: __ZNSt3__112__to_addressB8ue170006IN5Catch5clara6detail5TokenEEEPT_S6_, symObjAddr: 0xA61DC, symBinAddr: 0x1000A7318, symSize: 0x14 }
  - { offsetInCU: 0xA1996, offset: 0xA1996, size: 0x8, addend: 0x0, symName: __ZNSt3__130__uninitialized_allocator_copyB8ue170006INS_9allocatorIN5Catch5clara6detail5TokenEEEPS5_S7_S7_EET2_RT_T0_T1_S8_, symObjAddr: 0xA628C, symBinAddr: 0x1000A73C8, symSize: 0x2DC }
  - { offsetInCU: 0xA1A3D, offset: 0xA1A3D, size: 0x8, addend: 0x0, symName: __ZNSt3__114__unwrap_rangeB8ue170006IPN5Catch5clara6detail5TokenES5_EEDaT_T0_, symObjAddr: 0xA683C, symBinAddr: 0x1000A7978, symSize: 0x224 }
  - { offsetInCU: 0xA1A8D, offset: 0xA1A8D, size: 0x8, addend: 0x0, symName: __ZNSt3__135__uninitialized_allocator_copy_implB8ue170006INS_9allocatorIN5Catch5clara6detail5TokenEEEPS5_S7_S7_EET2_RT_T0_T1_S8_, symObjAddr: 0xA6A60, symBinAddr: 0x1000A7B9C, symSize: 0x520 }
  - { offsetInCU: 0xA1B3A, offset: 0xA1B3A, size: 0x8, addend: 0x0, symName: __ZNSt3__113__unwrap_iterB8ue170006IPN5Catch5clara6detail5TokenENS_18__unwrap_iter_implIS5_Lb1EEELi0EEEDTclsrT0_8__unwrapclsr3stdE7declvalIT_EEEES9_, symObjAddr: 0xA6F80, symBinAddr: 0x1000A80BC, symSize: 0x24 }
  - { offsetInCU: 0xA1B81, offset: 0xA1B81, size: 0x8, addend: 0x0, symName: __ZNSt3__113__rewrap_iterB8ue170006IPN5Catch5clara6detail5TokenES5_NS_18__unwrap_iter_implIS5_Lb1EEEEET_S8_T0_, symObjAddr: 0xA6FA4, symBinAddr: 0x1000A80E0, symSize: 0x48 }
  - { offsetInCU: 0xA1D07, offset: 0xA1D07, size: 0x8, addend: 0x0, symName: __ZNSt3__122__make_exception_guardB8ue170006INS_29_AllocatorDestroyRangeReverseINS_9allocatorIN5Catch5clara6detail5TokenEEEPS6_EEEENS_28__exception_guard_exceptionsIT_EESB_, symObjAddr: 0xA746C, symBinAddr: 0x1000A85A8, symSize: 0x1F8 }
  - { offsetInCU: 0xA1D67, offset: 0xA1D67, size: 0x8, addend: 0x0, symName: __ZNSt3__112construct_atB8ue170006IN5Catch5clara6detail5TokenEJRS4_EPS4_EEPT_S8_DpOT0_, symObjAddr: 0xA796C, symBinAddr: 0x1000A8AA8, symSize: 0x3C }
  - { offsetInCU: 0xA1DDE, offset: 0xA1DDE, size: 0x8, addend: 0x0, symName: __ZNSt3__119__allocator_destroyB8ue170006INS_9allocatorIN5Catch5clara6detail5TokenEEENS_16reverse_iteratorIPS5_EES9_EEvRT_T0_T1_, symObjAddr: 0xA7F48, symBinAddr: 0x1000A9084, symSize: 0x2B8 }
  - { offsetInCU: 0xA1E4B, offset: 0xA1E4B, size: 0x8, addend: 0x0, symName: __ZNSt3__1neB8ue170006IPN5Catch5clara6detail5TokenES5_EEbRKNS_16reverse_iteratorIT_EERKNS6_IT0_EE, symObjAddr: 0xA8234, symBinAddr: 0x1000A9370, symSize: 0x48 }
  - { offsetInCU: 0xA1E9A, offset: 0xA1E9A, size: 0x8, addend: 0x0, symName: __ZNSt3__112__to_addressB8ue170006INS_16reverse_iteratorIPN5Catch5clara6detail5TokenEEEvEEu7__decayIDTclsr19__to_address_helperIT_EE6__callclsr3stdE7declvalIRKS8_EEEEESA_, symObjAddr: 0xA82A4, symBinAddr: 0x1000A93E0, symSize: 0x24 }
  - { offsetInCU: 0xA1ED2, offset: 0xA1ED2, size: 0x8, addend: 0x0, symName: __ZNSt3__110destroy_atB8ue170006IN5Catch5clara6detail5TokenELi0EEEvPT_, symObjAddr: 0xA8398, symBinAddr: 0x1000A94D4, symSize: 0x24 }
  - { offsetInCU: 0xA1F0C, offset: 0xA1F0C, size: 0x8, addend: 0x0, symName: __ZNSt3__112__destroy_atB8ue170006IN5Catch5clara6detail5TokenELi0EEEvPT_, symObjAddr: 0xA83BC, symBinAddr: 0x1000A94F8, symSize: 0x24 }
  - { offsetInCU: 0xA1F71, offset: 0xA1F71, size: 0x8, addend: 0x0, symName: __ZNSt3__14prevB8ue170006IPN5Catch5clara6detail5TokenEEENS_9enable_ifIXsr29__has_input_iterator_categoryIT_EE5valueES7_E4typeES7_NS_15iterator_traitsIS7_E15difference_typeE, symObjAddr: 0xA84EC, symBinAddr: 0x1000A9628, symSize: 0x240 }
  - { offsetInCU: 0xA1FBC, offset: 0xA1FBC, size: 0x8, addend: 0x0, symName: __ZNSt3__121__convert_to_integralB8ue170006El, symObjAddr: 0xA8764, symBinAddr: 0x1000A98A0, symSize: 0x14 }
  - { offsetInCU: 0xA1FEA, offset: 0xA1FEA, size: 0x8, addend: 0x0, symName: __ZNSt3__19__advanceB8ue170006IPN5Catch5clara6detail5TokenEEEvRT_NS_15iterator_traitsIS6_E15difference_typeENS_26random_access_iterator_tagE, symObjAddr: 0xA8778, symBinAddr: 0x1000A98B4, symSize: 0x78 }
  - { offsetInCU: 0xA208E, offset: 0xA208E, size: 0x8, addend: 0x0, symName: __ZNSt3__115allocate_sharedB8ue170006IN5Catch5clara6detail13BoundValueRefINS_12basic_stringIcNS_11char_traitsIcEENS_9allocatorIcEEEEEENS8_ISB_EEJRSA_EvEENS_10shared_ptrIT_EERKT0_DpOT1_, symObjAddr: 0xA955C, symBinAddr: 0x1000AA698, symSize: 0x300 }
  - { offsetInCU: 0xA2466, offset: 0xA2466, size: 0x8, addend: 0x0, symName: __ZNSt3__112construct_atB8ue170006IN5Catch5clara6detail13BoundValueRefINS_12basic_stringIcNS_11char_traitsIcEENS_9allocatorIcEEEEEEJRSA_EPSB_EEPT_SF_DpOT0_, symObjAddr: 0xAA858, symBinAddr: 0x1000AB994, symSize: 0x3C }
  - { offsetInCU: 0xA24DE, offset: 0xA24DE, size: 0x8, addend: 0x0, symName: __ZNSt3__110destroy_atB8ue170006IN5Catch5clara6detail13BoundValueRefINS_12basic_stringIcNS_11char_traitsIcEENS_9allocatorIcEEEEEELi0EEEvPT_, symObjAddr: 0xAB644, symBinAddr: 0x1000AC780, symSize: 0x24 }
  - { offsetInCU: 0xA2518, offset: 0xA2518, size: 0x8, addend: 0x0, symName: __ZNSt3__112__destroy_atB8ue170006IN5Catch5clara6detail13BoundValueRefINS_12basic_stringIcNS_11char_traitsIcEENS_9allocatorIcEEEEEELi0EEEvPT_, symObjAddr: 0xAB668, symBinAddr: 0x1000AC7A4, symSize: 0xA4 }
  - { offsetInCU: 0xA2588, offset: 0xA2588, size: 0x8, addend: 0x0, symName: __ZNSt3__14swapB8ue170006IPN5Catch5clara6detail17BoundValueRefBaseEEENS_9enable_ifIXaasr21is_move_constructibleIT_EE5valuesr18is_move_assignableIS7_EE5valueEvE4typeERS7_SA_, symObjAddr: 0xABC90, symBinAddr: 0x1000ACDCC, symSize: 0x134 }
  - { offsetInCU: 0xA25DD, offset: 0xA25DD, size: 0x8, addend: 0x0, symName: __ZNSt3__14swapB8ue170006IPNS_19__shared_weak_countEEENS_9enable_ifIXaasr21is_move_constructibleIT_EE5valuesr18is_move_assignableIS4_EE5valueEvE4typeERS4_S7_, symObjAddr: 0xABDC4, symBinAddr: 0x1000ACF00, symSize: 0x134 }
  - { offsetInCU: 0xA2631, offset: 0xA2631, size: 0x8, addend: 0x0, symName: __ZNSt3__111make_sharedB8ue170006IN5Catch5clara6detail15BoundFlagLambdaIZNS3_4HelpC1ERbEUlbE_EEJRKS7_EvEENS_10shared_ptrIT_EEDpOT0_, symObjAddr: 0xAE458, symBinAddr: 0x1000AF594, symSize: 0x1E8 }
  - { offsetInCU: 0xA2897, offset: 0xA2897, size: 0x8, addend: 0x0, symName: __ZNSt3__115allocate_sharedB8ue170006IN5Catch5clara6detail15BoundFlagLambdaIZNS3_4HelpC1ERbEUlbE_EENS_9allocatorIS8_EEJRKS7_EvEENS_10shared_ptrIT_EERKT0_DpOT1_, symObjAddr: 0xAE80C, symBinAddr: 0x1000AF948, symSize: 0x300 }
  - { offsetInCU: 0xA2C6F, offset: 0xA2C6F, size: 0x8, addend: 0x0, symName: __ZNSt3__112construct_atB8ue170006IN5Catch5clara6detail15BoundFlagLambdaIZNS3_4HelpC1ERbEUlbE_EEJRKS7_EPS8_EEPT_SD_DpOT0_, symObjAddr: 0xAFB08, symBinAddr: 0x1000B0C44, symSize: 0x3C }
  - { offsetInCU: 0xA2CE7, offset: 0xA2CE7, size: 0x8, addend: 0x0, symName: __ZNSt3__110destroy_atB8ue170006IN5Catch5clara6detail15BoundFlagLambdaIZNS3_4HelpC1ERbEUlbE_EELi0EEEvPT_, symObjAddr: 0xB0458, symBinAddr: 0x1000B1594, symSize: 0x24 }
  - { offsetInCU: 0xA2D21, offset: 0xA2D21, size: 0x8, addend: 0x0, symName: __ZNSt3__112__destroy_atB8ue170006IN5Catch5clara6detail15BoundFlagLambdaIZNS3_4HelpC1ERbEUlbE_EELi0EEEvPT_, symObjAddr: 0xB047C, symBinAddr: 0x1000B15B8, symSize: 0xA4 }
  - { offsetInCU: 0xA2D91, offset: 0xA2D91, size: 0x8, addend: 0x0, symName: __ZNSt3__134__libcpp_atomic_refcount_incrementB8ue170006IlEET_RS1_, symObjAddr: 0xB0D40, symBinAddr: 0x1000B1E7C, symSize: 0x80 }
  - { offsetInCU: 0xA2DC8, offset: 0xA2DC8, size: 0x8, addend: 0x0, symName: __ZNSt3__1miB8ue170006IPKN5Catch5clara6detail5TokenES6_EEDTmicldtfp_4baseEcldtfp0_4baseEERKNS_11__wrap_iterIT_EERKNS8_IT0_EE, symObjAddr: 0xB384C, symBinAddr: 0x1000B4988, symSize: 0x48 }
  - { offsetInCU: 0xA2E17, offset: 0xA2E17, size: 0x8, addend: 0x0, symName: __ZNSt3__14moveB8ue170006IPN5Catch5clara6detail5TokenES5_EET0_T_S7_S6_, symObjAddr: 0xB3B14, symBinAddr: 0x1000B4C50, symSize: 0x26C }
  - { offsetInCU: 0xA2E78, offset: 0xA2E78, size: 0x8, addend: 0x0, symName: __ZNSt3__16__moveB8ue170006INS_17_ClassicAlgPolicyEPN5Catch5clara6detail5TokenES6_S6_EENS_4pairIT0_T2_EES8_T1_S9_, symObjAddr: 0xB44E4, symBinAddr: 0x1000B5620, symSize: 0x22C }
  - { offsetInCU: 0xA2EEB, offset: 0xA2EEB, size: 0x8, addend: 0x0, symName: __ZNSt3__123__dispatch_copy_or_moveB8ue170006INS_17_ClassicAlgPolicyENS_11__move_loopIS1_EENS_14__move_trivialEPN5Catch5clara6detail5TokenES9_S9_EENS_4pairIT2_T4_EESB_T3_SC_, symObjAddr: 0xB4710, symBinAddr: 0x1000B584C, symSize: 0x22C }
  - { offsetInCU: 0xA2F70, offset: 0xA2F70, size: 0x8, addend: 0x0, symName: __ZNSt3__121__unwrap_and_dispatchB8ue170006INS_10__overloadINS_11__move_loopINS_17_ClassicAlgPolicyEEENS_14__move_trivialEEEPN5Catch5clara6detail5TokenESB_SB_Li0EEENS_4pairIT0_T2_EESD_T1_SE_, symObjAddr: 0xB493C, symBinAddr: 0x1000B5A78, symSize: 0x5A4 }
  - { offsetInCU: 0xA326D, offset: 0xA326D, size: 0x8, addend: 0x0, symName: __ZNSt3__19make_pairB8ue170006IPN5Catch5clara6detail5TokenES5_EENS_4pairINS_18__unwrap_ref_decayIT_E4typeENS7_IT0_E4typeEEEOS8_OSB_, symObjAddr: 0xB5308, symBinAddr: 0x1000B6444, symSize: 0x20C }
  - { offsetInCU: 0xA32BF, offset: 0xA32BF, size: 0x8, addend: 0x0, symName: __ZNSt3__114__rewrap_rangeB8ue170006IPN5Catch5clara6detail5TokenES5_S5_EET0_S6_T1_, symObjAddr: 0xB5514, symBinAddr: 0x1000B6650, symSize: 0x2C }
  - { offsetInCU: 0xA3848, offset: 0xA3848, size: 0x8, addend: 0x0, symName: __ZNSt3__112construct_atB8ue170006IN5Catch5clara6detail5TokenEJEPS4_EEPT_S7_DpOT0_, symObjAddr: 0xB707C, symBinAddr: 0x1000B81B8, symSize: 0x44 }
  - { offsetInCU: 0xA38A9, offset: 0xA38A9, size: 0x8, addend: 0x0, symName: __ZNSt3__142__uninitialized_allocator_move_if_noexceptB8ue170006INS_9allocatorIN5Catch5clara6detail5TokenEEENS_16reverse_iteratorIPS5_EES9_S9_EET2_RT_T0_T1_SA_, symObjAddr: 0xB7AF8, symBinAddr: 0x1000B8C34, symSize: 0x53C }
  - { offsetInCU: 0xA395F, offset: 0xA395F, size: 0x8, addend: 0x0, symName: __ZNSt3__14swapB8ue170006IPN5Catch5clara6detail5TokenEEENS_9enable_ifIXaasr21is_move_constructibleIT_EE5valuesr18is_move_assignableIS7_EE5valueEvE4typeERS7_SA_, symObjAddr: 0xB8034, symBinAddr: 0x1000B9170, symSize: 0x134 }
  - { offsetInCU: 0xA39B4, offset: 0xA39B4, size: 0x8, addend: 0x0, symName: __ZNSt3__122__make_exception_guardB8ue170006INS_29_AllocatorDestroyRangeReverseINS_9allocatorIN5Catch5clara6detail5TokenEEENS_16reverse_iteratorIPS6_EEEEEENS_28__exception_guard_exceptionsIT_EESD_, symObjAddr: 0xB8168, symBinAddr: 0x1000B92A4, symSize: 0x1F8 }
  - { offsetInCU: 0xA39ED, offset: 0xA39ED, size: 0x8, addend: 0x0, symName: __ZNSt3__112construct_atB8ue170006IN5Catch5clara6detail5TokenEJS4_EPS4_EEPT_S7_DpOT0_, symObjAddr: 0xB86DC, symBinAddr: 0x1000B9818, symSize: 0x3C }
  - { offsetInCU: 0xA3A64, offset: 0xA3A64, size: 0x8, addend: 0x0, symName: __ZNSt3__119__allocator_destroyB8ue170006INS_9allocatorIN5Catch5clara6detail5TokenEEENS_16reverse_iteratorINS7_IPS5_EEEESA_EEvRT_T0_T1_, symObjAddr: 0xB8CC4, symBinAddr: 0x1000B9E00, symSize: 0x70 }
  - { offsetInCU: 0xA3ACA, offset: 0xA3ACA, size: 0x8, addend: 0x0, symName: __ZNSt3__1neB8ue170006INS_16reverse_iteratorIPN5Catch5clara6detail5TokenEEES7_EEbRKNS1_IT_EERKNS1_IT0_EE, symObjAddr: 0xB8F7C, symBinAddr: 0x1000BA0B8, symSize: 0x2CC }
  - { offsetInCU: 0xA3B1B, offset: 0xA3B1B, size: 0x8, addend: 0x0, symName: __ZNSt3__112__to_addressB8ue170006INS_16reverse_iteratorINS1_IPN5Catch5clara6detail5TokenEEEEEvEEu7__decayIDTclsr19__to_address_helperIT_EE6__callclsr3stdE7declvalIRKS9_EEEEESB_, symObjAddr: 0xB9248, symBinAddr: 0x1000BA384, symSize: 0x24 }
  - { offsetInCU: 0xA3B7E, offset: 0xA3B7E, size: 0x8, addend: 0x0, symName: __ZNSt3__14prevB8ue170006INS_16reverse_iteratorIPN5Catch5clara6detail5TokenEEEEENS_9enable_ifIXsr29__has_input_iterator_categoryIT_EE5valueES9_E4typeES9_NS_15iterator_traitsIS9_E15difference_typeE, symObjAddr: 0xB978C, symBinAddr: 0x1000BA8C8, symSize: 0x294 }
  - { offsetInCU: 0xA3BC9, offset: 0xA3BC9, size: 0x8, addend: 0x0, symName: __ZNSt3__19__advanceB8ue170006INS_16reverse_iteratorIPN5Catch5clara6detail5TokenEEEEEvRT_NS_15iterator_traitsIS8_E15difference_typeENS_26random_access_iterator_tagE, symObjAddr: 0xB9A58, symBinAddr: 0x1000BAB94, symSize: 0x2C }
  - { offsetInCU: 0xA3C16, offset: 0xA3C16, size: 0x8, addend: 0x0, symName: __ZNSt3__112__to_addressB8ue170006IKNS_12basic_stringIcNS_11char_traitsIcEENS_9allocatorIcEEEEEEPT_S9_, symObjAddr: 0xBA14C, symBinAddr: 0x1000BB288, symSize: 0x14 }
  - { offsetInCU: 0xA3C4C, offset: 0xA3C4C, size: 0x8, addend: 0x0, symName: __ZNSt3__119__str_find_first_ofB8ue170006IcmNS_11char_traitsIcEELm18446744073709551615EEET0_PKT_S3_S6_S3_S3_, symObjAddr: 0xBA160, symBinAddr: 0x1000BB29C, symSize: 0x110 }
  - { offsetInCU: 0xA3CF5, offset: 0xA3CF5, size: 0x8, addend: 0x0, symName: __ZNSt3__118__find_first_of_ceB8ue170006IPKcS2_RDoFbccEEET_S5_S5_T0_S6_OT1_, symObjAddr: 0xBA2B0, symBinAddr: 0x1000BB3EC, symSize: 0x1C8 }
  - { offsetInCU: 0xA3D97, offset: 0xA3D97, size: 0x8, addend: 0x0, symName: __ZNSt3__118__constexpr_strlenB8ue170006EPKc, symObjAddr: 0xBA4A0, symBinAddr: 0x1000BB5DC, symSize: 0x24 }
  - { offsetInCU: 0xA3DC4, offset: 0xA3DC4, size: 0x8, addend: 0x0, symName: __ZNSt3__111make_sharedB8ue170006IN5Catch5clara6detail12BoundFlagRefEJRbEvEENS_10shared_ptrIT_EEDpOT0_, symObjAddr: 0xBB05C, symBinAddr: 0x1000BC198, symSize: 0x1E8 }
  - { offsetInCU: 0xA402A, offset: 0xA402A, size: 0x8, addend: 0x0, symName: __ZNSt3__115allocate_sharedB8ue170006IN5Catch5clara6detail12BoundFlagRefENS_9allocatorIS4_EEJRbEvEENS_10shared_ptrIT_EERKT0_DpOT1_, symObjAddr: 0xBB2A4, symBinAddr: 0x1000BC3E0, symSize: 0x300 }
  - { offsetInCU: 0xA4402, offset: 0xA4402, size: 0x8, addend: 0x0, symName: __ZNSt3__112construct_atB8ue170006IN5Catch5clara6detail12BoundFlagRefEJRbEPS4_EEPT_S8_DpOT0_, symObjAddr: 0xBC5A0, symBinAddr: 0x1000BD6DC, symSize: 0x3C }
  - { offsetInCU: 0xA447A, offset: 0xA447A, size: 0x8, addend: 0x0, symName: __ZNSt3__110destroy_atB8ue170006IN5Catch5clara6detail12BoundFlagRefELi0EEEvPT_, symObjAddr: 0xBCB40, symBinAddr: 0x1000BDC7C, symSize: 0x24 }
  - { offsetInCU: 0xA44B4, offset: 0xA44B4, size: 0x8, addend: 0x0, symName: __ZNSt3__112__destroy_atB8ue170006IN5Catch5clara6detail12BoundFlagRefELi0EEEvPT_, symObjAddr: 0xBCB64, symBinAddr: 0x1000BDCA0, symSize: 0xA4 }
  - { offsetInCU: 0xA4523, offset: 0xA4523, size: 0x8, addend: 0x0, symName: __ZNSt3__111make_sharedB8ue170006IN5Catch5clara6detail13BoundValueRefINS_6vectorINS_12basic_stringIcNS_11char_traitsIcEENS_9allocatorIcEEEENS9_ISB_EEEEEEJRSD_EvEENS_10shared_ptrIT_EEDpOT0_, symObjAddr: 0xBE298, symBinAddr: 0x1000BF3D4, symSize: 0x1E8 }
  - { offsetInCU: 0xA4789, offset: 0xA4789, size: 0x8, addend: 0x0, symName: __ZNSt3__115allocate_sharedB8ue170006IN5Catch5clara6detail13BoundValueRefINS_6vectorINS_12basic_stringIcNS_11char_traitsIcEENS_9allocatorIcEEEENS9_ISB_EEEEEENS9_ISE_EEJRSD_EvEENS_10shared_ptrIT_EERKT0_DpOT1_, symObjAddr: 0xBE57C, symBinAddr: 0x1000BF6B8, symSize: 0x300 }
  - { offsetInCU: 0xA4B61, offset: 0xA4B61, size: 0x8, addend: 0x0, symName: __ZNSt3__112construct_atB8ue170006IN5Catch5clara6detail13BoundValueRefINS_6vectorINS_12basic_stringIcNS_11char_traitsIcEENS_9allocatorIcEEEENS9_ISB_EEEEEEJRSD_EPSE_EEPT_SI_DpOT0_, symObjAddr: 0xBF878, symBinAddr: 0x1000C09B4, symSize: 0x3C }
  - { offsetInCU: 0xA4BD9, offset: 0xA4BD9, size: 0x8, addend: 0x0, symName: __ZNSt3__110destroy_atB8ue170006IN5Catch5clara6detail13BoundValueRefINS_6vectorINS_12basic_stringIcNS_11char_traitsIcEENS_9allocatorIcEEEENS9_ISB_EEEEEELi0EEEvPT_, symObjAddr: 0xBFEC4, symBinAddr: 0x1000C1000, symSize: 0x24 }
  - { offsetInCU: 0xA4C13, offset: 0xA4C13, size: 0x8, addend: 0x0, symName: __ZNSt3__112__destroy_atB8ue170006IN5Catch5clara6detail13BoundValueRefINS_6vectorINS_12basic_stringIcNS_11char_traitsIcEENS_9allocatorIcEEEENS9_ISB_EEEEEELi0EEEvPT_, symObjAddr: 0xBFEE8, symBinAddr: 0x1000C1024, symSize: 0xA4 }
  - { offsetInCU: 0xA4C83, offset: 0xA4C83, size: 0x8, addend: 0x0, symName: __ZNSt3__112__to_addressB8ue170006IN5Catch5clara6detail3ArgEEEPT_S6_, symObjAddr: 0xC26F0, symBinAddr: 0x1000C382C, symSize: 0x14 }
  - { offsetInCU: 0xA4CBA, offset: 0xA4CBA, size: 0x8, addend: 0x0, symName: __ZNSt3__110destroy_atB8ue170006IN5Catch5clara6detail3ArgELi0EEEvPT_, symObjAddr: 0xC2704, symBinAddr: 0x1000C3840, symSize: 0x24 }
  - { offsetInCU: 0xA4CF4, offset: 0xA4CF4, size: 0x8, addend: 0x0, symName: __ZNSt3__112__destroy_atB8ue170006IN5Catch5clara6detail3ArgELi0EEEvPT_, symObjAddr: 0xC2728, symBinAddr: 0x1000C3864, symSize: 0xA4 }
  - { offsetInCU: 0xA4D2E, offset: 0xA4D2E, size: 0x8, addend: 0x0, symName: __ZNSt3__112__to_addressB8ue170006IN5Catch5clara6detail3OptEEEPT_S6_, symObjAddr: 0xC3284, symBinAddr: 0x1000C43C0, symSize: 0x14 }
  - { offsetInCU: 0xA4D65, offset: 0xA4D65, size: 0x8, addend: 0x0, symName: __ZNSt3__110destroy_atB8ue170006IN5Catch5clara6detail3OptELi0EEEvPT_, symObjAddr: 0xC3298, symBinAddr: 0x1000C43D4, symSize: 0x24 }
  - { offsetInCU: 0xA4D9F, offset: 0xA4D9F, size: 0x8, addend: 0x0, symName: __ZNSt3__112__destroy_atB8ue170006IN5Catch5clara6detail3OptELi0EEEvPT_, symObjAddr: 0xC32BC, symBinAddr: 0x1000C43F8, symSize: 0xA4 }
  - { offsetInCU: 0xA4DD9, offset: 0xA4DD9, size: 0x8, addend: 0x0, symName: __ZNSt3__1neB8ue170006IPKN5Catch5clara6detail3OptEEEbRKNS_11__wrap_iterIT_EESB_, symObjAddr: 0xC3A88, symBinAddr: 0x1000C4BC4, symSize: 0x34 }
  - { offsetInCU: 0xA4E1F, offset: 0xA4E1F, size: 0x8, addend: 0x0, symName: __ZNSt3__1neB8ue170006IPKN5Catch5clara6detail3ArgEEEbRKNS_11__wrap_iterIT_EESB_, symObjAddr: 0xC4058, symBinAddr: 0x1000C5194, symSize: 0x34 }
  - { offsetInCU: 0xA4E65, offset: 0xA4E65, size: 0x8, addend: 0x0, symName: __ZNSt3__1eqB8ue170006IPKN5Catch5clara6detail3OptEEEbRKNS_11__wrap_iterIT_EESB_, symObjAddr: 0xC43F4, symBinAddr: 0x1000C5530, symSize: 0x48 }
  - { offsetInCU: 0xA4EAB, offset: 0xA4EAB, size: 0x8, addend: 0x0, symName: __ZNSt3__1eqB8ue170006IPKN5Catch5clara6detail3ArgEEEbRKNS_11__wrap_iterIT_EESB_, symObjAddr: 0xC473C, symBinAddr: 0x1000C5878, symSize: 0x48 }
  - { offsetInCU: 0xA4EF0, offset: 0xA4EF0, size: 0x8, addend: 0x0, symName: __ZNSt3__118__str_find_last_ofB8ue170006IcmNS_11char_traitsIcEELm18446744073709551615EEET0_PKT_S3_S6_S3_S3_, symObjAddr: 0xC50C0, symBinAddr: 0x1000C61FC, symSize: 0x140 }
  - { offsetInCU: 0xA4FC4, offset: 0xA4FC4, size: 0x8, addend: 0x0, symName: __ZNSt3__118__constexpr_memchrB8ue170006IKccEEPT_S3_T0_m, symObjAddr: 0xC52EC, symBinAddr: 0x1000C6428, symSize: 0x2C4 }
  - { offsetInCU: 0xA5041, offset: 0xA5041, size: 0x8, addend: 0x0, symName: __ZNSt3__1eqB8ue170006IPNS_12basic_stringIcNS_11char_traitsIcEENS_9allocatorIcEEEEEEbRKNS_11__wrap_iterIT_EESC_, symObjAddr: 0xC6508, symBinAddr: 0x1000C7644, symSize: 0x48 }
  - { offsetInCU: 0xA5087, offset: 0xA5087, size: 0x8, addend: 0x0, symName: __ZNSt3__112__to_addressB8ue170006IN5Catch8TestSpec6FilterEEEPT_S5_, symObjAddr: 0xC6F20, symBinAddr: 0x1000C805C, symSize: 0x14 }
  - { offsetInCU: 0xA50BE, offset: 0xA50BE, size: 0x8, addend: 0x0, symName: __ZNSt3__110destroy_atB8ue170006IN5Catch8TestSpec6FilterELi0EEEvPT_, symObjAddr: 0xC6F34, symBinAddr: 0x1000C8070, symSize: 0x24 }
  - { offsetInCU: 0xA50F8, offset: 0xA50F8, size: 0x8, addend: 0x0, symName: __ZNSt3__112__destroy_atB8ue170006IN5Catch8TestSpec6FilterELi0EEEvPT_, symObjAddr: 0xC6F58, symBinAddr: 0x1000C8094, symSize: 0x24 }
  - { offsetInCU: 0xA5132, offset: 0xA5132, size: 0x8, addend: 0x0, symName: __ZNSt3__112__to_addressB8ue170006ImEEPT_S2_, symObjAddr: 0xC7F98, symBinAddr: 0x1000C90D4, symSize: 0x14 }
  - { offsetInCU: 0xA5169, offset: 0xA5169, size: 0x8, addend: 0x0, symName: __ZNSt3__110destroy_atB8ue170006ImLi0EEEvPT_, symObjAddr: 0xC7FAC, symBinAddr: 0x1000C90E8, symSize: 0x24 }
  - { offsetInCU: 0xA51A3, offset: 0xA51A3, size: 0x8, addend: 0x0, symName: __ZNSt3__112__destroy_atB8ue170006ImLi0EEEvPT_, symObjAddr: 0xC7FD0, symBinAddr: 0x1000C910C, symSize: 0x10 }
  - { offsetInCU: 0xA51DD, offset: 0xA51DD, size: 0x8, addend: 0x0, symName: __ZNSt3__119__allocate_at_leastB8ue170006INS_9allocatorIN5Catch9StringRefEEEEENS_19__allocation_resultINS_16allocator_traitsIT_E7pointerEEERS7_m, symObjAddr: 0xCA710, symBinAddr: 0x1000CB84C, symSize: 0x28C }
  - { offsetInCU: 0xA5224, offset: 0xA5224, size: 0x8, addend: 0x0, symName: __ZNSt3__142__uninitialized_allocator_move_if_noexceptB8ue170006INS_9allocatorIN5Catch9StringRefEEENS_16reverse_iteratorIPS3_EES7_S3_vEET1_RT_T0_SB_S8_, symObjAddr: 0xCAC8C, symBinAddr: 0x1000CBDC8, symSize: 0x4A8 }
  - { offsetInCU: 0xA52AF, offset: 0xA52AF, size: 0x8, addend: 0x0, symName: __ZNSt3__14swapB8ue170006IPN5Catch9StringRefEEENS_9enable_ifIXaasr21is_move_constructibleIT_EE5valuesr18is_move_assignableIS5_EE5valueEvE4typeERS5_S8_, symObjAddr: 0xCB1CC, symBinAddr: 0x1000CC308, symSize: 0x134 }
  - { offsetInCU: 0xA5304, offset: 0xA5304, size: 0x8, addend: 0x0, symName: __ZNSt3__112__to_addressB8ue170006IN5Catch9StringRefEEEPT_S4_, symObjAddr: 0xCB4A4, symBinAddr: 0x1000CC5E0, symSize: 0x14 }
  - { offsetInCU: 0xA533B, offset: 0xA533B, size: 0x8, addend: 0x0, symName: __ZNSt3__14moveB8ue170006INS_16reverse_iteratorIPN5Catch9StringRefEEES5_EET0_T_S7_S6_, symObjAddr: 0xCB4B8, symBinAddr: 0x1000CC5F4, symSize: 0x4B0 }
  - { offsetInCU: 0xA53A6, offset: 0xA53A6, size: 0x8, addend: 0x0, symName: __ZNSt3__16__moveB8ue170006INS_17_ClassicAlgPolicyENS_16reverse_iteratorIPN5Catch9StringRefEEES6_S6_EENS_4pairIT0_T2_EES8_T1_S9_, symObjAddr: 0xCB968, symBinAddr: 0x1000CCAA4, symSize: 0x424 }
  - { offsetInCU: 0xA5422, offset: 0xA5422, size: 0x8, addend: 0x0, symName: __ZNSt3__123__dispatch_copy_or_moveB8ue170006INS_17_ClassicAlgPolicyENS_11__move_loopIS1_EENS_14__move_trivialENS_16reverse_iteratorIPN5Catch9StringRefEEES9_S9_EENS_4pairIT2_T4_EESB_T3_SC_, symObjAddr: 0xCBD8C, symBinAddr: 0x1000CCEC8, symSize: 0x424 }
  - { offsetInCU: 0xA54B0, offset: 0xA54B0, size: 0x8, addend: 0x0, symName: __ZNSt3__121__unwrap_and_dispatchB8ue170006INS_10__overloadINS_11__move_loopINS_17_ClassicAlgPolicyEEENS_14__move_trivialEEENS_16reverse_iteratorIPN5Catch9StringRefEEESB_SB_Li0EEENS_4pairIT0_T2_EESD_T1_SE_, symObjAddr: 0xCC1B0, symBinAddr: 0x1000CD2EC, symSize: 0x880 }
  - { offsetInCU: 0xA555B, offset: 0xA555B, size: 0x8, addend: 0x0, symName: __ZNSt3__114__unwrap_rangeB8ue170006INS_16reverse_iteratorIPN5Catch9StringRefEEES5_EEDaT_T0_, symObjAddr: 0xCCA30, symBinAddr: 0x1000CDB6C, symSize: 0x35C }
  - { offsetInCU: 0xA568D, offset: 0xA568D, size: 0x8, addend: 0x0, symName: __ZNSt3__113__unwrap_iterB8ue170006INS_16reverse_iteratorIPN5Catch9StringRefEEENS_18__unwrap_iter_implIS5_Lb0EEELi0EEEDTclsrT0_8__unwrapclsr3stdE7declvalIT_EEEES9_, symObjAddr: 0xCD0D0, symBinAddr: 0x1000CE20C, symSize: 0x2EC }
  - { offsetInCU: 0xA56D7, offset: 0xA56D7, size: 0x8, addend: 0x0, symName: __ZNSt3__19make_pairB8ue170006INS_16reverse_iteratorIPN5Catch9StringRefEEES5_EENS_4pairINS_18__unwrap_ref_decayIT_E4typeENS7_IT0_E4typeEEEOS8_OSB_, symObjAddr: 0xCD3BC, symBinAddr: 0x1000CE4F8, symSize: 0x38 }
  - { offsetInCU: 0xA5727, offset: 0xA5727, size: 0x8, addend: 0x0, symName: __ZNSt3__114__rewrap_rangeB8ue170006INS_16reverse_iteratorIPN5Catch9StringRefEEES5_S5_EET0_S6_T1_, symObjAddr: 0xCD3F4, symBinAddr: 0x1000CE530, symSize: 0x3D4 }
  - { offsetInCU: 0xA5787, offset: 0xA5787, size: 0x8, addend: 0x0, symName: __ZNSt3__113__rewrap_iterB8ue170006INS_16reverse_iteratorIPN5Catch9StringRefEEES5_NS_18__unwrap_iter_implIS5_Lb0EEEEET_S8_T0_, symObjAddr: 0xCD7C8, symBinAddr: 0x1000CE904, symSize: 0x3E8 }
  - { offsetInCU: 0xA583A, offset: 0xA583A, size: 0x8, addend: 0x0, symName: __ZNSt3__1neB8ue170006IPN5Catch9StringRefES3_EEbRKNS_16reverse_iteratorIT_EERKNS4_IT0_EE, symObjAddr: 0xCE088, symBinAddr: 0x1000CF1C4, symSize: 0x48 }
  - { offsetInCU: 0xA58FC, offset: 0xA58FC, size: 0x8, addend: 0x0, symName: __ZNSt3__110destroy_atB8ue170006IN5Catch9StringRefELi0EEEvPT_, symObjAddr: 0xCEF9C, symBinAddr: 0x1000D00D8, symSize: 0x24 }
  - { offsetInCU: 0xA5936, offset: 0xA5936, size: 0x8, addend: 0x0, symName: __ZNSt3__112__destroy_atB8ue170006IN5Catch9StringRefELi0EEEvPT_, symObjAddr: 0xCEFC0, symBinAddr: 0x1000D00FC, symSize: 0x10 }
  - { offsetInCU: 0xA5970, offset: 0xA5970, size: 0x8, addend: 0x0, symName: __ZNSt3__1eqB8ue170006IPN5Catch9StringRefEEEbRKNS_11__wrap_iterIT_EES8_, symObjAddr: 0xCF308, symBinAddr: 0x1000D0444, symSize: 0x48 }
  - { offsetInCU: 0xA59DD, offset: 0xA59DD, size: 0x8, addend: 0x0, symName: __ZNSt3__112construct_atB8ue170006IN5Catch9StringRefEJS2_EPS2_EEPT_S5_DpOT0_, symObjAddr: 0xCFE1C, symBinAddr: 0x1000D0F58, symSize: 0x40 }
  - { offsetInCU: 0xA5A55, offset: 0xA5A55, size: 0x8, addend: 0x0, symName: __ZNSt3__112__to_addressB8ue170006INS_4pairIiN5Catch9StringRefEEEEEPT_S6_, symObjAddr: 0xD13C0, symBinAddr: 0x1000D24FC, symSize: 0x14 }
  - { offsetInCU: 0xA5A8C, offset: 0xA5A8C, size: 0x8, addend: 0x0, symName: __ZNSt3__110destroy_atB8ue170006INS_4pairIiN5Catch9StringRefEEELi0EEEvPT_, symObjAddr: 0xD13D4, symBinAddr: 0x1000D2510, symSize: 0x24 }
  - { offsetInCU: 0xA5AC6, offset: 0xA5AC6, size: 0x8, addend: 0x0, symName: __ZNSt3__112__destroy_atB8ue170006INS_4pairIiN5Catch9StringRefEEELi0EEEvPT_, symObjAddr: 0xD13F8, symBinAddr: 0x1000D2534, symSize: 0x10 }
  - { offsetInCU: 0xA5B00, offset: 0xA5B00, size: 0x8, addend: 0x0, symName: __ZNSt3__1eqB8ue170006IPKNS_4pairIiN5Catch9StringRefEEEEEbRKNS_11__wrap_iterIT_EESB_, symObjAddr: 0xD18FC, symBinAddr: 0x1000D2A38, symSize: 0x48 }
  - { offsetInCU: 0xA5B46, offset: 0xA5B46, size: 0x8, addend: 0x0, symName: __ZNSt3__119__allocate_at_leastB8ue170006INS_9allocatorINS_4pairIiN5Catch9StringRefEEEEEEENS_19__allocation_resultINS_16allocator_traitsIT_E7pointerEEERS9_m, symObjAddr: 0xD2D28, symBinAddr: 0x1000D3E64, symSize: 0x28C }
  - { offsetInCU: 0xA5B8D, offset: 0xA5B8D, size: 0x8, addend: 0x0, symName: __ZNSt3__142__uninitialized_allocator_move_if_noexceptB8ue170006INS_9allocatorINS_4pairIiN5Catch9StringRefEEEEENS_16reverse_iteratorIPS5_EES9_S9_EET2_RT_T0_T1_SA_, symObjAddr: 0xD31DC, symBinAddr: 0x1000D4318, symSize: 0x544 }
  - { offsetInCU: 0xA5C43, offset: 0xA5C43, size: 0x8, addend: 0x0, symName: __ZNSt3__14swapB8ue170006IPNS_4pairIiN5Catch9StringRefEEEEENS_9enable_ifIXaasr21is_move_constructibleIT_EE5valuesr18is_move_assignableIS7_EE5valueEvE4typeERS7_SA_, symObjAddr: 0xD37B8, symBinAddr: 0x1000D48F4, symSize: 0x134 }
  - { offsetInCU: 0xA5C98, offset: 0xA5C98, size: 0x8, addend: 0x0, symName: __ZNSt3__122__make_exception_guardB8ue170006INS_29_AllocatorDestroyRangeReverseINS_9allocatorINS_4pairIiN5Catch9StringRefEEEEENS_16reverse_iteratorIPS6_EEEEEENS_28__exception_guard_exceptionsIT_EESD_, symObjAddr: 0xD39F0, symBinAddr: 0x1000D4B2C, symSize: 0x1F8 }
  - { offsetInCU: 0xA5CD1, offset: 0xA5CD1, size: 0x8, addend: 0x0, symName: __ZNSt3__1neB8ue170006IPNS_4pairIiN5Catch9StringRefEEES5_EEbRKNS_16reverse_iteratorIT_EERKNS6_IT0_EE, symObjAddr: 0xD3C2C, symBinAddr: 0x1000D4D68, symSize: 0x48 }
  - { offsetInCU: 0xA5D20, offset: 0xA5D20, size: 0x8, addend: 0x0, symName: __ZNSt3__112__to_addressB8ue170006INS_16reverse_iteratorIPNS_4pairIiN5Catch9StringRefEEEEEvEEu7__decayIDTclsr19__to_address_helperIT_EE6__callclsr3stdE7declvalIRKS8_EEEEESA_, symObjAddr: 0xD3CA4, symBinAddr: 0x1000D4DE0, symSize: 0x24 }
  - { offsetInCU: 0xA5D7F, offset: 0xA5D7F, size: 0x8, addend: 0x0, symName: __ZNSt3__112construct_atB8ue170006INS_4pairIiN5Catch9StringRefEEEJS4_EPS4_EEPT_S7_DpOT0_, symObjAddr: 0xD403C, symBinAddr: 0x1000D5178, symSize: 0x40 }
  - { offsetInCU: 0xA5E22, offset: 0xA5E22, size: 0x8, addend: 0x0, symName: __ZNSt3__14prevB8ue170006IPNS_4pairIiN5Catch9StringRefEEEEENS_9enable_ifIXsr29__has_input_iterator_categoryIT_EE5valueES7_E4typeES7_NS_15iterator_traitsIS7_E15difference_typeE, symObjAddr: 0xD412C, symBinAddr: 0x1000D5268, symSize: 0x240 }
  - { offsetInCU: 0xA5E6D, offset: 0xA5E6D, size: 0x8, addend: 0x0, symName: __ZNSt3__19__advanceB8ue170006IPNS_4pairIiN5Catch9StringRefEEEEEvRT_NS_15iterator_traitsIS6_E15difference_typeENS_26random_access_iterator_tagE, symObjAddr: 0xD43A4, symBinAddr: 0x1000D54E0, symSize: 0x80 }
  - { offsetInCU: 0xA5EB9, offset: 0xA5EB9, size: 0x8, addend: 0x0, symName: __ZNSt3__119__allocator_destroyB8ue170006INS_9allocatorINS_4pairIiN5Catch9StringRefEEEEENS_16reverse_iteratorINS7_IPS5_EEEESA_EEvRT_T0_T1_, symObjAddr: 0xD4888, symBinAddr: 0x1000D59C4, symSize: 0x70 }
  - { offsetInCU: 0xA5F1F, offset: 0xA5F1F, size: 0x8, addend: 0x0, symName: __ZNSt3__1neB8ue170006INS_16reverse_iteratorIPNS_4pairIiN5Catch9StringRefEEEEES7_EEbRKNS1_IT_EERKNS1_IT0_EE, symObjAddr: 0xD4B40, symBinAddr: 0x1000D5C7C, symSize: 0x2CC }
  - { offsetInCU: 0xA5F70, offset: 0xA5F70, size: 0x8, addend: 0x0, symName: __ZNSt3__112__to_addressB8ue170006INS_16reverse_iteratorINS1_IPNS_4pairIiN5Catch9StringRefEEEEEEEvEEu7__decayIDTclsr19__to_address_helperIT_EE6__callclsr3stdE7declvalIRKS9_EEEEESB_, symObjAddr: 0xD4E0C, symBinAddr: 0x1000D5F48, symSize: 0x24 }
  - { offsetInCU: 0xA5FD3, offset: 0xA5FD3, size: 0x8, addend: 0x0, symName: __ZNSt3__14prevB8ue170006INS_16reverse_iteratorIPNS_4pairIiN5Catch9StringRefEEEEEEENS_9enable_ifIXsr29__has_input_iterator_categoryIT_EE5valueES9_E4typeES9_NS_15iterator_traitsIS9_E15difference_typeE, symObjAddr: 0xD5350, symBinAddr: 0x1000D648C, symSize: 0x294 }
  - { offsetInCU: 0xA601E, offset: 0xA601E, size: 0x8, addend: 0x0, symName: __ZNSt3__19__advanceB8ue170006INS_16reverse_iteratorIPNS_4pairIiN5Catch9StringRefEEEEEEEvRT_NS_15iterator_traitsIS8_E15difference_typeENS_26random_access_iterator_tagE, symObjAddr: 0xD561C, symBinAddr: 0x1000D6758, symSize: 0x2C }
  - { offsetInCU: 0xA606B, offset: 0xA606B, size: 0x8, addend: 0x0, symName: __ZNSt3__1eqB8ue170006IPKiEEbRKNS_11__wrap_iterIT_EES7_, symObjAddr: 0xD608C, symBinAddr: 0x1000D71C8, symSize: 0x48 }
  - { offsetInCU: 0xA60B1, offset: 0xA60B1, size: 0x8, addend: 0x0, symName: __ZNSt3__112construct_atB8ue170006INS_4pairIiN5Catch9StringRefEEEJRiRKS3_EPS4_EEPT_SA_DpOT0_, symObjAddr: 0xD6C48, symBinAddr: 0x1000D7D84, symSize: 0x44 }
  - { offsetInCU: 0xA613E, offset: 0xA613E, size: 0x8, addend: 0x0, symName: __ZNSt3__112__to_addressB8ue170006INS_10unique_ptrIN5Catch6Detail8EnumInfoENS_14default_deleteIS4_EEEEEEPT_S9_, symObjAddr: 0xD7CE0, symBinAddr: 0x1000D8E1C, symSize: 0x14 }
  - { offsetInCU: 0xA619C, offset: 0xA619C, size: 0x8, addend: 0x0, symName: __ZNSt3__112construct_atB8ue170006INS_10unique_ptrIN5Catch6Detail8EnumInfoENS_14default_deleteIS4_EEEEJS7_EPS7_EEPT_SA_DpOT0_, symObjAddr: 0xD8250, symBinAddr: 0x1000D938C, symSize: 0x3C }
  - { offsetInCU: 0xA6214, offset: 0xA6214, size: 0x8, addend: 0x0, symName: __ZNSt3__119__allocate_at_leastB8ue170006INS_9allocatorINS_10unique_ptrIN5Catch6Detail8EnumInfoENS_14default_deleteIS5_EEEEEEEENS_19__allocation_resultINS_16allocator_traitsIT_E7pointerEEERSC_m, symObjAddr: 0xD9D78, symBinAddr: 0x1000DAEB4, symSize: 0x28C }
  - { offsetInCU: 0xA625B, offset: 0xA625B, size: 0x8, addend: 0x0, symName: __ZNSt3__142__uninitialized_allocator_move_if_noexceptB8ue170006INS_9allocatorINS_10unique_ptrIN5Catch6Detail8EnumInfoENS_14default_deleteIS5_EEEEEENS_16reverse_iteratorIPS8_EESC_SC_EET2_RT_T0_T1_SD_, symObjAddr: 0xDA344, symBinAddr: 0x1000DB480, symSize: 0x544 }
  - { offsetInCU: 0xA6311, offset: 0xA6311, size: 0x8, addend: 0x0, symName: __ZNSt3__14swapB8ue170006IPNS_10unique_ptrIN5Catch6Detail8EnumInfoENS_14default_deleteIS4_EEEEEENS_9enable_ifIXaasr21is_move_constructibleIT_EE5valuesr18is_move_assignableISA_EE5valueEvE4typeERSA_SD_, symObjAddr: 0xDA920, symBinAddr: 0x1000DBA5C, symSize: 0x134 }
  - { offsetInCU: 0xA6366, offset: 0xA6366, size: 0x8, addend: 0x0, symName: __ZNSt3__122__make_exception_guardB8ue170006INS_29_AllocatorDestroyRangeReverseINS_9allocatorINS_10unique_ptrIN5Catch6Detail8EnumInfoENS_14default_deleteIS6_EEEEEENS_16reverse_iteratorIPS9_EEEEEENS_28__exception_guard_exceptionsIT_EESG_, symObjAddr: 0xDAB14, symBinAddr: 0x1000DBC50, symSize: 0x1F8 }
  - { offsetInCU: 0xA639F, offset: 0xA639F, size: 0x8, addend: 0x0, symName: __ZNSt3__1neB8ue170006IPNS_10unique_ptrIN5Catch6Detail8EnumInfoENS_14default_deleteIS4_EEEES8_EEbRKNS_16reverse_iteratorIT_EERKNS9_IT0_EE, symObjAddr: 0xDAD50, symBinAddr: 0x1000DBE8C, symSize: 0x48 }
  - { offsetInCU: 0xA63EE, offset: 0xA63EE, size: 0x8, addend: 0x0, symName: __ZNSt3__112__to_addressB8ue170006INS_16reverse_iteratorIPNS_10unique_ptrIN5Catch6Detail8EnumInfoENS_14default_deleteIS5_EEEEEEvEEu7__decayIDTclsr19__to_address_helperIT_EE6__callclsr3stdE7declvalIRKSB_EEEEESD_, symObjAddr: 0xDAD98, symBinAddr: 0x1000DBED4, symSize: 0x24 }
  - { offsetInCU: 0xA6451, offset: 0xA6451, size: 0x8, addend: 0x0, symName: __ZNSt3__14prevB8ue170006IPNS_10unique_ptrIN5Catch6Detail8EnumInfoENS_14default_deleteIS4_EEEEEENS_9enable_ifIXsr29__has_input_iterator_categoryIT_EE5valueESA_E4typeESA_NS_15iterator_traitsISA_E15difference_typeE, symObjAddr: 0xDB1E0, symBinAddr: 0x1000DC31C, symSize: 0x240 }
  - { offsetInCU: 0xA649C, offset: 0xA649C, size: 0x8, addend: 0x0, symName: __ZNSt3__19__advanceB8ue170006IPNS_10unique_ptrIN5Catch6Detail8EnumInfoENS_14default_deleteIS4_EEEEEEvRT_NS_15iterator_traitsIS9_E15difference_typeENS_26random_access_iterator_tagE, symObjAddr: 0xDB458, symBinAddr: 0x1000DC594, symSize: 0x78 }
  - { offsetInCU: 0xA64E8, offset: 0xA64E8, size: 0x8, addend: 0x0, symName: __ZNSt3__119__allocator_destroyB8ue170006INS_9allocatorINS_10unique_ptrIN5Catch6Detail8EnumInfoENS_14default_deleteIS5_EEEEEENS_16reverse_iteratorINSA_IPS8_EEEESD_EEvRT_T0_T1_, symObjAddr: 0xDB934, symBinAddr: 0x1000DCA70, symSize: 0x70 }
  - { offsetInCU: 0xA654E, offset: 0xA654E, size: 0x8, addend: 0x0, symName: __ZNSt3__1neB8ue170006INS_16reverse_iteratorIPNS_10unique_ptrIN5Catch6Detail8EnumInfoENS_14default_deleteIS5_EEEEEESA_EEbRKNS1_IT_EERKNS1_IT0_EE, symObjAddr: 0xDBBEC, symBinAddr: 0x1000DCD28, symSize: 0x2CC }
  - { offsetInCU: 0xA659F, offset: 0xA659F, size: 0x8, addend: 0x0, symName: __ZNSt3__112__to_addressB8ue170006INS_16reverse_iteratorINS1_IPNS_10unique_ptrIN5Catch6Detail8EnumInfoENS_14default_deleteIS5_EEEEEEEEvEEu7__decayIDTclsr19__to_address_helperIT_EE6__callclsr3stdE7declvalIRKSC_EEEEESE_, symObjAddr: 0xDBEE0, symBinAddr: 0x1000DD01C, symSize: 0x24 }
  - { offsetInCU: 0xA65D7, offset: 0xA65D7, size: 0x8, addend: 0x0, symName: __ZNSt3__110destroy_atB8ue170006INS_10unique_ptrIN5Catch6Detail8EnumInfoENS_14default_deleteIS4_EEEELi0EEEvPT_, symObjAddr: 0xDC140, symBinAddr: 0x1000DD27C, symSize: 0x24 }
  - { offsetInCU: 0xA6611, offset: 0xA6611, size: 0x8, addend: 0x0, symName: __ZNSt3__112__destroy_atB8ue170006INS_10unique_ptrIN5Catch6Detail8EnumInfoENS_14default_deleteIS4_EEEELi0EEEvPT_, symObjAddr: 0xDC164, symBinAddr: 0x1000DD2A0, symSize: 0x24 }
  - { offsetInCU: 0xA6676, offset: 0xA6676, size: 0x8, addend: 0x0, symName: __ZNSt3__14prevB8ue170006INS_16reverse_iteratorIPNS_10unique_ptrIN5Catch6Detail8EnumInfoENS_14default_deleteIS5_EEEEEEEENS_9enable_ifIXsr29__has_input_iterator_categoryIT_EE5valueESC_E4typeESC_NS_15iterator_traitsISC_E15difference_typeE, symObjAddr: 0xDC46C, symBinAddr: 0x1000DD5A8, symSize: 0x294 }
  - { offsetInCU: 0xA66C1, offset: 0xA66C1, size: 0x8, addend: 0x0, symName: __ZNSt3__19__advanceB8ue170006INS_16reverse_iteratorIPNS_10unique_ptrIN5Catch6Detail8EnumInfoENS_14default_deleteIS5_EEEEEEEEvRT_NS_15iterator_traitsISB_E15difference_typeENS_26random_access_iterator_tagE, symObjAddr: 0xDC738, symBinAddr: 0x1000DD874, symSize: 0x2C }
  - { offsetInCU: 0xA670E, offset: 0xA670E, size: 0x8, addend: 0x0, symName: __ZNSt3__112__to_addressB8ue170006INS_10unique_ptrIKN5Catch20IExceptionTranslatorENS_14default_deleteIS4_EEEEEEPT_S9_, symObjAddr: 0xDD7AC, symBinAddr: 0x1000DE8E8, symSize: 0x14 }
  - { offsetInCU: 0xA6745, offset: 0xA6745, size: 0x8, addend: 0x0, symName: __ZNSt3__110destroy_atB8ue170006INS_10unique_ptrIKN5Catch20IExceptionTranslatorENS_14default_deleteIS4_EEEELi0EEEvPT_, symObjAddr: 0xDD7C0, symBinAddr: 0x1000DE8FC, symSize: 0x24 }
  - { offsetInCU: 0xA677F, offset: 0xA677F, size: 0x8, addend: 0x0, symName: __ZNSt3__112__destroy_atB8ue170006INS_10unique_ptrIKN5Catch20IExceptionTranslatorENS_14default_deleteIS4_EEEELi0EEEvPT_, symObjAddr: 0xDD7E4, symBinAddr: 0x1000DE920, symSize: 0x24 }
  - { offsetInCU: 0xA67E0, offset: 0xA67E0, size: 0x8, addend: 0x0, symName: __ZNSt3__112construct_atB8ue170006INS_10unique_ptrIKN5Catch20IExceptionTranslatorENS_14default_deleteIS4_EEEEJS7_EPS7_EEPT_SA_DpOT0_, symObjAddr: 0xDE524, symBinAddr: 0x1000DF660, symSize: 0x3C }
  - { offsetInCU: 0xA6858, offset: 0xA6858, size: 0x8, addend: 0x0, symName: __ZNSt3__119__allocate_at_leastB8ue170006INS_9allocatorINS_10unique_ptrIKN5Catch20IExceptionTranslatorENS_14default_deleteIS5_EEEEEEEENS_19__allocation_resultINS_16allocator_traitsIT_E7pointerEEERSC_m, symObjAddr: 0xE0014, symBinAddr: 0x1000E1150, symSize: 0x28C }
  - { offsetInCU: 0xA689F, offset: 0xA689F, size: 0x8, addend: 0x0, symName: __ZNSt3__142__uninitialized_allocator_move_if_noexceptB8ue170006INS_9allocatorINS_10unique_ptrIKN5Catch20IExceptionTranslatorENS_14default_deleteIS5_EEEEEENS_16reverse_iteratorIPS8_EESC_SC_EET2_RT_T0_T1_SD_, symObjAddr: 0xE0514, symBinAddr: 0x1000E1650, symSize: 0x544 }
  - { offsetInCU: 0xA6955, offset: 0xA6955, size: 0x8, addend: 0x0, symName: __ZNSt3__14swapB8ue170006IPNS_10unique_ptrIKN5Catch20IExceptionTranslatorENS_14default_deleteIS4_EEEEEENS_9enable_ifIXaasr21is_move_constructibleIT_EE5valuesr18is_move_assignableISA_EE5valueEvE4typeERSA_SD_, symObjAddr: 0xE0AF0, symBinAddr: 0x1000E1C2C, symSize: 0x134 }
  - { offsetInCU: 0xA69AA, offset: 0xA69AA, size: 0x8, addend: 0x0, symName: __ZNSt3__122__make_exception_guardB8ue170006INS_29_AllocatorDestroyRangeReverseINS_9allocatorINS_10unique_ptrIKN5Catch20IExceptionTranslatorENS_14default_deleteIS6_EEEEEENS_16reverse_iteratorIPS9_EEEEEENS_28__exception_guard_exceptionsIT_EESG_, symObjAddr: 0xE0CE4, symBinAddr: 0x1000E1E20, symSize: 0x1F8 }
  - { offsetInCU: 0xA69E3, offset: 0xA69E3, size: 0x8, addend: 0x0, symName: __ZNSt3__1neB8ue170006IPNS_10unique_ptrIKN5Catch20IExceptionTranslatorENS_14default_deleteIS4_EEEES8_EEbRKNS_16reverse_iteratorIT_EERKNS9_IT0_EE, symObjAddr: 0xE0F20, symBinAddr: 0x1000E205C, symSize: 0x48 }
  - { offsetInCU: 0xA6A32, offset: 0xA6A32, size: 0x8, addend: 0x0, symName: __ZNSt3__112__to_addressB8ue170006INS_16reverse_iteratorIPNS_10unique_ptrIKN5Catch20IExceptionTranslatorENS_14default_deleteIS5_EEEEEEvEEu7__decayIDTclsr19__to_address_helperIT_EE6__callclsr3stdE7declvalIRKSB_EEEEESD_, symObjAddr: 0xE0F68, symBinAddr: 0x1000E20A4, symSize: 0x24 }
  - { offsetInCU: 0xA6A95, offset: 0xA6A95, size: 0x8, addend: 0x0, symName: __ZNSt3__14prevB8ue170006IPNS_10unique_ptrIKN5Catch20IExceptionTranslatorENS_14default_deleteIS4_EEEEEENS_9enable_ifIXsr29__has_input_iterator_categoryIT_EE5valueESA_E4typeESA_NS_15iterator_traitsISA_E15difference_typeE, symObjAddr: 0xE13B0, symBinAddr: 0x1000E24EC, symSize: 0x240 }
  - { offsetInCU: 0xA6AE0, offset: 0xA6AE0, size: 0x8, addend: 0x0, symName: __ZNSt3__19__advanceB8ue170006IPNS_10unique_ptrIKN5Catch20IExceptionTranslatorENS_14default_deleteIS4_EEEEEEvRT_NS_15iterator_traitsIS9_E15difference_typeENS_26random_access_iterator_tagE, symObjAddr: 0xE1628, symBinAddr: 0x1000E2764, symSize: 0x78 }
  - { offsetInCU: 0xA6B2C, offset: 0xA6B2C, size: 0x8, addend: 0x0, symName: __ZNSt3__119__allocator_destroyB8ue170006INS_9allocatorINS_10unique_ptrIKN5Catch20IExceptionTranslatorENS_14default_deleteIS5_EEEEEENS_16reverse_iteratorINSA_IPS8_EEEESD_EEvRT_T0_T1_, symObjAddr: 0xE1B04, symBinAddr: 0x1000E2C40, symSize: 0x70 }
  - { offsetInCU: 0xA6B92, offset: 0xA6B92, size: 0x8, addend: 0x0, symName: __ZNSt3__1neB8ue170006INS_16reverse_iteratorIPNS_10unique_ptrIKN5Catch20IExceptionTranslatorENS_14default_deleteIS5_EEEEEESA_EEbRKNS1_IT_EERKNS1_IT0_EE, symObjAddr: 0xE1DBC, symBinAddr: 0x1000E2EF8, symSize: 0x2CC }
  - { offsetInCU: 0xA6BE3, offset: 0xA6BE3, size: 0x8, addend: 0x0, symName: __ZNSt3__112__to_addressB8ue170006INS_16reverse_iteratorINS1_IPNS_10unique_ptrIKN5Catch20IExceptionTranslatorENS_14default_deleteIS5_EEEEEEEEvEEu7__decayIDTclsr19__to_address_helperIT_EE6__callclsr3stdE7declvalIRKSC_EEEEESE_, symObjAddr: 0xE2088, symBinAddr: 0x1000E31C4, symSize: 0x24 }
  - { offsetInCU: 0xA6C46, offset: 0xA6C46, size: 0x8, addend: 0x0, symName: __ZNSt3__14prevB8ue170006INS_16reverse_iteratorIPNS_10unique_ptrIKN5Catch20IExceptionTranslatorENS_14default_deleteIS5_EEEEEEEENS_9enable_ifIXsr29__has_input_iterator_categoryIT_EE5valueESC_E4typeESC_NS_15iterator_traitsISC_E15difference_typeE, symObjAddr: 0xE25CC, symBinAddr: 0x1000E3708, symSize: 0x294 }
  - { offsetInCU: 0xA6C91, offset: 0xA6C91, size: 0x8, addend: 0x0, symName: __ZNSt3__19__advanceB8ue170006INS_16reverse_iteratorIPNS_10unique_ptrIKN5Catch20IExceptionTranslatorENS_14default_deleteIS5_EEEEEEEEvRT_NS_15iterator_traitsISB_E15difference_typeENS_26random_access_iterator_tagE, symObjAddr: 0xE2898, symBinAddr: 0x1000E39D4, symSize: 0x2C }
  - { offsetInCU: 0xA6CDE, offset: 0xA6CDE, size: 0x8, addend: 0x0, symName: __ZNSt3__13maxB8ue170006ImNS_6__lessIvvEEEERKT_S5_S5_T0_, symObjAddr: 0xE33C0, symBinAddr: 0x1000E44FC, symSize: 0x1E8 }
  - { offsetInCU: 0xA6E51, offset: 0xA6E51, size: 0x8, addend: 0x0, symName: __ZNSt3__122__make_exception_guardB8ue170006INS_6vectorIN5Catch11MessageInfoENS_9allocatorIS3_EEE16__destroy_vectorEEENS_28__exception_guard_exceptionsIT_EES9_, symObjAddr: 0xE420C, symBinAddr: 0x1000E5348, symSize: 0x278 }
  - { offsetInCU: 0xA6E8C, offset: 0xA6E8C, size: 0x8, addend: 0x0, symName: __ZNSt3__119__allocate_at_leastB8ue170006INS_9allocatorIN5Catch11MessageInfoEEEEENS_19__allocation_resultINS_16allocator_traitsIT_E7pointerEEERS7_m, symObjAddr: 0xE5538, symBinAddr: 0x1000E6674, symSize: 0x28C }
  - { offsetInCU: 0xA6ED4, offset: 0xA6ED4, size: 0x8, addend: 0x0, symName: __ZNSt3__112__to_addressB8ue170006IN5Catch11MessageInfoEEEPT_S4_, symObjAddr: 0xE5B40, symBinAddr: 0x1000E6C7C, symSize: 0x14 }
  - { offsetInCU: 0xA6F0A, offset: 0xA6F0A, size: 0x8, addend: 0x0, symName: __ZNSt3__130__uninitialized_allocator_copyB8ue170006INS_9allocatorIN5Catch11MessageInfoEEEPS3_S5_S5_EET2_RT_T0_T1_S6_, symObjAddr: 0xE5BF0, symBinAddr: 0x1000E6D2C, symSize: 0x2DC }
  - { offsetInCU: 0xA6FB1, offset: 0xA6FB1, size: 0x8, addend: 0x0, symName: __ZNSt3__114__unwrap_rangeB8ue170006IPN5Catch11MessageInfoES3_EEDaT_T0_, symObjAddr: 0xE61A0, symBinAddr: 0x1000E72DC, symSize: 0x224 }
  - { offsetInCU: 0xA7001, offset: 0xA7001, size: 0x8, addend: 0x0, symName: __ZNSt3__135__uninitialized_allocator_copy_implB8ue170006INS_9allocatorIN5Catch11MessageInfoEEEPS3_S5_S5_EET2_RT_T0_T1_S6_, symObjAddr: 0xE63C4, symBinAddr: 0x1000E7500, symSize: 0x520 }
  - { offsetInCU: 0xA70AE, offset: 0xA70AE, size: 0x8, addend: 0x0, symName: __ZNSt3__113__unwrap_iterB8ue170006IPN5Catch11MessageInfoENS_18__unwrap_iter_implIS3_Lb1EEELi0EEEDTclsrT0_8__unwrapclsr3stdE7declvalIT_EEEES7_, symObjAddr: 0xE68E4, symBinAddr: 0x1000E7A20, symSize: 0x24 }
  - { offsetInCU: 0xA70F5, offset: 0xA70F5, size: 0x8, addend: 0x0, symName: __ZNSt3__113__rewrap_iterB8ue170006IPN5Catch11MessageInfoES3_NS_18__unwrap_iter_implIS3_Lb1EEEEET_S6_T0_, symObjAddr: 0xE6908, symBinAddr: 0x1000E7A44, symSize: 0x48 }
  - { offsetInCU: 0xA7275, offset: 0xA7275, size: 0x8, addend: 0x0, symName: __ZNSt3__122__make_exception_guardB8ue170006INS_29_AllocatorDestroyRangeReverseINS_9allocatorIN5Catch11MessageInfoEEEPS4_EEEENS_28__exception_guard_exceptionsIT_EES9_, symObjAddr: 0xE6DD0, symBinAddr: 0x1000E7F0C, symSize: 0x1F8 }
  - { offsetInCU: 0xA72D5, offset: 0xA72D5, size: 0x8, addend: 0x0, symName: __ZNSt3__112construct_atB8ue170006IN5Catch11MessageInfoEJRS2_EPS2_EEPT_S6_DpOT0_, symObjAddr: 0xE72D0, symBinAddr: 0x1000E840C, symSize: 0x3C }
  - { offsetInCU: 0xA734C, offset: 0xA734C, size: 0x8, addend: 0x0, symName: __ZNSt3__119__allocator_destroyB8ue170006INS_9allocatorIN5Catch11MessageInfoEEENS_16reverse_iteratorIPS3_EES7_EEvRT_T0_T1_, symObjAddr: 0xE7764, symBinAddr: 0x1000E88A0, symSize: 0x2B8 }
  - { offsetInCU: 0xA73B9, offset: 0xA73B9, size: 0x8, addend: 0x0, symName: __ZNSt3__1neB8ue170006IPN5Catch11MessageInfoES3_EEbRKNS_16reverse_iteratorIT_EERKNS4_IT0_EE, symObjAddr: 0xE7A50, symBinAddr: 0x1000E8B8C, symSize: 0x48 }
  - { offsetInCU: 0xA7408, offset: 0xA7408, size: 0x8, addend: 0x0, symName: __ZNSt3__112__to_addressB8ue170006INS_16reverse_iteratorIPN5Catch11MessageInfoEEEvEEu7__decayIDTclsr19__to_address_helperIT_EE6__callclsr3stdE7declvalIRKS6_EEEEES8_, symObjAddr: 0xE7AC0, symBinAddr: 0x1000E8BFC, symSize: 0x24 }
  - { offsetInCU: 0xA7440, offset: 0xA7440, size: 0x8, addend: 0x0, symName: __ZNSt3__110destroy_atB8ue170006IN5Catch11MessageInfoELi0EEEvPT_, symObjAddr: 0xE7BB4, symBinAddr: 0x1000E8CF0, symSize: 0x24 }
  - { offsetInCU: 0xA747A, offset: 0xA747A, size: 0x8, addend: 0x0, symName: __ZNSt3__112__destroy_atB8ue170006IN5Catch11MessageInfoELi0EEEvPT_, symObjAddr: 0xE7BD8, symBinAddr: 0x1000E8D14, symSize: 0x24 }
  - { offsetInCU: 0xA74DF, offset: 0xA74DF, size: 0x8, addend: 0x0, symName: __ZNSt3__14prevB8ue170006IPN5Catch11MessageInfoEEENS_9enable_ifIXsr29__has_input_iterator_categoryIT_EE5valueES5_E4typeES5_NS_15iterator_traitsIS5_E15difference_typeE, symObjAddr: 0xE7CAC, symBinAddr: 0x1000E8DE8, symSize: 0x240 }
  - { offsetInCU: 0xA752A, offset: 0xA752A, size: 0x8, addend: 0x0, symName: __ZNSt3__19__advanceB8ue170006IPN5Catch11MessageInfoEEEvRT_NS_15iterator_traitsIS4_E15difference_typeENS_26random_access_iterator_tagE, symObjAddr: 0xE7F24, symBinAddr: 0x1000E9060, symSize: 0x78 }
  - { offsetInCU: 0xA75CF, offset: 0xA75CF, size: 0x8, addend: 0x0, symName: __ZNSt3__112construct_atB8ue170006IN5Catch11MessageInfoEJRKS2_EPS2_EEPT_S7_DpOT0_, symObjAddr: 0xE910C, symBinAddr: 0x1000EA248, symSize: 0x3C }
  - { offsetInCU: 0xA7646, offset: 0xA7646, size: 0x8, addend: 0x0, symName: __ZNSt3__142__uninitialized_allocator_move_if_noexceptB8ue170006INS_9allocatorIN5Catch11MessageInfoEEENS_16reverse_iteratorIPS3_EES7_S7_EET2_RT_T0_T1_S8_, symObjAddr: 0xEA1B8, symBinAddr: 0x1000EB2F4, symSize: 0x53C }
  - { offsetInCU: 0xA76FC, offset: 0xA76FC, size: 0x8, addend: 0x0, symName: __ZNSt3__14swapB8ue170006IPN5Catch11MessageInfoEEENS_9enable_ifIXaasr21is_move_constructibleIT_EE5valuesr18is_move_assignableIS5_EE5valueEvE4typeERS5_S8_, symObjAddr: 0xEA6F4, symBinAddr: 0x1000EB830, symSize: 0x134 }
  - { offsetInCU: 0xA7751, offset: 0xA7751, size: 0x8, addend: 0x0, symName: __ZNSt3__122__make_exception_guardB8ue170006INS_29_AllocatorDestroyRangeReverseINS_9allocatorIN5Catch11MessageInfoEEENS_16reverse_iteratorIPS4_EEEEEENS_28__exception_guard_exceptionsIT_EESB_, symObjAddr: 0xEA828, symBinAddr: 0x1000EB964, symSize: 0x1F8 }
  - { offsetInCU: 0xA778A, offset: 0xA778A, size: 0x8, addend: 0x0, symName: __ZNSt3__112construct_atB8ue170006IN5Catch11MessageInfoEJS2_EPS2_EEPT_S5_DpOT0_, symObjAddr: 0xEAD9C, symBinAddr: 0x1000EBED8, symSize: 0x3C }
  - { offsetInCU: 0xA7801, offset: 0xA7801, size: 0x8, addend: 0x0, symName: __ZNSt3__119__allocator_destroyB8ue170006INS_9allocatorIN5Catch11MessageInfoEEENS_16reverse_iteratorINS5_IPS3_EEEES8_EEvRT_T0_T1_, symObjAddr: 0xEB2D4, symBinAddr: 0x1000EC410, symSize: 0x70 }
  - { offsetInCU: 0xA7867, offset: 0xA7867, size: 0x8, addend: 0x0, symName: __ZNSt3__1neB8ue170006INS_16reverse_iteratorIPN5Catch11MessageInfoEEES5_EEbRKNS1_IT_EERKNS1_IT0_EE, symObjAddr: 0xEB58C, symBinAddr: 0x1000EC6C8, symSize: 0x2CC }
  - { offsetInCU: 0xA78B8, offset: 0xA78B8, size: 0x8, addend: 0x0, symName: __ZNSt3__112__to_addressB8ue170006INS_16reverse_iteratorINS1_IPN5Catch11MessageInfoEEEEEvEEu7__decayIDTclsr19__to_address_helperIT_EE6__callclsr3stdE7declvalIRKS7_EEEEES9_, symObjAddr: 0xEB858, symBinAddr: 0x1000EC994, symSize: 0x24 }
  - { offsetInCU: 0xA791B, offset: 0xA791B, size: 0x8, addend: 0x0, symName: __ZNSt3__14prevB8ue170006INS_16reverse_iteratorIPN5Catch11MessageInfoEEEEENS_9enable_ifIXsr29__has_input_iterator_categoryIT_EE5valueES7_E4typeES7_NS_15iterator_traitsIS7_E15difference_typeE, symObjAddr: 0xEBD9C, symBinAddr: 0x1000ECED8, symSize: 0x294 }
  - { offsetInCU: 0xA7966, offset: 0xA7966, size: 0x8, addend: 0x0, symName: __ZNSt3__19__advanceB8ue170006INS_16reverse_iteratorIPN5Catch11MessageInfoEEEEEvRT_NS_15iterator_traitsIS6_E15difference_typeENS_26random_access_iterator_tagE, symObjAddr: 0xEC068, symBinAddr: 0x1000ED1A4, symSize: 0x2C }
  - { offsetInCU: 0xA79B3, offset: 0xA79B3, size: 0x8, addend: 0x0, symName: __ZNSt3__1eqB8ue170006IPN5Catch8TestCaseEEEbRKNS_11__wrap_iterIT_EES8_, symObjAddr: 0xECFEC, symBinAddr: 0x1000EE128, symSize: 0x48 }
  - { offsetInCU: 0xA79F9, offset: 0xA79F9, size: 0x8, addend: 0x0, symName: __ZNSt3__112__to_addressB8ue170006IN5Catch8TestCaseEEEPT_S4_, symObjAddr: 0xF03A8, symBinAddr: 0x1000F14E4, symSize: 0x14 }
  - { offsetInCU: 0xA7A30, offset: 0xA7A30, size: 0x8, addend: 0x0, symName: __ZNSt3__110destroy_atB8ue170006IN5Catch8TestCaseELi0EEEvPT_, symObjAddr: 0xF03BC, symBinAddr: 0x1000F14F8, symSize: 0x24 }
  - { offsetInCU: 0xA7A6A, offset: 0xA7A6A, size: 0x8, addend: 0x0, symName: __ZNSt3__112__destroy_atB8ue170006IN5Catch8TestCaseELi0EEEvPT_, symObjAddr: 0xF03E0, symBinAddr: 0x1000F151C, symSize: 0x24 }
  - { offsetInCU: 0xA7AA4, offset: 0xA7AA4, size: 0x8, addend: 0x0, symName: __ZNSt3__1eqB8ue170006IPKNS_12basic_stringIcNS_11char_traitsIcEENS_9allocatorIcEEEEEEbRKNS_11__wrap_iterIT_EESD_, symObjAddr: 0xF0848, symBinAddr: 0x1000F1984, symSize: 0x48 }
  - { offsetInCU: 0xA7B20, offset: 0xA7B20, size: 0x8, addend: 0x0, symName: __ZNSt3__1neB8ue170006IPKN5Catch5clara8TextFlow6ColumnEEEbRKNS_11__wrap_iterIT_EESB_, symObjAddr: 0xF3800, symBinAddr: 0x1000F493C, symSize: 0x34 }
  - { offsetInCU: 0xA7B66, offset: 0xA7B66, size: 0x8, addend: 0x0, symName: __ZNSt3__119__allocate_at_leastB8ue170006INS_9allocatorIN5Catch5clara8TextFlow6Column8iteratorEEEEENS_19__allocation_resultINS_16allocator_traitsIT_E7pointerEEERSA_m, symObjAddr: 0xF4F54, symBinAddr: 0x1000F6090, symSize: 0x28C }
  - { offsetInCU: 0xA7BAD, offset: 0xA7BAD, size: 0x8, addend: 0x0, symName: __ZNSt3__142__uninitialized_allocator_move_if_noexceptB8ue170006INS_9allocatorIN5Catch5clara8TextFlow6Column8iteratorEEENS_16reverse_iteratorIPS6_EESA_SA_EET2_RT_T0_T1_SB_, symObjAddr: 0xF54F0, symBinAddr: 0x1000F662C, symSize: 0x544 }
  - { offsetInCU: 0xA7C63, offset: 0xA7C63, size: 0x8, addend: 0x0, symName: __ZNSt3__14swapB8ue170006IPN5Catch5clara8TextFlow6Column8iteratorEEENS_9enable_ifIXaasr21is_move_constructibleIT_EE5valuesr18is_move_assignableIS8_EE5valueEvE4typeERS8_SB_, symObjAddr: 0xF5ACC, symBinAddr: 0x1000F6C08, symSize: 0x134 }
  - { offsetInCU: 0xA7CB8, offset: 0xA7CB8, size: 0x8, addend: 0x0, symName: __ZNSt3__112__to_addressB8ue170006IN5Catch5clara8TextFlow6Column8iteratorEEEPT_S7_, symObjAddr: 0xF5DC0, symBinAddr: 0x1000F6EFC, symSize: 0x14 }
  - { offsetInCU: 0xA7CEF, offset: 0xA7CEF, size: 0x8, addend: 0x0, symName: __ZNSt3__122__make_exception_guardB8ue170006INS_29_AllocatorDestroyRangeReverseINS_9allocatorIN5Catch5clara8TextFlow6Column8iteratorEEENS_16reverse_iteratorIPS7_EEEEEENS_28__exception_guard_exceptionsIT_EESE_, symObjAddr: 0xF5DD4, symBinAddr: 0x1000F6F10, symSize: 0x1F8 }
  - { offsetInCU: 0xA7D28, offset: 0xA7D28, size: 0x8, addend: 0x0, symName: __ZNSt3__1neB8ue170006IPN5Catch5clara8TextFlow6Column8iteratorES6_EEbRKNS_16reverse_iteratorIT_EERKNS7_IT0_EE, symObjAddr: 0xF6010, symBinAddr: 0x1000F714C, symSize: 0x48 }
  - { offsetInCU: 0xA7D77, offset: 0xA7D77, size: 0x8, addend: 0x0, symName: __ZNSt3__112__to_addressB8ue170006INS_16reverse_iteratorIPN5Catch5clara8TextFlow6Column8iteratorEEEvEEu7__decayIDTclsr19__to_address_helperIT_EE6__callclsr3stdE7declvalIRKS9_EEEEESB_, symObjAddr: 0xF6088, symBinAddr: 0x1000F71C4, symSize: 0x24 }
  - { offsetInCU: 0xA7DD6, offset: 0xA7DD6, size: 0x8, addend: 0x0, symName: __ZNSt3__112construct_atB8ue170006IN5Catch5clara8TextFlow6Column8iteratorEJS5_EPS5_EEPT_S8_DpOT0_, symObjAddr: 0xF6420, symBinAddr: 0x1000F755C, symSize: 0x40 }
  - { offsetInCU: 0xA7E79, offset: 0xA7E79, size: 0x8, addend: 0x0, symName: __ZNSt3__14prevB8ue170006IPN5Catch5clara8TextFlow6Column8iteratorEEENS_9enable_ifIXsr29__has_input_iterator_categoryIT_EE5valueES8_E4typeES8_NS_15iterator_traitsIS8_E15difference_typeE, symObjAddr: 0xF6510, symBinAddr: 0x1000F764C, symSize: 0x240 }
  - { offsetInCU: 0xA7EC4, offset: 0xA7EC4, size: 0x8, addend: 0x0, symName: __ZNSt3__19__advanceB8ue170006IPN5Catch5clara8TextFlow6Column8iteratorEEEvRT_NS_15iterator_traitsIS7_E15difference_typeENS_26random_access_iterator_tagE, symObjAddr: 0xF6788, symBinAddr: 0x1000F78C4, symSize: 0x80 }
  - { offsetInCU: 0xA7F10, offset: 0xA7F10, size: 0x8, addend: 0x0, symName: __ZNSt3__119__allocator_destroyB8ue170006INS_9allocatorIN5Catch5clara8TextFlow6Column8iteratorEEENS_16reverse_iteratorINS8_IPS6_EEEESB_EEvRT_T0_T1_, symObjAddr: 0xF6C6C, symBinAddr: 0x1000F7DA8, symSize: 0x70 }
  - { offsetInCU: 0xA7F76, offset: 0xA7F76, size: 0x8, addend: 0x0, symName: __ZNSt3__1neB8ue170006INS_16reverse_iteratorIPN5Catch5clara8TextFlow6Column8iteratorEEES8_EEbRKNS1_IT_EERKNS1_IT0_EE, symObjAddr: 0xF6F24, symBinAddr: 0x1000F8060, symSize: 0x2CC }
  - { offsetInCU: 0xA7FC7, offset: 0xA7FC7, size: 0x8, addend: 0x0, symName: __ZNSt3__112__to_addressB8ue170006INS_16reverse_iteratorINS1_IPN5Catch5clara8TextFlow6Column8iteratorEEEEEvEEu7__decayIDTclsr19__to_address_helperIT_EE6__callclsr3stdE7declvalIRKSA_EEEEESC_, symObjAddr: 0xF7218, symBinAddr: 0x1000F8354, symSize: 0x24 }
  - { offsetInCU: 0xA7FFF, offset: 0xA7FFF, size: 0x8, addend: 0x0, symName: __ZNSt3__110destroy_atB8ue170006IN5Catch5clara8TextFlow6Column8iteratorELi0EEEvPT_, symObjAddr: 0xF7478, symBinAddr: 0x1000F85B4, symSize: 0x24 }
  - { offsetInCU: 0xA8039, offset: 0xA8039, size: 0x8, addend: 0x0, symName: __ZNSt3__112__destroy_atB8ue170006IN5Catch5clara8TextFlow6Column8iteratorELi0EEEvPT_, symObjAddr: 0xF749C, symBinAddr: 0x1000F85D8, symSize: 0x10 }
  - { offsetInCU: 0xA809E, offset: 0xA809E, size: 0x8, addend: 0x0, symName: __ZNSt3__14prevB8ue170006INS_16reverse_iteratorIPN5Catch5clara8TextFlow6Column8iteratorEEEEENS_9enable_ifIXsr29__has_input_iterator_categoryIT_EE5valueESA_E4typeESA_NS_15iterator_traitsISA_E15difference_typeE, symObjAddr: 0xF7790, symBinAddr: 0x1000F88CC, symSize: 0x294 }
  - { offsetInCU: 0xA80E9, offset: 0xA80E9, size: 0x8, addend: 0x0, symName: __ZNSt3__19__advanceB8ue170006INS_16reverse_iteratorIPN5Catch5clara8TextFlow6Column8iteratorEEEEEvRT_NS_15iterator_traitsIS9_E15difference_typeENS_26random_access_iterator_tagE, symObjAddr: 0xF7A5C, symBinAddr: 0x1000F8B98, symSize: 0x2C }
  - { offsetInCU: 0xA8136, offset: 0xA8136, size: 0x8, addend: 0x0, symName: __ZNSt3__1eqB8ue170006IPKN5Catch5clara8TextFlow6ColumnEEEbRKNS_11__wrap_iterIT_EESB_, symObjAddr: 0xF8550, symBinAddr: 0x1000F968C, symSize: 0x48 }
  - { offsetInCU: 0xA817B, offset: 0xA817B, size: 0x8, addend: 0x0, symName: __ZNSt3__1eqB8ue170006IN5Catch5clara8TextFlow6Column8iteratorENS_9allocatorIS5_EEEEbRKNS_6vectorIT_T0_EESD_, symObjAddr: 0xFA334, symBinAddr: 0x1000FB470, symSize: 0x3FC }
  - { offsetInCU: 0xA81DD, offset: 0xA81DD, size: 0x8, addend: 0x0, symName: __ZNSt3__15equalB8ue170006INS_11__wrap_iterIPKN5Catch5clara8TextFlow6Column8iteratorEEES9_EEbT_SA_T0_, symObjAddr: 0xFA730, symBinAddr: 0x1000FB86C, symSize: 0x40C }
  - { offsetInCU: 0xA8247, offset: 0xA8247, size: 0x8, addend: 0x0, symName: __ZNSt3__15equalB8ue170006INS_11__wrap_iterIPKN5Catch5clara8TextFlow6Column8iteratorEEES9_NS_10__equal_toEEEbT_SB_T0_T1_, symObjAddr: 0xFB010, symBinAddr: 0x1000FC14C, symSize: 0x44C }
  - { offsetInCU: 0xA82CE, offset: 0xA82CE, size: 0x8, addend: 0x0, symName: __ZNSt3__117__equal_iter_implB8ue170006IPKN5Catch5clara8TextFlow6Column8iteratorES7_NS_10__equal_toEEEbT_S9_T0_RT1_, symObjAddr: 0xFB45C, symBinAddr: 0x1000FC598, symSize: 0xAC }
  - { offsetInCU: 0xA8344, offset: 0xA8344, size: 0x8, addend: 0x0, symName: __ZNSt3__113__unwrap_iterB8ue170006INS_11__wrap_iterIPKN5Catch5clara8TextFlow6Column8iteratorEEENS_18__unwrap_iter_implIS9_Lb1EEELi0EEEDTclsrT0_8__unwrapclsr3stdE7declvalIT_EEEESD_, symObjAddr: 0xFB508, symBinAddr: 0x1000FC644, symSize: 0x274 }
  - { offsetInCU: 0xA8488, offset: 0xA8488, size: 0x8, addend: 0x0, symName: __ZNSt3__112__to_addressB8ue170006INS_11__wrap_iterIPKN5Catch5clara8TextFlow6Column8iteratorEEEvEEu7__decayIDTclsr19__to_address_helperIT_EE6__callclsr3stdE7declvalIRKSA_EEEEESC_, symObjAddr: 0xFB9A0, symBinAddr: 0x1000FCADC, symSize: 0x24 }
  - { offsetInCU: 0xA856F, offset: 0xA856F, size: 0x8, addend: 0x0, symName: __ZNSt3__112__to_addressB8ue170006IKN5Catch5clara8TextFlow6Column8iteratorEEEPT_S8_, symObjAddr: 0xFBDB8, symBinAddr: 0x1000FCEF4, symSize: 0x14 }
  - { offsetInCU: 0xA85A5, offset: 0xA85A5, size: 0x8, addend: 0x0, symName: __ZNSt3__1plB8ue170006IcNS_11char_traitsIcEENS_9allocatorIcEEEENS_12basic_stringIT_T0_T1_EERKS9_SB_, symObjAddr: 0xFC218, symBinAddr: 0x1000FD354, symSize: 0x2F8 }
  - { offsetInCU: 0xA864D, offset: 0xA864D, size: 0x8, addend: 0x0, symName: __ZNSt3__112__to_addressB8ue170006IcEEPT_S2_, symObjAddr: 0xFC580, symBinAddr: 0x1000FD6BC, symSize: 0x14 }
  - { offsetInCU: 0xA8684, offset: 0xA8684, size: 0x8, addend: 0x0, symName: __ZNSt3__14copyB8ue170006IPKcPcEET0_T_S5_S4_, symObjAddr: 0xFD110, symBinAddr: 0x1000FE24C, symSize: 0x26C }
  - { offsetInCU: 0xA86E5, offset: 0xA86E5, size: 0x8, addend: 0x0, symName: __ZNSt3__16__copyB8ue170006INS_17_ClassicAlgPolicyEPKcS3_PcEENS_4pairIT0_T2_EES6_T1_S7_, symObjAddr: 0xFD37C, symBinAddr: 0x1000FE4B8, symSize: 0x22C }
  - { offsetInCU: 0xA8758, offset: 0xA8758, size: 0x8, addend: 0x0, symName: __ZNSt3__123__dispatch_copy_or_moveB8ue170006INS_17_ClassicAlgPolicyENS_11__copy_loopIS1_EENS_14__copy_trivialEPKcS6_PcEENS_4pairIT2_T4_EES9_T3_SA_, symObjAddr: 0xFD5A8, symBinAddr: 0x1000FE6E4, symSize: 0x22C }
  - { offsetInCU: 0xA87DD, offset: 0xA87DD, size: 0x8, addend: 0x0, symName: __ZNSt3__121__unwrap_and_dispatchB8ue170006INS_10__overloadINS_11__copy_loopINS_17_ClassicAlgPolicyEEENS_14__copy_trivialEEEPKcS8_PcLi0EEENS_4pairIT0_T2_EESB_T1_SC_, symObjAddr: 0xFD7D4, symBinAddr: 0x1000FE910, symSize: 0x5A4 }
  - { offsetInCU: 0xA887D, offset: 0xA887D, size: 0x8, addend: 0x0, symName: __ZNSt3__114__unwrap_rangeB8ue170006IPKcS2_EEDaT_T0_, symObjAddr: 0xFDD78, symBinAddr: 0x1000FEEB4, symSize: 0x224 }
  - { offsetInCU: 0xA8A61, offset: 0xA8A61, size: 0x8, addend: 0x0, symName: __ZNSt3__113__unwrap_iterB8ue170006IPcNS_18__unwrap_iter_implIS1_Lb1EEELi0EEEDTclsrT0_8__unwrapclsr3stdE7declvalIT_EEEES5_, symObjAddr: 0xFE1CC, symBinAddr: 0x1000FF308, symSize: 0x24 }
  - { offsetInCU: 0xA8AA7, offset: 0xA8AA7, size: 0x8, addend: 0x0, symName: __ZNSt3__19make_pairB8ue170006IPKcPcEENS_4pairINS_18__unwrap_ref_decayIT_E4typeENS5_IT0_E4typeEEEOS6_OS9_, symObjAddr: 0xFE1F0, symBinAddr: 0x1000FF32C, symSize: 0x20C }
  - { offsetInCU: 0xA8AF9, offset: 0xA8AF9, size: 0x8, addend: 0x0, symName: __ZNSt3__114__rewrap_rangeB8ue170006IPKcS2_S2_EET0_S3_T1_, symObjAddr: 0xFE3FC, symBinAddr: 0x1000FF538, symSize: 0x2C }
  - { offsetInCU: 0xA8B51, offset: 0xA8B51, size: 0x8, addend: 0x0, symName: __ZNSt3__113__rewrap_iterB8ue170006IPcS1_NS_18__unwrap_iter_implIS1_Lb1EEEEET_S4_T0_, symObjAddr: 0xFE428, symBinAddr: 0x1000FF564, symSize: 0x48 }
  - { offsetInCU: 0xA8BFC, offset: 0xA8BFC, size: 0x8, addend: 0x0, symName: __ZNSt3__113__unwrap_iterB8ue170006IPKcNS_18__unwrap_iter_implIS2_Lb1EEELi0EEEDTclsrT0_8__unwrapclsr3stdE7declvalIT_EEEES6_, symObjAddr: 0xFE77C, symBinAddr: 0x1000FF8B8, symSize: 0x24 }
  - { offsetInCU: 0xA8C9B, offset: 0xA8C9B, size: 0x8, addend: 0x0, symName: __ZNSt3__119__copy_trivial_implB8ue170006IKccEENS_4pairIPT_PT0_EES4_S4_S6_, symObjAddr: 0xFE938, symBinAddr: 0x1000FFA74, symSize: 0x3AC }
  - { offsetInCU: 0xA8D0F, offset: 0xA8D0F, size: 0x8, addend: 0x0, symName: __ZNSt3__119__constexpr_memmoveB8ue170006IcKcLi0EEEPT_S3_PT0_NS_15__element_countE, symObjAddr: 0xFECE4, symBinAddr: 0x1000FFE20, symSize: 0x64 }
  - { offsetInCU: 0xA8D82, offset: 0xA8D82, size: 0x8, addend: 0x0, symName: __ZNSt3__19make_pairB8ue170006IRPKcPcEENS_4pairINS_18__unwrap_ref_decayIT_E4typeENS6_IT0_E4typeEEEOS7_OSA_, symObjAddr: 0xFED48, symBinAddr: 0x1000FFE84, symSize: 0x20C }
  - { offsetInCU: 0xA8E2C, offset: 0xA8E2C, size: 0x8, addend: 0x0, symName: __ZNSt3__113__rewrap_iterB8ue170006IPKcS2_NS_18__unwrap_iter_implIS2_Lb1EEEEET_S5_T0_, symObjAddr: 0xFF28C, symBinAddr: 0x1001003C8, symSize: 0x48 }
  - { offsetInCU: 0xA8E84, offset: 0xA8E84, size: 0x8, addend: 0x0, symName: __ZNSt3__16fill_nB8ue170006IPcmcEET_S2_T0_RKT1_, symObjAddr: 0xFF364, symBinAddr: 0x1001004A0, symSize: 0x44 }
  - { offsetInCU: 0xA8EEB, offset: 0xA8EEB, size: 0x8, addend: 0x0, symName: __ZNSt3__18__fill_nB8ue170006IPcmcEET_S2_T0_RKT1_, symObjAddr: 0xFF3A8, symBinAddr: 0x1001004E4, symSize: 0x138 }
  - { offsetInCU: 0xA8F52, offset: 0xA8F52, size: 0x8, addend: 0x0, symName: __ZNSt3__121__convert_to_integralB8ue170006Em, symObjAddr: 0xFF4E0, symBinAddr: 0x10010061C, symSize: 0x14 }
  - { offsetInCU: 0xA8F80, offset: 0xA8F80, size: 0x8, addend: 0x0, symName: __ZNSt3__112__to_addressB8ue170006IN5Catch5clara8TextFlow6ColumnEEEPT_S6_, symObjAddr: 0x100384, symBinAddr: 0x1001014C0, symSize: 0x14 }
  - { offsetInCU: 0xA8FDE, offset: 0xA8FDE, size: 0x8, addend: 0x0, symName: __ZNSt3__112construct_atB8ue170006IN5Catch5clara8TextFlow6ColumnEJRKS4_EPS4_EEPT_S9_DpOT0_, symObjAddr: 0x10086C, symBinAddr: 0x1001019A8, symSize: 0x3C }
  - { offsetInCU: 0xA9056, offset: 0xA9056, size: 0x8, addend: 0x0, symName: __ZNSt3__119__allocate_at_leastB8ue170006INS_9allocatorIN5Catch5clara8TextFlow6ColumnEEEEENS_19__allocation_resultINS_16allocator_traitsIT_E7pointerEEERS9_m, symObjAddr: 0x101EAC, symBinAddr: 0x100102FE8, symSize: 0x28C }
  - { offsetInCU: 0xA909D, offset: 0xA909D, size: 0x8, addend: 0x0, symName: __ZNSt3__142__uninitialized_allocator_move_if_noexceptB8ue170006INS_9allocatorIN5Catch5clara8TextFlow6ColumnEEENS_16reverse_iteratorIPS5_EES9_S9_EET2_RT_T0_T1_SA_, symObjAddr: 0x102434, symBinAddr: 0x100103570, symSize: 0x544 }
  - { offsetInCU: 0xA9153, offset: 0xA9153, size: 0x8, addend: 0x0, symName: __ZNSt3__14swapB8ue170006IPN5Catch5clara8TextFlow6ColumnEEENS_9enable_ifIXaasr21is_move_constructibleIT_EE5valuesr18is_move_assignableIS7_EE5valueEvE4typeERS7_SA_, symObjAddr: 0x102A10, symBinAddr: 0x100103B4C, symSize: 0x134 }
  - { offsetInCU: 0xA91A8, offset: 0xA91A8, size: 0x8, addend: 0x0, symName: __ZNSt3__122__make_exception_guardB8ue170006INS_29_AllocatorDestroyRangeReverseINS_9allocatorIN5Catch5clara8TextFlow6ColumnEEENS_16reverse_iteratorIPS6_EEEEEENS_28__exception_guard_exceptionsIT_EESD_, symObjAddr: 0x102C20, symBinAddr: 0x100103D5C, symSize: 0x1F8 }
  - { offsetInCU: 0xA91E1, offset: 0xA91E1, size: 0x8, addend: 0x0, symName: __ZNSt3__1neB8ue170006IPN5Catch5clara8TextFlow6ColumnES5_EEbRKNS_16reverse_iteratorIT_EERKNS6_IT0_EE, symObjAddr: 0x102E5C, symBinAddr: 0x100103F98, symSize: 0x48 }
  - { offsetInCU: 0xA9230, offset: 0xA9230, size: 0x8, addend: 0x0, symName: __ZNSt3__112__to_addressB8ue170006INS_16reverse_iteratorIPN5Catch5clara8TextFlow6ColumnEEEvEEu7__decayIDTclsr19__to_address_helperIT_EE6__callclsr3stdE7declvalIRKS8_EEEEESA_, symObjAddr: 0x102ED4, symBinAddr: 0x100104010, symSize: 0x24 }
  - { offsetInCU: 0xA9268, offset: 0xA9268, size: 0x8, addend: 0x0, symName: __ZNSt3__112construct_atB8ue170006IN5Catch5clara8TextFlow6ColumnEJS4_EPS4_EEPT_S7_DpOT0_, symObjAddr: 0x10326C, symBinAddr: 0x1001043A8, symSize: 0x3C }
  - { offsetInCU: 0xA930B, offset: 0xA930B, size: 0x8, addend: 0x0, symName: __ZNSt3__14prevB8ue170006IPN5Catch5clara8TextFlow6ColumnEEENS_9enable_ifIXsr29__has_input_iterator_categoryIT_EE5valueES7_E4typeES7_NS_15iterator_traitsIS7_E15difference_typeE, symObjAddr: 0x103ABC, symBinAddr: 0x100104BF8, symSize: 0x240 }
  - { offsetInCU: 0xA9356, offset: 0xA9356, size: 0x8, addend: 0x0, symName: __ZNSt3__19__advanceB8ue170006IPN5Catch5clara8TextFlow6ColumnEEEvRT_NS_15iterator_traitsIS6_E15difference_typeENS_26random_access_iterator_tagE, symObjAddr: 0x103D34, symBinAddr: 0x100104E70, symSize: 0x80 }
  - { offsetInCU: 0xA93A2, offset: 0xA93A2, size: 0x8, addend: 0x0, symName: __ZNSt3__119__allocator_destroyB8ue170006INS_9allocatorIN5Catch5clara8TextFlow6ColumnEEENS_16reverse_iteratorINS7_IPS5_EEEESA_EEvRT_T0_T1_, symObjAddr: 0x104218, symBinAddr: 0x100105354, symSize: 0x70 }
  - { offsetInCU: 0xA9408, offset: 0xA9408, size: 0x8, addend: 0x0, symName: __ZNSt3__1neB8ue170006INS_16reverse_iteratorIPN5Catch5clara8TextFlow6ColumnEEES7_EEbRKNS1_IT_EERKNS1_IT0_EE, symObjAddr: 0x1044D0, symBinAddr: 0x10010560C, symSize: 0x2CC }
  - { offsetInCU: 0xA9459, offset: 0xA9459, size: 0x8, addend: 0x0, symName: __ZNSt3__112__to_addressB8ue170006INS_16reverse_iteratorINS1_IPN5Catch5clara8TextFlow6ColumnEEEEEvEEu7__decayIDTclsr19__to_address_helperIT_EE6__callclsr3stdE7declvalIRKS9_EEEEESB_, symObjAddr: 0x1047C4, symBinAddr: 0x100105900, symSize: 0x24 }
  - { offsetInCU: 0xA9491, offset: 0xA9491, size: 0x8, addend: 0x0, symName: __ZNSt3__110destroy_atB8ue170006IN5Catch5clara8TextFlow6ColumnELi0EEEvPT_, symObjAddr: 0x104A24, symBinAddr: 0x100105B60, symSize: 0x24 }
  - { offsetInCU: 0xA94CB, offset: 0xA94CB, size: 0x8, addend: 0x0, symName: __ZNSt3__112__destroy_atB8ue170006IN5Catch5clara8TextFlow6ColumnELi0EEEvPT_, symObjAddr: 0x104A48, symBinAddr: 0x100105B84, symSize: 0x24 }
  - { offsetInCU: 0xA9530, offset: 0xA9530, size: 0x8, addend: 0x0, symName: __ZNSt3__14prevB8ue170006INS_16reverse_iteratorIPN5Catch5clara8TextFlow6ColumnEEEEENS_9enable_ifIXsr29__has_input_iterator_categoryIT_EE5valueES9_E4typeES9_NS_15iterator_traitsIS9_E15difference_typeE, symObjAddr: 0x104D50, symBinAddr: 0x100105E8C, symSize: 0x294 }
  - { offsetInCU: 0xA957B, offset: 0xA957B, size: 0x8, addend: 0x0, symName: __ZNSt3__19__advanceB8ue170006INS_16reverse_iteratorIPN5Catch5clara8TextFlow6ColumnEEEEEvRT_NS_15iterator_traitsIS8_E15difference_typeENS_26random_access_iterator_tagE, symObjAddr: 0x10501C, symBinAddr: 0x100106158, symSize: 0x2C }
  - { offsetInCU: 0xA95C7, offset: 0xA95C7, size: 0x8, addend: 0x0, symName: __ZNSt3__1eqB8ue170006IcNS_11char_traitsIcEEEEbNS_17basic_string_viewIT_T0_EES6_, symObjAddr: 0x105EE0, symBinAddr: 0x10010701C, symSize: 0x348 }
  - { offsetInCU: 0xA961E, offset: 0xA961E, size: 0x8, addend: 0x0, symName: __ZNSt3__128__char_traits_length_checkedB8ue170006INS_11char_traitsIcEEEEmPKNT_9char_typeE, symObjAddr: 0x106B38, symBinAddr: 0x100107C74, symSize: 0x24 }
  - { offsetInCU: 0xA9656, offset: 0xA9656, size: 0x8, addend: 0x0, symName: __ZNSt3__13maxB8ue170006IdNS_6__lessIvvEEEERKT_S5_S5_T0_, symObjAddr: 0x107390, symBinAddr: 0x1001084CC, symSize: 0x1E8 }
  - { offsetInCU: 0xA96BA, offset: 0xA96BA, size: 0x8, addend: 0x0, symName: __ZNSt3__112construct_atB8ue170006IN5Catch11MessageInfoEJRNS1_9StringRefERKNS1_14SourceLineInfoERNS1_9ResultWas6OfTypeEEPS2_EEPT_SD_DpOT0_, symObjAddr: 0x108678, symBinAddr: 0x1001097B4, symSize: 0xC8 }
  - { offsetInCU: 0xA975B, offset: 0xA975B, size: 0x8, addend: 0x0, symName: __ZNSt3__1neB8ue170006ERKNS_16__deque_iteratorIcPcRcPS1_lLl4096EEES6_, symObjAddr: 0x109778, symBinAddr: 0x10010A8B4, symSize: 0x34 }
  - { offsetInCU: 0xA9798, offset: 0xA9798, size: 0x8, addend: 0x0, symName: __ZNSt3__1eqB8ue170006ERKNS_16__deque_iteratorIcPcRcPS1_lLl4096EEES6_, symObjAddr: 0x109F78, symBinAddr: 0x10010B0B4, symSize: 0xC0 }
  - { offsetInCU: 0xA97D6, offset: 0xA97D6, size: 0x8, addend: 0x0, symName: __ZNSt3__110destroy_atB8ue170006IcLi0EEEvPT_, symObjAddr: 0x10A038, symBinAddr: 0x10010B174, symSize: 0x24 }
  - { offsetInCU: 0xA9810, offset: 0xA9810, size: 0x8, addend: 0x0, symName: __ZNSt3__112__destroy_atB8ue170006IcLi0EEEvPT_, symObjAddr: 0x10A05C, symBinAddr: 0x10010B198, symSize: 0x10 }
  - { offsetInCU: 0xA984A, offset: 0xA984A, size: 0x8, addend: 0x0, symName: __ZNSt3__112__to_addressB8ue170006IPcEEPT_S3_, symObjAddr: 0x10AE74, symBinAddr: 0x10010BFB0, symSize: 0x14 }
  - { offsetInCU: 0xA9881, offset: 0xA9881, size: 0x8, addend: 0x0, symName: __ZNSt3__110destroy_atB8ue170006IPcLi0EEEvPT_, symObjAddr: 0x10AE88, symBinAddr: 0x10010BFC4, symSize: 0x24 }
  - { offsetInCU: 0xA98BB, offset: 0xA98BB, size: 0x8, addend: 0x0, symName: __ZNSt3__112__destroy_atB8ue170006IPcLi0EEEvPT_, symObjAddr: 0x10AEAC, symBinAddr: 0x10010BFE8, symSize: 0x10 }
  - { offsetInCU: 0xA98F5, offset: 0xA98F5, size: 0x8, addend: 0x0, symName: __ZNSt3__112__to_addressB8ue170006INS_10shared_ptrIN5Catch16IReporterFactoryEEEEEPT_S6_, symObjAddr: 0x10B864, symBinAddr: 0x10010C9A0, symSize: 0x14 }
  - { offsetInCU: 0xA992C, offset: 0xA992C, size: 0x8, addend: 0x0, symName: __ZNSt3__110destroy_atB8ue170006INS_10shared_ptrIN5Catch16IReporterFactoryEEELi0EEEvPT_, symObjAddr: 0x10B878, symBinAddr: 0x10010C9B4, symSize: 0x24 }
  - { offsetInCU: 0xA9966, offset: 0xA9966, size: 0x8, addend: 0x0, symName: __ZNSt3__112__destroy_atB8ue170006INS_10shared_ptrIN5Catch16IReporterFactoryEEELi0EEEvPT_, symObjAddr: 0x10B89C, symBinAddr: 0x10010C9D8, symSize: 0x24 }
  - { offsetInCU: 0xA99C7, offset: 0xA99C7, size: 0x8, addend: 0x0, symName: __ZNSt3__112construct_atB8ue170006INS_10shared_ptrIN5Catch16IReporterFactoryEEEJRKS4_EPS4_EEPT_S9_DpOT0_, symObjAddr: 0x10C9F0, symBinAddr: 0x10010DB2C, symSize: 0x3C }
  - { offsetInCU: 0xA9A3F, offset: 0xA9A3F, size: 0x8, addend: 0x0, symName: __ZNSt3__119__allocate_at_leastB8ue170006INS_9allocatorINS_10shared_ptrIN5Catch16IReporterFactoryEEEEEEENS_19__allocation_resultINS_16allocator_traitsIT_E7pointerEEERS9_m, symObjAddr: 0x10E1CC, symBinAddr: 0x10010F308, symSize: 0x28C }
  - { offsetInCU: 0xA9A86, offset: 0xA9A86, size: 0x8, addend: 0x0, symName: __ZNSt3__142__uninitialized_allocator_move_if_noexceptB8ue170006INS_9allocatorINS_10shared_ptrIN5Catch16IReporterFactoryEEEEENS_16reverse_iteratorIPS5_EES9_S9_EET2_RT_T0_T1_SA_, symObjAddr: 0x10E6CC, symBinAddr: 0x10010F808, symSize: 0x544 }
  - { offsetInCU: 0xA9B3C, offset: 0xA9B3C, size: 0x8, addend: 0x0, symName: __ZNSt3__14swapB8ue170006IPNS_10shared_ptrIN5Catch16IReporterFactoryEEEEENS_9enable_ifIXaasr21is_move_constructibleIT_EE5valuesr18is_move_assignableIS7_EE5valueEvE4typeERS7_SA_, symObjAddr: 0x10ECA8, symBinAddr: 0x10010FDE4, symSize: 0x134 }
  - { offsetInCU: 0xA9B91, offset: 0xA9B91, size: 0x8, addend: 0x0, symName: __ZNSt3__122__make_exception_guardB8ue170006INS_29_AllocatorDestroyRangeReverseINS_9allocatorINS_10shared_ptrIN5Catch16IReporterFactoryEEEEENS_16reverse_iteratorIPS6_EEEEEENS_28__exception_guard_exceptionsIT_EESD_, symObjAddr: 0x10EE9C, symBinAddr: 0x10010FFD8, symSize: 0x1F8 }
  - { offsetInCU: 0xA9BCA, offset: 0xA9BCA, size: 0x8, addend: 0x0, symName: __ZNSt3__1neB8ue170006IPNS_10shared_ptrIN5Catch16IReporterFactoryEEES5_EEbRKNS_16reverse_iteratorIT_EERKNS6_IT0_EE, symObjAddr: 0x10F0D8, symBinAddr: 0x100110214, symSize: 0x48 }
  - { offsetInCU: 0xA9C19, offset: 0xA9C19, size: 0x8, addend: 0x0, symName: __ZNSt3__112__to_addressB8ue170006INS_16reverse_iteratorIPNS_10shared_ptrIN5Catch16IReporterFactoryEEEEEvEEu7__decayIDTclsr19__to_address_helperIT_EE6__callclsr3stdE7declvalIRKS8_EEEEESA_, symObjAddr: 0x10F150, symBinAddr: 0x10011028C, symSize: 0x24 }
  - { offsetInCU: 0xA9C51, offset: 0xA9C51, size: 0x8, addend: 0x0, symName: __ZNSt3__112construct_atB8ue170006INS_10shared_ptrIN5Catch16IReporterFactoryEEEJS4_EPS4_EEPT_S7_DpOT0_, symObjAddr: 0x10F4E8, symBinAddr: 0x100110624, symSize: 0x3C }
  - { offsetInCU: 0xA9CF4, offset: 0xA9CF4, size: 0x8, addend: 0x0, symName: __ZNSt3__14prevB8ue170006IPNS_10shared_ptrIN5Catch16IReporterFactoryEEEEENS_9enable_ifIXsr29__has_input_iterator_categoryIT_EE5valueES7_E4typeES7_NS_15iterator_traitsIS7_E15difference_typeE, symObjAddr: 0x10F7C0, symBinAddr: 0x1001108FC, symSize: 0x240 }
  - { offsetInCU: 0xA9D3F, offset: 0xA9D3F, size: 0x8, addend: 0x0, symName: __ZNSt3__19__advanceB8ue170006IPNS_10shared_ptrIN5Catch16IReporterFactoryEEEEEvRT_NS_15iterator_traitsIS6_E15difference_typeENS_26random_access_iterator_tagE, symObjAddr: 0x10FA38, symBinAddr: 0x100110B74, symSize: 0x78 }
  - { offsetInCU: 0xA9D8B, offset: 0xA9D8B, size: 0x8, addend: 0x0, symName: __ZNSt3__119__allocator_destroyB8ue170006INS_9allocatorINS_10shared_ptrIN5Catch16IReporterFactoryEEEEENS_16reverse_iteratorINS7_IPS5_EEEESA_EEvRT_T0_T1_, symObjAddr: 0x10FF14, symBinAddr: 0x100111050, symSize: 0x70 }
  - { offsetInCU: 0xA9DF1, offset: 0xA9DF1, size: 0x8, addend: 0x0, symName: __ZNSt3__1neB8ue170006INS_16reverse_iteratorIPNS_10shared_ptrIN5Catch16IReporterFactoryEEEEES7_EEbRKNS1_IT_EERKNS1_IT0_EE, symObjAddr: 0x1101CC, symBinAddr: 0x100111308, symSize: 0x2CC }
  - { offsetInCU: 0xA9E42, offset: 0xA9E42, size: 0x8, addend: 0x0, symName: __ZNSt3__112__to_addressB8ue170006INS_16reverse_iteratorINS1_IPNS_10shared_ptrIN5Catch16IReporterFactoryEEEEEEEvEEu7__decayIDTclsr19__to_address_helperIT_EE6__callclsr3stdE7declvalIRKS9_EEEEESB_, symObjAddr: 0x110498, symBinAddr: 0x1001115D4, symSize: 0x24 }
  - { offsetInCU: 0xA9EA5, offset: 0xA9EA5, size: 0x8, addend: 0x0, symName: __ZNSt3__14prevB8ue170006INS_16reverse_iteratorIPNS_10shared_ptrIN5Catch16IReporterFactoryEEEEEEENS_9enable_ifIXsr29__has_input_iterator_categoryIT_EE5valueES9_E4typeES9_NS_15iterator_traitsIS9_E15difference_typeE, symObjAddr: 0x1109DC, symBinAddr: 0x100111B18, symSize: 0x294 }
  - { offsetInCU: 0xA9EF0, offset: 0xA9EF0, size: 0x8, addend: 0x0, symName: __ZNSt3__19__advanceB8ue170006INS_16reverse_iteratorIPNS_10shared_ptrIN5Catch16IReporterFactoryEEEEEEEvRT_NS_15iterator_traitsIS8_E15difference_typeENS_26random_access_iterator_tagE, symObjAddr: 0x110CA8, symBinAddr: 0x100111DE4, symSize: 0x2C }
  - { offsetInCU: 0xA9F3D, offset: 0xA9F3D, size: 0x8, addend: 0x0, symName: __ZNSt3__112__to_addressB8ue170006INS_10shared_ptrIN5Catch16TestCaseTracking8ITrackerEEEEEPT_S7_, symObjAddr: 0x111CC8, symBinAddr: 0x100112E04, symSize: 0x14 }
  - { offsetInCU: 0xA9F74, offset: 0xA9F74, size: 0x8, addend: 0x0, symName: __ZNSt3__110destroy_atB8ue170006INS_10shared_ptrIN5Catch16TestCaseTracking8ITrackerEEELi0EEEvPT_, symObjAddr: 0x111CDC, symBinAddr: 0x100112E18, symSize: 0x24 }
  - { offsetInCU: 0xA9FAE, offset: 0xA9FAE, size: 0x8, addend: 0x0, symName: __ZNSt3__112__destroy_atB8ue170006INS_10shared_ptrIN5Catch16TestCaseTracking8ITrackerEEELi0EEEvPT_, symObjAddr: 0x111D00, symBinAddr: 0x100112E3C, symSize: 0x24 }
  - { offsetInCU: 0xA9FE8, offset: 0xA9FE8, size: 0x8, addend: 0x0, symName: __ZNSt3__112__to_addressB8ue170006IPN5Catch16TestCaseTracking8ITrackerEEEPT_S6_, symObjAddr: 0x1136C4, symBinAddr: 0x100114800, symSize: 0x14 }
  - { offsetInCU: 0xAA01F, offset: 0xAA01F, size: 0x8, addend: 0x0, symName: __ZNSt3__110destroy_atB8ue170006IPN5Catch16TestCaseTracking8ITrackerELi0EEEvPT_, symObjAddr: 0x1136D8, symBinAddr: 0x100114814, symSize: 0x24 }
  - { offsetInCU: 0xAA059, offset: 0xAA059, size: 0x8, addend: 0x0, symName: __ZNSt3__112__destroy_atB8ue170006IPN5Catch16TestCaseTracking8ITrackerELi0EEEvPT_, symObjAddr: 0x1136FC, symBinAddr: 0x100114838, symSize: 0x10 }
  - { offsetInCU: 0xAA093, offset: 0xAA093, size: 0x8, addend: 0x0, symName: __ZNSt3__112__to_addressB8ue170006IN5Catch14SectionEndInfoEEEPT_S4_, symObjAddr: 0x1141C0, symBinAddr: 0x1001152FC, symSize: 0x14 }
  - { offsetInCU: 0xAA0CA, offset: 0xAA0CA, size: 0x8, addend: 0x0, symName: __ZNSt3__110destroy_atB8ue170006IN5Catch14SectionEndInfoELi0EEEvPT_, symObjAddr: 0x1141D4, symBinAddr: 0x100115310, symSize: 0x24 }
  - { offsetInCU: 0xAA104, offset: 0xAA104, size: 0x8, addend: 0x0, symName: __ZNSt3__112__destroy_atB8ue170006IN5Catch14SectionEndInfoELi0EEEvPT_, symObjAddr: 0x1141F8, symBinAddr: 0x100115334, symSize: 0x24 }
  - { offsetInCU: 0xAA13E, offset: 0xAA13E, size: 0x8, addend: 0x0, symName: __ZNSt3__112__to_addressB8ue170006IN5Catch13ScopedMessageEEEPT_S4_, symObjAddr: 0x114CD4, symBinAddr: 0x100115E10, symSize: 0x14 }
  - { offsetInCU: 0xAA175, offset: 0xAA175, size: 0x8, addend: 0x0, symName: __ZNSt3__110destroy_atB8ue170006IN5Catch13ScopedMessageELi0EEEvPT_, symObjAddr: 0x114CE8, symBinAddr: 0x100115E24, symSize: 0x24 }
  - { offsetInCU: 0xAA1AF, offset: 0xAA1AF, size: 0x8, addend: 0x0, symName: __ZNSt3__112__destroy_atB8ue170006IN5Catch13ScopedMessageELi0EEEvPT_, symObjAddr: 0x114D0C, symBinAddr: 0x100115E48, symSize: 0x24 }
  - { offsetInCU: 0xAA210, offset: 0xAA210, size: 0x8, addend: 0x0, symName: __ZNSt3__112construct_atB8ue170006IPN5Catch16TestCaseTracking8ITrackerEJS4_EPS4_EEPT_S7_DpOT0_, symObjAddr: 0x115B60, symBinAddr: 0x100116C9C, symSize: 0xB8 }
  - { offsetInCU: 0xAA288, offset: 0xAA288, size: 0x8, addend: 0x0, symName: __ZNSt3__119__allocate_at_leastB8ue170006INS_9allocatorIPN5Catch16TestCaseTracking8ITrackerEEEEENS_19__allocation_resultINS_16allocator_traitsIT_E7pointerEEERS9_m, symObjAddr: 0x1171B8, symBinAddr: 0x1001182F4, symSize: 0x28C }
  - { offsetInCU: 0xAA2CF, offset: 0xAA2CF, size: 0x8, addend: 0x0, symName: __ZNSt3__142__uninitialized_allocator_move_if_noexceptB8ue170006INS_9allocatorIPN5Catch16TestCaseTracking8ITrackerEEENS_16reverse_iteratorIPS5_EES9_S5_vEET1_RT_T0_SD_SA_, symObjAddr: 0x117654, symBinAddr: 0x100118790, symSize: 0x4A8 }
  - { offsetInCU: 0xAA35A, offset: 0xAA35A, size: 0x8, addend: 0x0, symName: __ZNSt3__14swapB8ue170006IPPN5Catch16TestCaseTracking8ITrackerEEENS_9enable_ifIXaasr21is_move_constructibleIT_EE5valuesr18is_move_assignableIS7_EE5valueEvE4typeERS7_SA_, symObjAddr: 0x117B94, symBinAddr: 0x100118CD0, symSize: 0x134 }
  - { offsetInCU: 0xAA3AF, offset: 0xAA3AF, size: 0x8, addend: 0x0, symName: __ZNSt3__14moveB8ue170006INS_16reverse_iteratorIPPN5Catch16TestCaseTracking8ITrackerEEES7_EET0_T_S9_S8_, symObjAddr: 0x117D88, symBinAddr: 0x100118EC4, symSize: 0x4B0 }
  - { offsetInCU: 0xAA41A, offset: 0xAA41A, size: 0x8, addend: 0x0, symName: __ZNSt3__16__moveB8ue170006INS_17_ClassicAlgPolicyENS_16reverse_iteratorIPPN5Catch16TestCaseTracking8ITrackerEEES8_S8_EENS_4pairIT0_T2_EESA_T1_SB_, symObjAddr: 0x118238, symBinAddr: 0x100119374, symSize: 0x424 }
  - { offsetInCU: 0xAA496, offset: 0xAA496, size: 0x8, addend: 0x0, symName: __ZNSt3__123__dispatch_copy_or_moveB8ue170006INS_17_ClassicAlgPolicyENS_11__move_loopIS1_EENS_14__move_trivialENS_16reverse_iteratorIPPN5Catch16TestCaseTracking8ITrackerEEESB_SB_EENS_4pairIT2_T4_EESD_T3_SE_, symObjAddr: 0x11865C, symBinAddr: 0x100119798, symSize: 0x424 }
  - { offsetInCU: 0xAA524, offset: 0xAA524, size: 0x8, addend: 0x0, symName: __ZNSt3__121__unwrap_and_dispatchB8ue170006INS_10__overloadINS_11__move_loopINS_17_ClassicAlgPolicyEEENS_14__move_trivialEEENS_16reverse_iteratorIPPN5Catch16TestCaseTracking8ITrackerEEESD_SD_Li0EEENS_4pairIT0_T2_EESF_T1_SG_, symObjAddr: 0x118A80, symBinAddr: 0x100119BBC, symSize: 0x880 }
  - { offsetInCU: 0xAA5CF, offset: 0xAA5CF, size: 0x8, addend: 0x0, symName: __ZNSt3__114__unwrap_rangeB8ue170006INS_16reverse_iteratorIPPN5Catch16TestCaseTracking8ITrackerEEES7_EEDaT_T0_, symObjAddr: 0x119300, symBinAddr: 0x10011A43C, symSize: 0x35C }
  - { offsetInCU: 0xAA701, offset: 0xAA701, size: 0x8, addend: 0x0, symName: __ZNSt3__113__unwrap_iterB8ue170006INS_16reverse_iteratorIPPN5Catch16TestCaseTracking8ITrackerEEENS_18__unwrap_iter_implIS7_Lb0EEELi0EEEDTclsrT0_8__unwrapclsr3stdE7declvalIT_EEEESB_, symObjAddr: 0x119A04, symBinAddr: 0x10011AB40, symSize: 0x2EC }
  - { offsetInCU: 0xAA74B, offset: 0xAA74B, size: 0x8, addend: 0x0, symName: __ZNSt3__19make_pairB8ue170006INS_16reverse_iteratorIPPN5Catch16TestCaseTracking8ITrackerEEES7_EENS_4pairINS_18__unwrap_ref_decayIT_E4typeENS9_IT0_E4typeEEEOSA_OSD_, symObjAddr: 0x119CF0, symBinAddr: 0x10011AE2C, symSize: 0x38 }
  - { offsetInCU: 0xAA79B, offset: 0xAA79B, size: 0x8, addend: 0x0, symName: __ZNSt3__114__rewrap_rangeB8ue170006INS_16reverse_iteratorIPPN5Catch16TestCaseTracking8ITrackerEEES7_S7_EET0_S8_T1_, symObjAddr: 0x119D28, symBinAddr: 0x10011AE64, symSize: 0x3D4 }
  - { offsetInCU: 0xAA7FB, offset: 0xAA7FB, size: 0x8, addend: 0x0, symName: __ZNSt3__113__rewrap_iterB8ue170006INS_16reverse_iteratorIPPN5Catch16TestCaseTracking8ITrackerEEES7_NS_18__unwrap_iter_implIS7_Lb0EEEEET_SA_T0_, symObjAddr: 0x11A0FC, symBinAddr: 0x10011B238, symSize: 0x3E8 }
  - { offsetInCU: 0xAA8AE, offset: 0xAA8AE, size: 0x8, addend: 0x0, symName: __ZNSt3__1neB8ue170006IPPN5Catch16TestCaseTracking8ITrackerES5_EEbRKNS_16reverse_iteratorIT_EERKNS6_IT0_EE, symObjAddr: 0x11A9BC, symBinAddr: 0x10011BAF8, symSize: 0x48 }
  - { offsetInCU: 0xAA96F, offset: 0xAA96F, size: 0x8, addend: 0x0, symName: __ZNSt3__119static_pointer_castB8ue170006IN5Catch10Generators16GeneratorTrackerENS1_16TestCaseTracking8ITrackerEEENS_10shared_ptrIT_EERKNS6_IT0_EE, symObjAddr: 0x11B940, symBinAddr: 0x10011CA7C, symSize: 0x44 }
  - { offsetInCU: 0xAA9AF, offset: 0xAA9AF, size: 0x8, addend: 0x0, symName: __ZNSt3__111make_sharedB8ue170006IN5Catch10Generators16GeneratorTrackerEJRKNS1_16TestCaseTracking15NameAndLocationERNS4_14TrackerContextEPNS4_8ITrackerEEvEENS_10shared_ptrIT_EEDpOT0_, symObjAddr: 0x11BBA4, symBinAddr: 0x10011CCE0, symSize: 0x1F8 }
  - { offsetInCU: 0xAAA22, offset: 0xAAA22, size: 0x8, addend: 0x0, symName: __ZNSt3__14swapB8ue170006IPN5Catch10Generators16GeneratorTrackerEEENS_9enable_ifIXaasr21is_move_constructibleIT_EE5valuesr18is_move_assignableIS6_EE5valueEvE4typeERS6_S9_, symObjAddr: 0x11C330, symBinAddr: 0x10011D46C, symSize: 0x134 }
  - { offsetInCU: 0xAAA76, offset: 0xAAA76, size: 0x8, addend: 0x0, symName: __ZNSt3__115allocate_sharedB8ue170006IN5Catch10Generators16GeneratorTrackerENS_9allocatorIS3_EEJRKNS1_16TestCaseTracking15NameAndLocationERNS6_14TrackerContextEPNS6_8ITrackerEEvEENS_10shared_ptrIT_EERKT0_DpOT1_, symObjAddr: 0x11C52C, symBinAddr: 0x10011D668, symSize: 0x310 }
  - { offsetInCU: 0xAAE90, offset: 0xAAE90, size: 0x8, addend: 0x0, symName: __ZNSt3__112construct_atB8ue170006IN5Catch10Generators16GeneratorTrackerEJRKNS1_16TestCaseTracking15NameAndLocationERNS4_14TrackerContextEPNS4_8ITrackerEEPS3_EEPT_SE_DpOT0_, symObjAddr: 0x11D868, symBinAddr: 0x10011E9A4, symSize: 0xA0 }
  - { offsetInCU: 0xAAF32, offset: 0xAAF32, size: 0x8, addend: 0x0, symName: __ZNSt3__110destroy_atB8ue170006IN5Catch10Generators16GeneratorTrackerELi0EEEvPT_, symObjAddr: 0x11DEAC, symBinAddr: 0x10011EFE8, symSize: 0x24 }
  - { offsetInCU: 0xAAF6C, offset: 0xAAF6C, size: 0x8, addend: 0x0, symName: __ZNSt3__112__destroy_atB8ue170006IN5Catch10Generators16GeneratorTrackerELi0EEEvPT_, symObjAddr: 0x11DED0, symBinAddr: 0x10011F00C, symSize: 0xA4 }
  - { offsetInCU: 0xAB003, offset: 0xAB003, size: 0x8, addend: 0x0, symName: __ZNSt3__112construct_atB8ue170006IN5Catch14SectionEndInfoEJRKS2_EPS2_EEPT_S7_DpOT0_, symObjAddr: 0x11EEE0, symBinAddr: 0x10012001C, symSize: 0x3C }
  - { offsetInCU: 0xAB07B, offset: 0xAB07B, size: 0x8, addend: 0x0, symName: __ZNSt3__119__allocate_at_leastB8ue170006INS_9allocatorIN5Catch14SectionEndInfoEEEEENS_19__allocation_resultINS_16allocator_traitsIT_E7pointerEEERS7_m, symObjAddr: 0x120568, symBinAddr: 0x1001216A4, symSize: 0x28C }
  - { offsetInCU: 0xAB0C2, offset: 0xAB0C2, size: 0x8, addend: 0x0, symName: __ZNSt3__142__uninitialized_allocator_move_if_noexceptB8ue170006INS_9allocatorIN5Catch14SectionEndInfoEEENS_16reverse_iteratorIPS3_EES7_S7_EET2_RT_T0_T1_S8_, symObjAddr: 0x120A08, symBinAddr: 0x100121B44, symSize: 0x544 }
  - { offsetInCU: 0xAB178, offset: 0xAB178, size: 0x8, addend: 0x0, symName: __ZNSt3__14swapB8ue170006IPN5Catch14SectionEndInfoEEENS_9enable_ifIXaasr21is_move_constructibleIT_EE5valuesr18is_move_assignableIS5_EE5valueEvE4typeERS5_S8_, symObjAddr: 0x120FE4, symBinAddr: 0x100122120, symSize: 0x134 }
  - { offsetInCU: 0xAB1CD, offset: 0xAB1CD, size: 0x8, addend: 0x0, symName: __ZNSt3__122__make_exception_guardB8ue170006INS_29_AllocatorDestroyRangeReverseINS_9allocatorIN5Catch14SectionEndInfoEEENS_16reverse_iteratorIPS4_EEEEEENS_28__exception_guard_exceptionsIT_EESB_, symObjAddr: 0x1211F4, symBinAddr: 0x100122330, symSize: 0x1F8 }
  - { offsetInCU: 0xAB206, offset: 0xAB206, size: 0x8, addend: 0x0, symName: __ZNSt3__1neB8ue170006IPN5Catch14SectionEndInfoES3_EEbRKNS_16reverse_iteratorIT_EERKNS4_IT0_EE, symObjAddr: 0x121430, symBinAddr: 0x10012256C, symSize: 0x48 }
  - { offsetInCU: 0xAB255, offset: 0xAB255, size: 0x8, addend: 0x0, symName: __ZNSt3__112__to_addressB8ue170006INS_16reverse_iteratorIPN5Catch14SectionEndInfoEEEvEEu7__decayIDTclsr19__to_address_helperIT_EE6__callclsr3stdE7declvalIRKS6_EEEEES8_, symObjAddr: 0x1214A8, symBinAddr: 0x1001225E4, symSize: 0x24 }
  - { offsetInCU: 0xAB28D, offset: 0xAB28D, size: 0x8, addend: 0x0, symName: __ZNSt3__112construct_atB8ue170006IN5Catch14SectionEndInfoEJS2_EPS2_EEPT_S5_DpOT0_, symObjAddr: 0x121840, symBinAddr: 0x10012297C, symSize: 0x3C }
  - { offsetInCU: 0xAB330, offset: 0xAB330, size: 0x8, addend: 0x0, symName: __ZNSt3__14prevB8ue170006IPN5Catch14SectionEndInfoEEENS_9enable_ifIXsr29__has_input_iterator_categoryIT_EE5valueES5_E4typeES5_NS_15iterator_traitsIS5_E15difference_typeE, symObjAddr: 0x121A40, symBinAddr: 0x100122B7C, symSize: 0x240 }
  - { offsetInCU: 0xAB37B, offset: 0xAB37B, size: 0x8, addend: 0x0, symName: __ZNSt3__19__advanceB8ue170006IPN5Catch14SectionEndInfoEEEvRT_NS_15iterator_traitsIS4_E15difference_typeENS_26random_access_iterator_tagE, symObjAddr: 0x121CB8, symBinAddr: 0x100122DF4, symSize: 0x80 }
  - { offsetInCU: 0xAB3C7, offset: 0xAB3C7, size: 0x8, addend: 0x0, symName: __ZNSt3__119__allocator_destroyB8ue170006INS_9allocatorIN5Catch14SectionEndInfoEEENS_16reverse_iteratorINS5_IPS3_EEEES8_EEvRT_T0_T1_, symObjAddr: 0x12219C, symBinAddr: 0x1001232D8, symSize: 0x70 }
  - { offsetInCU: 0xAB42D, offset: 0xAB42D, size: 0x8, addend: 0x0, symName: __ZNSt3__1neB8ue170006INS_16reverse_iteratorIPN5Catch14SectionEndInfoEEES5_EEbRKNS1_IT_EERKNS1_IT0_EE, symObjAddr: 0x122454, symBinAddr: 0x100123590, symSize: 0x2CC }
  - { offsetInCU: 0xAB47E, offset: 0xAB47E, size: 0x8, addend: 0x0, symName: __ZNSt3__112__to_addressB8ue170006INS_16reverse_iteratorINS1_IPN5Catch14SectionEndInfoEEEEEvEEu7__decayIDTclsr19__to_address_helperIT_EE6__callclsr3stdE7declvalIRKS7_EEEEES9_, symObjAddr: 0x122720, symBinAddr: 0x10012385C, symSize: 0x24 }
  - { offsetInCU: 0xAB4E1, offset: 0xAB4E1, size: 0x8, addend: 0x0, symName: __ZNSt3__14prevB8ue170006INS_16reverse_iteratorIPN5Catch14SectionEndInfoEEEEENS_9enable_ifIXsr29__has_input_iterator_categoryIT_EE5valueES7_E4typeES7_NS_15iterator_traitsIS7_E15difference_typeE, symObjAddr: 0x122C64, symBinAddr: 0x100123DA0, symSize: 0x294 }
  - { offsetInCU: 0xAB52C, offset: 0xAB52C, size: 0x8, addend: 0x0, symName: __ZNSt3__19__advanceB8ue170006INS_16reverse_iteratorIPN5Catch14SectionEndInfoEEEEEvRT_NS_15iterator_traitsIS6_E15difference_typeENS_26random_access_iterator_tagE, symObjAddr: 0x122F30, symBinAddr: 0x10012406C, symSize: 0x2C }
  - { offsetInCU: 0xAB579, offset: 0xAB579, size: 0x8, addend: 0x0, symName: __ZNSt3__1miB8ue170006IPKN5Catch11MessageInfoEPS2_EEDTmicldtfp_4baseEcldtfp0_4baseEERKNS_11__wrap_iterIT_EERKNS7_IT0_EE, symObjAddr: 0x1236DC, symBinAddr: 0x100124818, symSize: 0x48 }
  - { offsetInCU: 0xAB5C8, offset: 0xAB5C8, size: 0x8, addend: 0x0, symName: __ZNSt3__14moveB8ue170006IPN5Catch11MessageInfoES3_EET0_T_S5_S4_, symObjAddr: 0x123770, symBinAddr: 0x1001248AC, symSize: 0x26C }
  - { offsetInCU: 0xAB629, offset: 0xAB629, size: 0x8, addend: 0x0, symName: __ZNSt3__1miB8ue170006IPKN5Catch11MessageInfoES4_EEDTmicldtfp_4baseEcldtfp0_4baseEERKNS_11__wrap_iterIT_EERKNS6_IT0_EE, symObjAddr: 0x1239DC, symBinAddr: 0x100124B18, symSize: 0x48 }
  - { offsetInCU: 0xAB678, offset: 0xAB678, size: 0x8, addend: 0x0, symName: __ZNSt3__16__moveB8ue170006INS_17_ClassicAlgPolicyEPN5Catch11MessageInfoES4_S4_EENS_4pairIT0_T2_EES6_T1_S7_, symObjAddr: 0x123CE0, symBinAddr: 0x100124E1C, symSize: 0x22C }
  - { offsetInCU: 0xAB6EB, offset: 0xAB6EB, size: 0x8, addend: 0x0, symName: __ZNSt3__123__dispatch_copy_or_moveB8ue170006INS_17_ClassicAlgPolicyENS_11__move_loopIS1_EENS_14__move_trivialEPN5Catch11MessageInfoES7_S7_EENS_4pairIT2_T4_EES9_T3_SA_, symObjAddr: 0x123F0C, symBinAddr: 0x100125048, symSize: 0x22C }
  - { offsetInCU: 0xAB770, offset: 0xAB770, size: 0x8, addend: 0x0, symName: __ZNSt3__121__unwrap_and_dispatchB8ue170006INS_10__overloadINS_11__move_loopINS_17_ClassicAlgPolicyEEENS_14__move_trivialEEEPN5Catch11MessageInfoES9_S9_Li0EEENS_4pairIT0_T2_EESB_T1_SC_, symObjAddr: 0x124138, symBinAddr: 0x100125274, symSize: 0x5A4 }
  - { offsetInCU: 0xAB80F, offset: 0xAB80F, size: 0x8, addend: 0x0, symName: __ZNSt3__19make_pairB8ue170006IPN5Catch11MessageInfoES3_EENS_4pairINS_18__unwrap_ref_decayIT_E4typeENS5_IT0_E4typeEEEOS6_OS9_, symObjAddr: 0x124B04, symBinAddr: 0x100125C40, symSize: 0x20C }
  - { offsetInCU: 0xAB861, offset: 0xAB861, size: 0x8, addend: 0x0, symName: __ZNSt3__114__rewrap_rangeB8ue170006IPN5Catch11MessageInfoES3_S3_EET0_S4_T1_, symObjAddr: 0x124D10, symBinAddr: 0x100125E4C, symSize: 0x2C }
  - { offsetInCU: 0xAB8E0, offset: 0xAB8E0, size: 0x8, addend: 0x0, symName: __ZNSt3__14findB8ue170006INS_11__wrap_iterIPN5Catch11MessageInfoEEES3_EET_S6_S6_RKT0_, symObjAddr: 0x124EE0, symBinAddr: 0x10012601C, symSize: 0x4AC }
  - { offsetInCU: 0xAB95B, offset: 0xAB95B, size: 0x8, addend: 0x0, symName: __ZNSt3__1neB8ue170006IPN5Catch11MessageInfoEEEbRKNS_11__wrap_iterIT_EES8_, symObjAddr: 0x12538C, symBinAddr: 0x1001264C8, symSize: 0x34 }
  - { offsetInCU: 0xAB9A1, offset: 0xAB9A1, size: 0x8, addend: 0x0, symName: __ZNSt3__113__rewrap_iterB8ue170006INS_11__wrap_iterIPN5Catch11MessageInfoEEES4_NS_18__unwrap_iter_implIS5_Lb1EEEEET_S8_T0_, symObjAddr: 0x125488, symBinAddr: 0x1001265C4, symSize: 0x338 }
  - { offsetInCU: 0xAB9FE, offset: 0xAB9FE, size: 0x8, addend: 0x0, symName: __ZNSt3__111__find_implB8ue170006IPN5Catch11MessageInfoES3_S2_NS_10__identityEEET_S5_T0_RKT1_RT2_, symObjAddr: 0x1257C0, symBinAddr: 0x1001268FC, symSize: 0x7C }
  - { offsetInCU: 0xABA7D, offset: 0xABA7D, size: 0x8, addend: 0x0, symName: __ZNSt3__113__unwrap_iterB8ue170006INS_11__wrap_iterIPN5Catch11MessageInfoEEENS_18__unwrap_iter_implIS5_Lb1EEELi0EEEDTclsrT0_8__unwrapclsr3stdE7declvalIT_EEEES9_, symObjAddr: 0x12583C, symBinAddr: 0x100126978, symSize: 0x274 }
  - { offsetInCU: 0xABB20, offset: 0xABB20, size: 0x8, addend: 0x0, symName: __ZNSt3__112__to_addressB8ue170006INS_11__wrap_iterIPN5Catch11MessageInfoEEEvEEu7__decayIDTclsr19__to_address_helperIT_EE6__callclsr3stdE7declvalIRKS6_EEEEES8_, symObjAddr: 0x125F90, symBinAddr: 0x1001270CC, symSize: 0x24 }
  - { offsetInCU: 0xABBC4, offset: 0xABBC4, size: 0x8, addend: 0x0, symName: __ZNSt3__18__invokeB8ue170006IRNS_10__identityEJRN5Catch11MessageInfoEEEEDTclclsr3stdE7declvalIT_EEspclsr3stdE7declvalIT0_EEEEOS6_DpOS7_, symObjAddr: 0x126420, symBinAddr: 0x10012755C, symSize: 0x2C }
  - { offsetInCU: 0xABCB3, offset: 0xABCB3, size: 0x8, addend: 0x0, symName: __ZNSt3__1eqB8ue170006IPN5Catch11MessageInfoEEEbRKNS_11__wrap_iterIT_EES8_, symObjAddr: 0x126654, symBinAddr: 0x100127790, symSize: 0x48 }
  - { offsetInCU: 0xABD20, offset: 0xABD20, size: 0x8, addend: 0x0, symName: __ZNSt3__112construct_atB8ue170006IN5Catch13ScopedMessageEJRKNS1_14MessageBuilderEEPS2_EEPT_S8_DpOT0_, symObjAddr: 0x12727C, symBinAddr: 0x1001283B8, symSize: 0x3C }
  - { offsetInCU: 0xABD98, offset: 0xABD98, size: 0x8, addend: 0x0, symName: __ZNSt3__119__allocate_at_leastB8ue170006INS_9allocatorIN5Catch13ScopedMessageEEEEENS_19__allocation_resultINS_16allocator_traitsIT_E7pointerEEERS7_m, symObjAddr: 0x1287A0, symBinAddr: 0x1001298DC, symSize: 0x28C }
  - { offsetInCU: 0xABDDF, offset: 0xABDDF, size: 0x8, addend: 0x0, symName: __ZNSt3__142__uninitialized_allocator_move_if_noexceptB8ue170006INS_9allocatorIN5Catch13ScopedMessageEEENS_16reverse_iteratorIPS3_EES7_S7_EET2_RT_T0_T1_S8_, symObjAddr: 0x128C40, symBinAddr: 0x100129D7C, symSize: 0x544 }
  - { offsetInCU: 0xABE95, offset: 0xABE95, size: 0x8, addend: 0x0, symName: __ZNSt3__14swapB8ue170006IPN5Catch13ScopedMessageEEENS_9enable_ifIXaasr21is_move_constructibleIT_EE5valuesr18is_move_assignableIS5_EE5valueEvE4typeERS5_S8_, symObjAddr: 0x12921C, symBinAddr: 0x10012A358, symSize: 0x134 }
  - { offsetInCU: 0xABEEA, offset: 0xABEEA, size: 0x8, addend: 0x0, symName: __ZNSt3__122__make_exception_guardB8ue170006INS_29_AllocatorDestroyRangeReverseINS_9allocatorIN5Catch13ScopedMessageEEENS_16reverse_iteratorIPS4_EEEEEENS_28__exception_guard_exceptionsIT_EESB_, symObjAddr: 0x12942C, symBinAddr: 0x10012A568, symSize: 0x1F8 }
  - { offsetInCU: 0xABF23, offset: 0xABF23, size: 0x8, addend: 0x0, symName: __ZNSt3__1neB8ue170006IPN5Catch13ScopedMessageES3_EEbRKNS_16reverse_iteratorIT_EERKNS4_IT0_EE, symObjAddr: 0x129668, symBinAddr: 0x10012A7A4, symSize: 0x48 }
  - { offsetInCU: 0xABF72, offset: 0xABF72, size: 0x8, addend: 0x0, symName: __ZNSt3__112__to_addressB8ue170006INS_16reverse_iteratorIPN5Catch13ScopedMessageEEEvEEu7__decayIDTclsr19__to_address_helperIT_EE6__callclsr3stdE7declvalIRKS6_EEEEES8_, symObjAddr: 0x1296E0, symBinAddr: 0x10012A81C, symSize: 0x24 }
  - { offsetInCU: 0xABFAA, offset: 0xABFAA, size: 0x8, addend: 0x0, symName: __ZNSt3__112construct_atB8ue170006IN5Catch13ScopedMessageEJS2_EPS2_EEPT_S5_DpOT0_, symObjAddr: 0x129A78, symBinAddr: 0x10012ABB4, symSize: 0x3C }
  - { offsetInCU: 0xAC04D, offset: 0xAC04D, size: 0x8, addend: 0x0, symName: __ZNSt3__14prevB8ue170006IPN5Catch13ScopedMessageEEENS_9enable_ifIXsr29__has_input_iterator_categoryIT_EE5valueES5_E4typeES5_NS_15iterator_traitsIS5_E15difference_typeE, symObjAddr: 0x129B64, symBinAddr: 0x10012ACA0, symSize: 0x240 }
  - { offsetInCU: 0xAC098, offset: 0xAC098, size: 0x8, addend: 0x0, symName: __ZNSt3__19__advanceB8ue170006IPN5Catch13ScopedMessageEEEvRT_NS_15iterator_traitsIS4_E15difference_typeENS_26random_access_iterator_tagE, symObjAddr: 0x129DDC, symBinAddr: 0x10012AF18, symSize: 0x80 }
  - { offsetInCU: 0xAC0E4, offset: 0xAC0E4, size: 0x8, addend: 0x0, symName: __ZNSt3__119__allocator_destroyB8ue170006INS_9allocatorIN5Catch13ScopedMessageEEENS_16reverse_iteratorINS5_IPS3_EEEES8_EEvRT_T0_T1_, symObjAddr: 0x12A2C0, symBinAddr: 0x10012B3FC, symSize: 0x70 }
  - { offsetInCU: 0xAC14A, offset: 0xAC14A, size: 0x8, addend: 0x0, symName: __ZNSt3__1neB8ue170006INS_16reverse_iteratorIPN5Catch13ScopedMessageEEES5_EEbRKNS1_IT_EERKNS1_IT0_EE, symObjAddr: 0x12A578, symBinAddr: 0x10012B6B4, symSize: 0x2CC }
  - { offsetInCU: 0xAC19B, offset: 0xAC19B, size: 0x8, addend: 0x0, symName: __ZNSt3__112__to_addressB8ue170006INS_16reverse_iteratorINS1_IPN5Catch13ScopedMessageEEEEEvEEu7__decayIDTclsr19__to_address_helperIT_EE6__callclsr3stdE7declvalIRKS7_EEEEES9_, symObjAddr: 0x12A844, symBinAddr: 0x10012B980, symSize: 0x24 }
  - { offsetInCU: 0xAC1FE, offset: 0xAC1FE, size: 0x8, addend: 0x0, symName: __ZNSt3__14prevB8ue170006INS_16reverse_iteratorIPN5Catch13ScopedMessageEEEEENS_9enable_ifIXsr29__has_input_iterator_categoryIT_EE5valueES7_E4typeES7_NS_15iterator_traitsIS7_E15difference_typeE, symObjAddr: 0x12AD88, symBinAddr: 0x10012BEC4, symSize: 0x294 }
  - { offsetInCU: 0xAC249, offset: 0xAC249, size: 0x8, addend: 0x0, symName: __ZNSt3__19__advanceB8ue170006INS_16reverse_iteratorIPN5Catch13ScopedMessageEEEEEvRT_NS_15iterator_traitsIS6_E15difference_typeENS_26random_access_iterator_tagE, symObjAddr: 0x12B054, symBinAddr: 0x10012C190, symSize: 0x2C }
  - { offsetInCU: 0xAC296, offset: 0xAC296, size: 0x8, addend: 0x0, symName: __ZNSt3__1neB8ue170006IPN5Catch14SectionEndInfoEEEbRKNS_11__wrap_iterIT_EES8_, symObjAddr: 0x12C8D4, symBinAddr: 0x10012DA10, symSize: 0x34 }
  - { offsetInCU: 0xAC2DC, offset: 0xAC2DC, size: 0x8, addend: 0x0, symName: __ZNSt3__1eqB8ue170006IPN5Catch14SectionEndInfoEEEbRKNS_11__wrap_iterIT_EES8_, symObjAddr: 0x12CB08, symBinAddr: 0x10012DC44, symSize: 0x48 }
  - { offsetInCU: 0xAC322, offset: 0xAC322, size: 0x8, addend: 0x0, symName: __ZNSt3__1eqB8ue170006IPKSt13exception_ptrEEbRKNS_11__wrap_iterIT_EES8_, symObjAddr: 0x12E314, symBinAddr: 0x10012F450, symSize: 0x48 }
  - { offsetInCU: 0xAC368, offset: 0xAC368, size: 0x8, addend: 0x0, symName: __ZNSt3__14swapB8ue170006IPNS_12basic_stringIcNS_11char_traitsIcEENS_9allocatorIcEEEEEENS_9enable_ifIXaasr21is_move_constructibleIT_EE5valuesr18is_move_assignableIS9_EE5valueEvE4typeERS9_SC_, symObjAddr: 0x12EAE4, symBinAddr: 0x10012FC20, symSize: 0x134 }
  - { offsetInCU: 0xAC3BD, offset: 0xAC3BD, size: 0x8, addend: 0x0, symName: __ZNSt3__1neB8ue170006IPN5Catch5clara6detail11HelpColumnsEEEbRKNS_11__wrap_iterIT_EESA_, symObjAddr: 0x131898, symBinAddr: 0x1001329D4, symSize: 0x34 }
  - { offsetInCU: 0xAC403, offset: 0xAC403, size: 0x8, addend: 0x0, symName: __ZNSt3__122__make_exception_guardB8ue170006INS_6vectorIN5Catch5clara6detail11HelpColumnsENS_9allocatorIS5_EEE16__destroy_vectorEEENS_28__exception_guard_exceptionsIT_EESB_, symObjAddr: 0x133BA4, symBinAddr: 0x100134CE0, symSize: 0x278 }
  - { offsetInCU: 0xAC43E, offset: 0xAC43E, size: 0x8, addend: 0x0, symName: __ZNSt3__119__allocate_at_leastB8ue170006INS_9allocatorIN5Catch5clara6detail11HelpColumnsEEEEENS_19__allocation_resultINS_16allocator_traitsIT_E7pointerEEERS9_m, symObjAddr: 0x13504C, symBinAddr: 0x100136188, symSize: 0x28C }
  - { offsetInCU: 0xAC486, offset: 0xAC486, size: 0x8, addend: 0x0, symName: __ZNSt3__112__to_addressB8ue170006IN5Catch5clara6detail11HelpColumnsEEEPT_S6_, symObjAddr: 0x1356D4, symBinAddr: 0x100136810, symSize: 0x14 }
  - { offsetInCU: 0xAC4BC, offset: 0xAC4BC, size: 0x8, addend: 0x0, symName: __ZNSt3__130__uninitialized_allocator_copyB8ue170006INS_9allocatorIN5Catch5clara6detail11HelpColumnsEEEPKS5_S8_PS5_EET2_RT_T0_T1_SA_, symObjAddr: 0x135784, symBinAddr: 0x1001368C0, symSize: 0x2DC }
  - { offsetInCU: 0xAC563, offset: 0xAC563, size: 0x8, addend: 0x0, symName: __ZNSt3__114__unwrap_rangeB8ue170006IPKN5Catch5clara6detail11HelpColumnsES6_EEDaT_T0_, symObjAddr: 0x135E0C, symBinAddr: 0x100136F48, symSize: 0x224 }
  - { offsetInCU: 0xAC5B3, offset: 0xAC5B3, size: 0x8, addend: 0x0, symName: __ZNSt3__135__uninitialized_allocator_copy_implB8ue170006INS_9allocatorIN5Catch5clara6detail11HelpColumnsEEEPKS5_S8_PS5_EET2_RT_T0_T1_SA_, symObjAddr: 0x136030, symBinAddr: 0x10013716C, symSize: 0x520 }
  - { offsetInCU: 0xAC660, offset: 0xAC660, size: 0x8, addend: 0x0, symName: __ZNSt3__113__unwrap_iterB8ue170006IPN5Catch5clara6detail11HelpColumnsENS_18__unwrap_iter_implIS5_Lb1EEELi0EEEDTclsrT0_8__unwrapclsr3stdE7declvalIT_EEEES9_, symObjAddr: 0x136550, symBinAddr: 0x10013768C, symSize: 0x24 }
  - { offsetInCU: 0xAC6A7, offset: 0xAC6A7, size: 0x8, addend: 0x0, symName: __ZNSt3__113__rewrap_iterB8ue170006IPN5Catch5clara6detail11HelpColumnsES5_NS_18__unwrap_iter_implIS5_Lb1EEEEET_S8_T0_, symObjAddr: 0x136574, symBinAddr: 0x1001376B0, symSize: 0x48 }
  - { offsetInCU: 0xAC80C, offset: 0xAC80C, size: 0x8, addend: 0x0, symName: __ZNSt3__113__unwrap_iterB8ue170006IPKN5Catch5clara6detail11HelpColumnsENS_18__unwrap_iter_implIS6_Lb1EEELi0EEEDTclsrT0_8__unwrapclsr3stdE7declvalIT_EEEESA_, symObjAddr: 0x1368C8, symBinAddr: 0x100137A04, symSize: 0x24 }
  - { offsetInCU: 0xAC8AB, offset: 0xAC8AB, size: 0x8, addend: 0x0, symName: __ZNSt3__112__to_addressB8ue170006IKN5Catch5clara6detail11HelpColumnsEEEPT_S7_, symObjAddr: 0x13694C, symBinAddr: 0x100137A88, symSize: 0x14 }
  - { offsetInCU: 0xAC8E2, offset: 0xAC8E2, size: 0x8, addend: 0x0, symName: __ZNSt3__122__make_exception_guardB8ue170006INS_29_AllocatorDestroyRangeReverseINS_9allocatorIN5Catch5clara6detail11HelpColumnsEEEPS6_EEEENS_28__exception_guard_exceptionsIT_EESB_, symObjAddr: 0x136A98, symBinAddr: 0x100137BD4, symSize: 0x1F8 }
  - { offsetInCU: 0xAC942, offset: 0xAC942, size: 0x8, addend: 0x0, symName: __ZNSt3__112construct_atB8ue170006IN5Catch5clara6detail11HelpColumnsEJRKS4_EPS4_EEPT_S9_DpOT0_, symObjAddr: 0x136F98, symBinAddr: 0x1001380D4, symSize: 0x3C }
  - { offsetInCU: 0xAC9B9, offset: 0xAC9B9, size: 0x8, addend: 0x0, symName: __ZNSt3__119__allocator_destroyB8ue170006INS_9allocatorIN5Catch5clara6detail11HelpColumnsEEENS_16reverse_iteratorIPS5_EES9_EEvRT_T0_T1_, symObjAddr: 0x1374D0, symBinAddr: 0x10013860C, symSize: 0x2B8 }
  - { offsetInCU: 0xACA26, offset: 0xACA26, size: 0x8, addend: 0x0, symName: __ZNSt3__1neB8ue170006IPN5Catch5clara6detail11HelpColumnsES5_EEbRKNS_16reverse_iteratorIT_EERKNS6_IT0_EE, symObjAddr: 0x1377BC, symBinAddr: 0x1001388F8, symSize: 0x48 }
  - { offsetInCU: 0xACA75, offset: 0xACA75, size: 0x8, addend: 0x0, symName: __ZNSt3__112__to_addressB8ue170006INS_16reverse_iteratorIPN5Catch5clara6detail11HelpColumnsEEEvEEu7__decayIDTclsr19__to_address_helperIT_EE6__callclsr3stdE7declvalIRKS8_EEEEESA_, symObjAddr: 0x13782C, symBinAddr: 0x100138968, symSize: 0x24 }
  - { offsetInCU: 0xACAAD, offset: 0xACAAD, size: 0x8, addend: 0x0, symName: __ZNSt3__110destroy_atB8ue170006IN5Catch5clara6detail11HelpColumnsELi0EEEvPT_, symObjAddr: 0x137920, symBinAddr: 0x100138A5C, symSize: 0x24 }
  - { offsetInCU: 0xACAE7, offset: 0xACAE7, size: 0x8, addend: 0x0, symName: __ZNSt3__112__destroy_atB8ue170006IN5Catch5clara6detail11HelpColumnsELi0EEEvPT_, symObjAddr: 0x137944, symBinAddr: 0x100138A80, symSize: 0x24 }
  - { offsetInCU: 0xACB4C, offset: 0xACB4C, size: 0x8, addend: 0x0, symName: __ZNSt3__14prevB8ue170006IPN5Catch5clara6detail11HelpColumnsEEENS_9enable_ifIXsr29__has_input_iterator_categoryIT_EE5valueES7_E4typeES7_NS_15iterator_traitsIS7_E15difference_typeE, symObjAddr: 0x137A18, symBinAddr: 0x100138B54, symSize: 0x240 }
  - { offsetInCU: 0xACB97, offset: 0xACB97, size: 0x8, addend: 0x0, symName: __ZNSt3__19__advanceB8ue170006IPN5Catch5clara6detail11HelpColumnsEEEvRT_NS_15iterator_traitsIS6_E15difference_typeENS_26random_access_iterator_tagE, symObjAddr: 0x137C90, symBinAddr: 0x100138DCC, symSize: 0x80 }
  - { offsetInCU: 0xACC3C, offset: 0xACC3C, size: 0x8, addend: 0x0, symName: __ZNSt3__18distanceB8ue170006INS_11__wrap_iterIPN5Catch5clara6detail11HelpColumnsEEEEENS_15iterator_traitsIT_E15difference_typeES9_S9_, symObjAddr: 0x13952C, symBinAddr: 0x10013A668, symSize: 0x350 }
  - { offsetInCU: 0xACC8A, offset: 0xACC8A, size: 0x8, addend: 0x0, symName: __ZNSt3__1miB8ue170006IPKN5Catch5clara6detail11HelpColumnsEPS4_EEDTmicldtfp_4baseEcldtfp0_4baseEERKNS_11__wrap_iterIT_EERKNS9_IT0_EE, symObjAddr: 0x13987C, symBinAddr: 0x10013A9B8, symSize: 0x48 }
  - { offsetInCU: 0xACCD9, offset: 0xACCD9, size: 0x8, addend: 0x0, symName: __ZNSt3__14nextB8ue170006INS_11__wrap_iterIPN5Catch5clara6detail11HelpColumnsEEEEENS_9enable_ifIXsr29__has_input_iterator_categoryIT_EE5valueES9_E4typeES9_NS_15iterator_traitsIS9_E15difference_typeE, symObjAddr: 0x1398C4, symBinAddr: 0x10013AA00, symSize: 0x288 }
  - { offsetInCU: 0xACD24, offset: 0xACD24, size: 0x8, addend: 0x0, symName: __ZNSt3__14copyB8ue170006INS_11__wrap_iterIPN5Catch5clara6detail11HelpColumnsEEES6_EET0_T_S9_S8_, symObjAddr: 0x13A52C, symBinAddr: 0x10013B668, symSize: 0x428 }
  - { offsetInCU: 0xACD8B, offset: 0xACD8B, size: 0x8, addend: 0x0, symName: __ZNSt3__19__advanceB8ue170006INS_11__wrap_iterIPN5Catch5clara6detail11HelpColumnsEEEEEvRT_NS_15iterator_traitsIS8_E15difference_typeENS_26random_access_iterator_tagE, symObjAddr: 0x13BAF4, symBinAddr: 0x10013CC30, symSize: 0x2C }
  - { offsetInCU: 0xACDD7, offset: 0xACDD7, size: 0x8, addend: 0x0, symName: __ZNSt3__130__uninitialized_allocator_copyB8ue170006INS_9allocatorIN5Catch5clara6detail11HelpColumnsEEENS_11__wrap_iterIPS5_EES9_S8_EET2_RT_T0_T1_SA_, symObjAddr: 0x13BBA0, symBinAddr: 0x10013CCDC, symSize: 0x498 }
  - { offsetInCU: 0xACE84, offset: 0xACE84, size: 0x8, addend: 0x0, symName: __ZNSt3__114__unwrap_rangeB8ue170006INS_11__wrap_iterIPN5Catch5clara6detail11HelpColumnsEEES7_EEDaT_T0_, symObjAddr: 0x13C038, symBinAddr: 0x10013D174, symSize: 0x3CC }
  - { offsetInCU: 0xACEDA, offset: 0xACEDA, size: 0x8, addend: 0x0, symName: __ZNSt3__135__uninitialized_allocator_copy_implB8ue170006INS_9allocatorIN5Catch5clara6detail11HelpColumnsEEEPS5_S7_S7_EET2_RT_T0_T1_S8_, symObjAddr: 0x13C404, symBinAddr: 0x10013D540, symSize: 0x520 }
  - { offsetInCU: 0xAD0AF, offset: 0xAD0AF, size: 0x8, addend: 0x0, symName: __ZNSt3__113__unwrap_iterB8ue170006INS_11__wrap_iterIPN5Catch5clara6detail11HelpColumnsEEENS_18__unwrap_iter_implIS7_Lb1EEELi0EEEDTclsrT0_8__unwrapclsr3stdE7declvalIT_EEEESB_, symObjAddr: 0x13CDB4, symBinAddr: 0x10013DEF0, symSize: 0x274 }
  - { offsetInCU: 0xAD152, offset: 0xAD152, size: 0x8, addend: 0x0, symName: __ZNSt3__112__to_addressB8ue170006INS_11__wrap_iterIPN5Catch5clara6detail11HelpColumnsEEEvEEu7__decayIDTclsr19__to_address_helperIT_EE6__callclsr3stdE7declvalIRKS8_EEEEESA_, symObjAddr: 0x13D254, symBinAddr: 0x10013E390, symSize: 0x24 }
  - { offsetInCU: 0xAD1F7, offset: 0xAD1F7, size: 0x8, addend: 0x0, symName: __ZNSt3__112construct_atB8ue170006IN5Catch5clara6detail11HelpColumnsEJRS4_EPS4_EEPT_S8_DpOT0_, symObjAddr: 0x13D7D4, symBinAddr: 0x10013E910, symSize: 0x3C }
  - { offsetInCU: 0xAD26F, offset: 0xAD26F, size: 0x8, addend: 0x0, symName: __ZNSt3__113move_backwardB8ue170006IPN5Catch5clara6detail11HelpColumnsES5_EET0_T_S7_S6_, symObjAddr: 0x13D840, symBinAddr: 0x10013E97C, symSize: 0x26C }
  - { offsetInCU: 0xAD2D0, offset: 0xAD2D0, size: 0x8, addend: 0x0, symName: __ZNSt3__112construct_atB8ue170006IN5Catch5clara6detail11HelpColumnsEJS4_EPS4_EEPT_S7_DpOT0_, symObjAddr: 0x13DAAC, symBinAddr: 0x10013EBE8, symSize: 0x3C }
  - { offsetInCU: 0xAD348, offset: 0xAD348, size: 0x8, addend: 0x0, symName: __ZNSt3__115__move_backwardB8ue170006INS_17_ClassicAlgPolicyEPN5Catch5clara6detail11HelpColumnsES6_S6_EENS_4pairIT0_T2_EES8_T1_S9_, symObjAddr: 0x13DB64, symBinAddr: 0x10013ECA0, symSize: 0x22C }
  - { offsetInCU: 0xAD3BB, offset: 0xAD3BB, size: 0x8, addend: 0x0, symName: __ZNSt3__123__dispatch_copy_or_moveB8ue170006INS_17_ClassicAlgPolicyENS_20__move_backward_loopIS1_EENS_23__move_backward_trivialEPN5Catch5clara6detail11HelpColumnsES9_S9_EENS_4pairIT2_T4_EESB_T3_SC_, symObjAddr: 0x13DD90, symBinAddr: 0x10013EECC, symSize: 0x22C }
  - { offsetInCU: 0xAD440, offset: 0xAD440, size: 0x8, addend: 0x0, symName: __ZNSt3__121__unwrap_and_dispatchB8ue170006INS_10__overloadINS_20__move_backward_loopINS_17_ClassicAlgPolicyEEENS_23__move_backward_trivialEEEPN5Catch5clara6detail11HelpColumnsESB_SB_Li0EEENS_4pairIT0_T2_EESD_T1_SE_, symObjAddr: 0x13DFBC, symBinAddr: 0x10013F0F8, symSize: 0x5A4 }
  - { offsetInCU: 0xAD4E0, offset: 0xAD4E0, size: 0x8, addend: 0x0, symName: __ZNSt3__114__unwrap_rangeB8ue170006IPN5Catch5clara6detail11HelpColumnsES5_EEDaT_T0_, symObjAddr: 0x13E560, symBinAddr: 0x10013F69C, symSize: 0x224 }
  - { offsetInCU: 0xAD5C4, offset: 0xAD5C4, size: 0x8, addend: 0x0, symName: __ZNSt3__19make_pairB8ue170006IPN5Catch5clara6detail11HelpColumnsES5_EENS_4pairINS_18__unwrap_ref_decayIT_E4typeENS7_IT0_E4typeEEEOS8_OSB_, symObjAddr: 0x13EC74, symBinAddr: 0x10013FDB0, symSize: 0x20C }
  - { offsetInCU: 0xAD616, offset: 0xAD616, size: 0x8, addend: 0x0, symName: __ZNSt3__114__rewrap_rangeB8ue170006IPN5Catch5clara6detail11HelpColumnsES5_S5_EET0_S6_T1_, symObjAddr: 0x13EE80, symBinAddr: 0x10013FFBC, symSize: 0x2C }
  - { offsetInCU: 0xAD6E8, offset: 0xAD6E8, size: 0x8, addend: 0x0, symName: __ZNSt3__16__copyB8ue170006INS_17_ClassicAlgPolicyENS_11__wrap_iterIPN5Catch5clara6detail11HelpColumnsEEES8_S7_EENS_4pairIT0_T2_EESA_T1_SB_, symObjAddr: 0x13F2B4, symBinAddr: 0x1001403F0, symSize: 0x3E4 }
  - { offsetInCU: 0xAD761, offset: 0xAD761, size: 0x8, addend: 0x0, symName: __ZNSt3__123__dispatch_copy_or_moveB8ue170006INS_17_ClassicAlgPolicyENS_11__copy_loopIS1_EENS_14__copy_trivialENS_11__wrap_iterIPN5Catch5clara6detail11HelpColumnsEEESB_SA_EENS_4pairIT2_T4_EESD_T3_SE_, symObjAddr: 0x13F698, symBinAddr: 0x1001407D4, symSize: 0x3E4 }
  - { offsetInCU: 0xAD7EC, offset: 0xAD7EC, size: 0x8, addend: 0x0, symName: __ZNSt3__121__unwrap_and_dispatchB8ue170006INS_10__overloadINS_11__copy_loopINS_17_ClassicAlgPolicyEEENS_14__copy_trivialEEENS_11__wrap_iterIPN5Catch5clara6detail11HelpColumnsEEESD_SC_Li0EEENS_4pairIT0_T2_EESF_T1_SG_, symObjAddr: 0x13FA7C, symBinAddr: 0x100140BB8, symSize: 0x768 }
  - { offsetInCU: 0xADA67, offset: 0xADA67, size: 0x8, addend: 0x0, symName: __ZNSt3__19make_pairB8ue170006INS_11__wrap_iterIPN5Catch5clara6detail11HelpColumnsEEES6_EENS_4pairINS_18__unwrap_ref_decayIT_E4typeENS9_IT0_E4typeEEEOSA_OSD_, symObjAddr: 0x14063C, symBinAddr: 0x100141778, symSize: 0x20C }
  - { offsetInCU: 0xADAB9, offset: 0xADAB9, size: 0x8, addend: 0x0, symName: __ZNSt3__114__rewrap_rangeB8ue170006INS_11__wrap_iterIPN5Catch5clara6detail11HelpColumnsEEES7_S6_EET0_S8_T1_, symObjAddr: 0x140848, symBinAddr: 0x100141984, symSize: 0x324 }
  - { offsetInCU: 0xADBF1, offset: 0xADBF1, size: 0x8, addend: 0x0, symName: __ZNSt3__113__rewrap_iterB8ue170006INS_11__wrap_iterIPN5Catch5clara6detail11HelpColumnsEEES6_NS_18__unwrap_iter_implIS7_Lb1EEEEET_SA_T0_, symObjAddr: 0x140FE4, symBinAddr: 0x100142120, symSize: 0x338 }
  - { offsetInCU: 0xADC4D, offset: 0xADC4D, size: 0x8, addend: 0x0, symName: __ZNSt3__142__uninitialized_allocator_move_if_noexceptB8ue170006INS_9allocatorIN5Catch5clara6detail11HelpColumnsEEENS_16reverse_iteratorIPS5_EES9_S9_EET2_RT_T0_T1_SA_, symObjAddr: 0x1421F0, symBinAddr: 0x10014332C, symSize: 0x53C }
  - { offsetInCU: 0xADD02, offset: 0xADD02, size: 0x8, addend: 0x0, symName: __ZNSt3__142__uninitialized_allocator_move_if_noexceptB8ue170006INS_9allocatorIN5Catch5clara6detail11HelpColumnsEEEPS5_S7_S7_EET2_RT_T0_T1_S8_, symObjAddr: 0x14272C, symBinAddr: 0x100143868, symSize: 0x520 }
  - { offsetInCU: 0xADDAF, offset: 0xADDAF, size: 0x8, addend: 0x0, symName: __ZNSt3__14swapB8ue170006IPN5Catch5clara6detail11HelpColumnsEEENS_9enable_ifIXaasr21is_move_constructibleIT_EE5valuesr18is_move_assignableIS7_EE5valueEvE4typeERS7_SA_, symObjAddr: 0x142C4C, symBinAddr: 0x100143D88, symSize: 0x134 }
  - { offsetInCU: 0xADE04, offset: 0xADE04, size: 0x8, addend: 0x0, symName: __ZNSt3__122__make_exception_guardB8ue170006INS_29_AllocatorDestroyRangeReverseINS_9allocatorIN5Catch5clara6detail11HelpColumnsEEENS_16reverse_iteratorIPS6_EEEEEENS_28__exception_guard_exceptionsIT_EESD_, symObjAddr: 0x142D80, symBinAddr: 0x100143EBC, symSize: 0x1F8 }
  - { offsetInCU: 0xADE3C, offset: 0xADE3C, size: 0x8, addend: 0x0, symName: __ZNSt3__119__allocator_destroyB8ue170006INS_9allocatorIN5Catch5clara6detail11HelpColumnsEEENS_16reverse_iteratorINS7_IPS5_EEEESA_EEvRT_T0_T1_, symObjAddr: 0x143728, symBinAddr: 0x100144864, symSize: 0x70 }
  - { offsetInCU: 0xADEA2, offset: 0xADEA2, size: 0x8, addend: 0x0, symName: __ZNSt3__1neB8ue170006INS_16reverse_iteratorIPN5Catch5clara6detail11HelpColumnsEEES7_EEbRKNS1_IT_EERKNS1_IT0_EE, symObjAddr: 0x1439E0, symBinAddr: 0x100144B1C, symSize: 0x2CC }
  - { offsetInCU: 0xADEF3, offset: 0xADEF3, size: 0x8, addend: 0x0, symName: __ZNSt3__112__to_addressB8ue170006INS_16reverse_iteratorINS1_IPN5Catch5clara6detail11HelpColumnsEEEEEvEEu7__decayIDTclsr19__to_address_helperIT_EE6__callclsr3stdE7declvalIRKS9_EEEEESB_, symObjAddr: 0x143CAC, symBinAddr: 0x100144DE8, symSize: 0x24 }
  - { offsetInCU: 0xADF56, offset: 0xADF56, size: 0x8, addend: 0x0, symName: __ZNSt3__14prevB8ue170006INS_16reverse_iteratorIPN5Catch5clara6detail11HelpColumnsEEEEENS_9enable_ifIXsr29__has_input_iterator_categoryIT_EE5valueES9_E4typeES9_NS_15iterator_traitsIS9_E15difference_typeE, symObjAddr: 0x1441F0, symBinAddr: 0x10014532C, symSize: 0x294 }
  - { offsetInCU: 0xADFA1, offset: 0xADFA1, size: 0x8, addend: 0x0, symName: __ZNSt3__19__advanceB8ue170006INS_16reverse_iteratorIPN5Catch5clara6detail11HelpColumnsEEEEEvRT_NS_15iterator_traitsIS8_E15difference_typeENS_26random_access_iterator_tagE, symObjAddr: 0x1444BC, symBinAddr: 0x1001455F8, symSize: 0x2C }
  - { offsetInCU: 0xADFEE, offset: 0xADFEE, size: 0x8, addend: 0x0, symName: __ZNSt3__110__distanceB8ue170006INS_11__wrap_iterIPN5Catch5clara6detail11HelpColumnsEEEEENS_15iterator_traitsIT_E15difference_typeES9_S9_NS_26random_access_iterator_tagE, symObjAddr: 0x144C54, symBinAddr: 0x100145D90, symSize: 0x274 }
  - { offsetInCU: 0xAE048, offset: 0xAE048, size: 0x8, addend: 0x0, symName: __ZNSt3__1miB8ue170006IPN5Catch5clara6detail11HelpColumnsES5_EEDTmicldtfp_4baseEcldtfp0_4baseEERKNS_11__wrap_iterIT_EERKNS7_IT0_EE, symObjAddr: 0x144EC8, symBinAddr: 0x100146004, symSize: 0x48 }
  - { offsetInCU: 0xAE097, offset: 0xAE097, size: 0x8, addend: 0x0, symName: __ZNSt3__1eqB8ue170006IPN5Catch5clara6detail11HelpColumnsEEEbRKNS_11__wrap_iterIT_EESA_, symObjAddr: 0x144F94, symBinAddr: 0x1001460D0, symSize: 0x48 }
  - { offsetInCU: 0xAE0DD, offset: 0xAE0DD, size: 0x8, addend: 0x0, symName: __ZNSt3__122__make_exception_guardB8ue170006INS_6vectorIN5Catch5clara8TextFlow6ColumnENS_9allocatorIS5_EEE16__destroy_vectorEEENS_28__exception_guard_exceptionsIT_EESB_, symObjAddr: 0x145B14, symBinAddr: 0x100146C50, symSize: 0x278 }
  - { offsetInCU: 0xAE117, offset: 0xAE117, size: 0x8, addend: 0x0, symName: __ZNSt3__130__uninitialized_allocator_copyB8ue170006INS_9allocatorIN5Catch5clara8TextFlow6ColumnEEEPS5_S7_S7_EET2_RT_T0_T1_S8_, symObjAddr: 0x146A88, symBinAddr: 0x100147BC4, symSize: 0x2DC }
  - { offsetInCU: 0xAE1BE, offset: 0xAE1BE, size: 0x8, addend: 0x0, symName: __ZNSt3__114__unwrap_rangeB8ue170006IPN5Catch5clara8TextFlow6ColumnES5_EEDaT_T0_, symObjAddr: 0x146D64, symBinAddr: 0x100147EA0, symSize: 0x224 }
  - { offsetInCU: 0xAE20E, offset: 0xAE20E, size: 0x8, addend: 0x0, symName: __ZNSt3__135__uninitialized_allocator_copy_implB8ue170006INS_9allocatorIN5Catch5clara8TextFlow6ColumnEEEPS5_S7_S7_EET2_RT_T0_T1_S8_, symObjAddr: 0x146F88, symBinAddr: 0x1001480C4, symSize: 0x520 }
  - { offsetInCU: 0xAE2BB, offset: 0xAE2BB, size: 0x8, addend: 0x0, symName: __ZNSt3__113__unwrap_iterB8ue170006IPN5Catch5clara8TextFlow6ColumnENS_18__unwrap_iter_implIS5_Lb1EEELi0EEEDTclsrT0_8__unwrapclsr3stdE7declvalIT_EEEES9_, symObjAddr: 0x1474A8, symBinAddr: 0x1001485E4, symSize: 0x24 }
  - { offsetInCU: 0xAE302, offset: 0xAE302, size: 0x8, addend: 0x0, symName: __ZNSt3__113__rewrap_iterB8ue170006IPN5Catch5clara8TextFlow6ColumnES5_NS_18__unwrap_iter_implIS5_Lb1EEEEET_S8_T0_, symObjAddr: 0x1474CC, symBinAddr: 0x100148608, symSize: 0x48 }
  - { offsetInCU: 0xAE467, offset: 0xAE467, size: 0x8, addend: 0x0, symName: __ZNSt3__122__make_exception_guardB8ue170006INS_29_AllocatorDestroyRangeReverseINS_9allocatorIN5Catch5clara8TextFlow6ColumnEEEPS6_EEEENS_28__exception_guard_exceptionsIT_EESB_, symObjAddr: 0x147994, symBinAddr: 0x100148AD0, symSize: 0x1F8 }
  - { offsetInCU: 0xAE4A0, offset: 0xAE4A0, size: 0x8, addend: 0x0, symName: __ZNSt3__112construct_atB8ue170006IN5Catch5clara8TextFlow6ColumnEJRS4_EPS4_EEPT_S8_DpOT0_, symObjAddr: 0x147E94, symBinAddr: 0x100148FD0, symSize: 0x3C }
  - { offsetInCU: 0xAE517, offset: 0xAE517, size: 0x8, addend: 0x0, symName: __ZNSt3__119__allocator_destroyB8ue170006INS_9allocatorIN5Catch5clara8TextFlow6ColumnEEENS_16reverse_iteratorIPS5_EES9_EEvRT_T0_T1_, symObjAddr: 0x148328, symBinAddr: 0x100149464, symSize: 0x2B8 }
  - { offsetInCU: 0xAE5DC, offset: 0xAE5DC, size: 0x8, addend: 0x0, symName: __ZNSt3__18distanceB8ue170006IPKPKcEENS_15iterator_traitsIT_E15difference_typeES6_S6_, symObjAddr: 0x149CD0, symBinAddr: 0x10014AE0C, symSize: 0x2C }
  - { offsetInCU: 0xAE622, offset: 0xAE622, size: 0x8, addend: 0x0, symName: __ZNSt3__110__distanceB8ue170006IPKPKcEENS_15iterator_traitsIT_E15difference_typeES6_S6_NS_26random_access_iterator_tagE, symObjAddr: 0x14A0C4, symBinAddr: 0x10014B200, symSize: 0x28 }
  - { offsetInCU: 0xAE673, offset: 0xAE673, size: 0x8, addend: 0x0, symName: __ZNSt3__122__make_exception_guardB8ue170006INS_6vectorINS_12basic_stringIcNS_11char_traitsIcEENS_9allocatorIcEEEENS5_IS7_EEE16__destroy_vectorEEENS_28__exception_guard_exceptionsIT_EESC_, symObjAddr: 0x14A0EC, symBinAddr: 0x10014B228, symSize: 0x278 }
  - { offsetInCU: 0xAE6AE, offset: 0xAE6AE, size: 0x8, addend: 0x0, symName: __ZNSt3__119__allocate_at_leastB8ue170006INS_9allocatorINS_12basic_stringIcNS_11char_traitsIcEENS1_IcEEEEEEEENS_19__allocation_resultINS_16allocator_traitsIT_E7pointerEEERSA_m, symObjAddr: 0x14B420, symBinAddr: 0x10014C55C, symSize: 0x28C }
  - { offsetInCU: 0xAE6F6, offset: 0xAE6F6, size: 0x8, addend: 0x0, symName: __ZNSt3__112__to_addressB8ue170006INS_12basic_stringIcNS_11char_traitsIcEENS_9allocatorIcEEEEEEPT_S8_, symObjAddr: 0x14B9E8, symBinAddr: 0x10014CB24, symSize: 0x14 }
  - { offsetInCU: 0xAE72C, offset: 0xAE72C, size: 0x8, addend: 0x0, symName: __ZNSt3__130__uninitialized_allocator_copyB8ue170006INS_9allocatorINS_12basic_stringIcNS_11char_traitsIcEENS1_IcEEEEEEPKPKcSB_PS6_EET2_RT_T0_T1_SD_, symObjAddr: 0x14BA98, symBinAddr: 0x10014CBD4, symSize: 0x2DC }
  - { offsetInCU: 0xAE7D3, offset: 0xAE7D3, size: 0x8, addend: 0x0, symName: __ZNSt3__114__unwrap_rangeB8ue170006IPKPKcS4_EEDaT_T0_, symObjAddr: 0x14C070, symBinAddr: 0x10014D1AC, symSize: 0x224 }
  - { offsetInCU: 0xAE823, offset: 0xAE823, size: 0x8, addend: 0x0, symName: __ZNSt3__135__uninitialized_allocator_copy_implB8ue170006INS_9allocatorINS_12basic_stringIcNS_11char_traitsIcEENS1_IcEEEEEEPKPKcSB_PS6_EET2_RT_T0_T1_SD_, symObjAddr: 0x14C294, symBinAddr: 0x10014D3D0, symSize: 0x520 }
  - { offsetInCU: 0xAE8D0, offset: 0xAE8D0, size: 0x8, addend: 0x0, symName: __ZNSt3__113__unwrap_iterB8ue170006IPNS_12basic_stringIcNS_11char_traitsIcEENS_9allocatorIcEEEENS_18__unwrap_iter_implIS7_Lb1EEELi0EEEDTclsrT0_8__unwrapclsr3stdE7declvalIT_EEEESB_, symObjAddr: 0x14C7B4, symBinAddr: 0x10014D8F0, symSize: 0x24 }
  - { offsetInCU: 0xAE917, offset: 0xAE917, size: 0x8, addend: 0x0, symName: __ZNSt3__113__rewrap_iterB8ue170006IPNS_12basic_stringIcNS_11char_traitsIcEENS_9allocatorIcEEEES7_NS_18__unwrap_iter_implIS7_Lb1EEEEET_SA_T0_, symObjAddr: 0x14C7D8, symBinAddr: 0x10014D914, symSize: 0x48 }
  - { offsetInCU: 0xAEA7C, offset: 0xAEA7C, size: 0x8, addend: 0x0, symName: __ZNSt3__113__unwrap_iterB8ue170006IPKPKcNS_18__unwrap_iter_implIS4_Lb1EEELi0EEEDTclsrT0_8__unwrapclsr3stdE7declvalIT_EEEES8_, symObjAddr: 0x14CB2C, symBinAddr: 0x10014DC68, symSize: 0x24 }
  - { offsetInCU: 0xAEB1B, offset: 0xAEB1B, size: 0x8, addend: 0x0, symName: __ZNSt3__112__to_addressB8ue170006IKPKcEEPT_S5_, symObjAddr: 0x14CBB0, symBinAddr: 0x10014DCEC, symSize: 0x14 }
  - { offsetInCU: 0xAEB52, offset: 0xAEB52, size: 0x8, addend: 0x0, symName: __ZNSt3__122__make_exception_guardB8ue170006INS_29_AllocatorDestroyRangeReverseINS_9allocatorINS_12basic_stringIcNS_11char_traitsIcEENS2_IcEEEEEEPS7_EEEENS_28__exception_guard_exceptionsIT_EESC_, symObjAddr: 0x14CCFC, symBinAddr: 0x10014DE38, symSize: 0x1F8 }
  - { offsetInCU: 0xAEB8B, offset: 0xAEB8B, size: 0x8, addend: 0x0, symName: __ZNSt3__112construct_atB8ue170006INS_12basic_stringIcNS_11char_traitsIcEENS_9allocatorIcEEEEJRKPKcEPS6_EEPT_SD_DpOT0_, symObjAddr: 0x14D1FC, symBinAddr: 0x10014E338, symSize: 0x80 }
  - { offsetInCU: 0xAEC02, offset: 0xAEC02, size: 0x8, addend: 0x0, symName: __ZNSt3__119__allocator_destroyB8ue170006INS_9allocatorINS_12basic_stringIcNS_11char_traitsIcEENS1_IcEEEEEENS_16reverse_iteratorIPS6_EESA_EEvRT_T0_T1_, symObjAddr: 0x14D6D4, symBinAddr: 0x10014E810, symSize: 0x2B8 }
  - { offsetInCU: 0xAEC6F, offset: 0xAEC6F, size: 0x8, addend: 0x0, symName: __ZNSt3__1neB8ue170006IPNS_12basic_stringIcNS_11char_traitsIcEENS_9allocatorIcEEEES7_EEbRKNS_16reverse_iteratorIT_EERKNS8_IT0_EE, symObjAddr: 0x14D9C0, symBinAddr: 0x10014EAFC, symSize: 0x48 }
  - { offsetInCU: 0xAECBE, offset: 0xAECBE, size: 0x8, addend: 0x0, symName: __ZNSt3__112__to_addressB8ue170006INS_16reverse_iteratorIPNS_12basic_stringIcNS_11char_traitsIcEENS_9allocatorIcEEEEEEvEEu7__decayIDTclsr19__to_address_helperIT_EE6__callclsr3stdE7declvalIRKSA_EEEEESC_, symObjAddr: 0x14DA08, symBinAddr: 0x10014EB44, symSize: 0x24 }
  - { offsetInCU: 0xAED21, offset: 0xAED21, size: 0x8, addend: 0x0, symName: __ZNSt3__14prevB8ue170006IPNS_12basic_stringIcNS_11char_traitsIcEENS_9allocatorIcEEEEEENS_9enable_ifIXsr29__has_input_iterator_categoryIT_EE5valueES9_E4typeES9_NS_15iterator_traitsIS9_E15difference_typeE, symObjAddr: 0x14DBAC, symBinAddr: 0x10014ECE8, symSize: 0x240 }
  - { offsetInCU: 0xAED6C, offset: 0xAED6C, size: 0x8, addend: 0x0, symName: __ZNSt3__19__advanceB8ue170006IPNS_12basic_stringIcNS_11char_traitsIcEENS_9allocatorIcEEEEEEvRT_NS_15iterator_traitsIS8_E15difference_typeENS_26random_access_iterator_tagE, symObjAddr: 0x14DE24, symBinAddr: 0x10014EF60, symSize: 0x80 }
  - { offsetInCU: 0xAEE11, offset: 0xAEE11, size: 0x8, addend: 0x0, symName: __ZNSt3__18distanceB8ue170006IPNS_12basic_stringIcNS_11char_traitsIcEENS_9allocatorIcEEEEEENS_15iterator_traitsIT_E15difference_typeES9_S9_, symObjAddr: 0x14EF4C, symBinAddr: 0x100150088, symSize: 0x2C }
  - { offsetInCU: 0xAEE57, offset: 0xAEE57, size: 0x8, addend: 0x0, symName: __ZNSt3__14nextB8ue170006IPNS_12basic_stringIcNS_11char_traitsIcEENS_9allocatorIcEEEEEENS_9enable_ifIXsr29__has_input_iterator_categoryIT_EE5valueES9_E4typeES9_NS_15iterator_traitsIS9_E15difference_typeE, symObjAddr: 0x14EF78, symBinAddr: 0x1001500B4, symSize: 0x238 }
  - { offsetInCU: 0xAEEA2, offset: 0xAEEA2, size: 0x8, addend: 0x0, symName: __ZNSt3__14copyB8ue170006IPNS_12basic_stringIcNS_11char_traitsIcEENS_9allocatorIcEEEES7_EET0_T_S9_S8_, symObjAddr: 0x14F1B0, symBinAddr: 0x1001502EC, symSize: 0x26C }
  - { offsetInCU: 0xAEF03, offset: 0xAEF03, size: 0x8, addend: 0x0, symName: __ZNSt3__16__copyB8ue170006INS_17_ClassicAlgPolicyEPNS_12basic_stringIcNS_11char_traitsIcEENS_9allocatorIcEEEES8_S8_EENS_4pairIT0_T2_EESA_T1_SB_, symObjAddr: 0x14F79C, symBinAddr: 0x1001508D8, symSize: 0x22C }
  - { offsetInCU: 0xAEF75, offset: 0xAEF75, size: 0x8, addend: 0x0, symName: __ZNSt3__130__uninitialized_allocator_copyB8ue170006INS_9allocatorINS_12basic_stringIcNS_11char_traitsIcEENS1_IcEEEEEEPS6_S8_S8_EET2_RT_T0_T1_S9_, symObjAddr: 0x14FF2C, symBinAddr: 0x100151068, symSize: 0x2DC }
  - { offsetInCU: 0xAF01C, offset: 0xAF01C, size: 0x8, addend: 0x0, symName: __ZNSt3__114__unwrap_rangeB8ue170006IPNS_12basic_stringIcNS_11char_traitsIcEENS_9allocatorIcEEEES7_EEDaT_T0_, symObjAddr: 0x150208, symBinAddr: 0x100151344, symSize: 0x224 }
  - { offsetInCU: 0xAF06C, offset: 0xAF06C, size: 0x8, addend: 0x0, symName: __ZNSt3__135__uninitialized_allocator_copy_implB8ue170006INS_9allocatorINS_12basic_stringIcNS_11char_traitsIcEENS1_IcEEEEEEPS6_S8_S8_EET2_RT_T0_T1_S9_, symObjAddr: 0x15042C, symBinAddr: 0x100151568, symSize: 0x520 }
  - { offsetInCU: 0xAF241, offset: 0xAF241, size: 0x8, addend: 0x0, symName: __ZNSt3__112construct_atB8ue170006INS_12basic_stringIcNS_11char_traitsIcEENS_9allocatorIcEEEEJRS6_EPS6_EEPT_SA_DpOT0_, symObjAddr: 0x150DFC, symBinAddr: 0x100151F38, symSize: 0x3C }
  - { offsetInCU: 0xAF2B9, offset: 0xAF2B9, size: 0x8, addend: 0x0, symName: __ZNSt3__123__dispatch_copy_or_moveB8ue170006INS_17_ClassicAlgPolicyENS_11__copy_loopIS1_EENS_14__copy_trivialEPNS_12basic_stringIcNS_11char_traitsIcEENS_9allocatorIcEEEESB_SB_EENS_4pairIT2_T4_EESD_T3_SE_, symObjAddr: 0x150E38, symBinAddr: 0x100151F74, symSize: 0x22C }
  - { offsetInCU: 0xAF33E, offset: 0xAF33E, size: 0x8, addend: 0x0, symName: __ZNSt3__121__unwrap_and_dispatchB8ue170006INS_10__overloadINS_11__copy_loopINS_17_ClassicAlgPolicyEEENS_14__copy_trivialEEEPNS_12basic_stringIcNS_11char_traitsIcEENS_9allocatorIcEEEESD_SD_Li0EEENS_4pairIT0_T2_EESF_T1_SG_, symObjAddr: 0x151064, symBinAddr: 0x1001521A0, symSize: 0x5A4 }
  - { offsetInCU: 0xAF3DD, offset: 0xAF3DD, size: 0x8, addend: 0x0, symName: __ZNSt3__19make_pairB8ue170006IPNS_12basic_stringIcNS_11char_traitsIcEENS_9allocatorIcEEEES7_EENS_4pairINS_18__unwrap_ref_decayIT_E4typeENS9_IT0_E4typeEEEOSA_OSD_, symObjAddr: 0x151A60, symBinAddr: 0x100152B9C, symSize: 0x20C }
  - { offsetInCU: 0xAF42F, offset: 0xAF42F, size: 0x8, addend: 0x0, symName: __ZNSt3__114__rewrap_rangeB8ue170006IPNS_12basic_stringIcNS_11char_traitsIcEENS_9allocatorIcEEEES7_S7_EET0_S8_T1_, symObjAddr: 0x151C6C, symBinAddr: 0x100152DA8, symSize: 0x2C }
  - { offsetInCU: 0xAF487, offset: 0xAF487, size: 0x8, addend: 0x0, symName: __ZNSt3__110__distanceB8ue170006IPNS_12basic_stringIcNS_11char_traitsIcEENS_9allocatorIcEEEEEENS_15iterator_traitsIT_E15difference_typeES9_S9_NS_26random_access_iterator_tagE, symObjAddr: 0x151CC4, symBinAddr: 0x100152E00, symSize: 0x28 }
  - { offsetInCU: 0xAF4D8, offset: 0xAF4D8, size: 0x8, addend: 0x0, symName: __ZNSt3__18distanceB8ue170006IPN5Catch5clara6detail3OptEEENS_15iterator_traitsIT_E15difference_typeES7_S7_, symObjAddr: 0x152BE0, symBinAddr: 0x100153D1C, symSize: 0x2C }
  - { offsetInCU: 0xAF51E, offset: 0xAF51E, size: 0x8, addend: 0x0, symName: __ZNSt3__14nextB8ue170006IPN5Catch5clara6detail3OptEEENS_9enable_ifIXsr29__has_input_iterator_categoryIT_EE5valueES7_E4typeES7_NS_15iterator_traitsIS7_E15difference_typeE, symObjAddr: 0x152C0C, symBinAddr: 0x100153D48, symSize: 0x238 }
  - { offsetInCU: 0xAF569, offset: 0xAF569, size: 0x8, addend: 0x0, symName: __ZNSt3__14copyB8ue170006IPN5Catch5clara6detail3OptES5_EET0_T_S7_S6_, symObjAddr: 0x152E44, symBinAddr: 0x100153F80, symSize: 0x26C }
  - { offsetInCU: 0xAF5CA, offset: 0xAF5CA, size: 0x8, addend: 0x0, symName: __ZNSt3__16__copyB8ue170006INS_17_ClassicAlgPolicyEPN5Catch5clara6detail3OptES6_S6_EENS_4pairIT0_T2_EES8_T1_S9_, symObjAddr: 0x153430, symBinAddr: 0x10015456C, symSize: 0x22C }
  - { offsetInCU: 0xAF63D, offset: 0xAF63D, size: 0x8, addend: 0x0, symName: __ZNSt3__19__advanceB8ue170006IPN5Catch5clara6detail3OptEEEvRT_NS_15iterator_traitsIS6_E15difference_typeENS_26random_access_iterator_tagE, symObjAddr: 0x153E8C, symBinAddr: 0x100154FC8, symSize: 0x80 }
  - { offsetInCU: 0xAF689, offset: 0xAF689, size: 0x8, addend: 0x0, symName: __ZNSt3__130__uninitialized_allocator_copyB8ue170006INS_9allocatorIN5Catch5clara6detail3OptEEEPS5_S7_S7_EET2_RT_T0_T1_S8_, symObjAddr: 0x153F48, symBinAddr: 0x100155084, symSize: 0x2DC }
  - { offsetInCU: 0xAF730, offset: 0xAF730, size: 0x8, addend: 0x0, symName: __ZNSt3__114__unwrap_rangeB8ue170006IPN5Catch5clara6detail3OptES5_EEDaT_T0_, symObjAddr: 0x154520, symBinAddr: 0x10015565C, symSize: 0x224 }
  - { offsetInCU: 0xAF780, offset: 0xAF780, size: 0x8, addend: 0x0, symName: __ZNSt3__135__uninitialized_allocator_copy_implB8ue170006INS_9allocatorIN5Catch5clara6detail3OptEEEPS5_S7_S7_EET2_RT_T0_T1_S8_, symObjAddr: 0x154744, symBinAddr: 0x100155880, symSize: 0x520 }
  - { offsetInCU: 0xAF82D, offset: 0xAF82D, size: 0x8, addend: 0x0, symName: __ZNSt3__113__unwrap_iterB8ue170006IPN5Catch5clara6detail3OptENS_18__unwrap_iter_implIS5_Lb1EEELi0EEEDTclsrT0_8__unwrapclsr3stdE7declvalIT_EEEES9_, symObjAddr: 0x154C64, symBinAddr: 0x100155DA0, symSize: 0x24 }
  - { offsetInCU: 0xAF874, offset: 0xAF874, size: 0x8, addend: 0x0, symName: __ZNSt3__113__rewrap_iterB8ue170006IPN5Catch5clara6detail3OptES5_NS_18__unwrap_iter_implIS5_Lb1EEEEET_S8_T0_, symObjAddr: 0x154C88, symBinAddr: 0x100155DC4, symSize: 0x48 }
  - { offsetInCU: 0xAF9FA, offset: 0xAF9FA, size: 0x8, addend: 0x0, symName: __ZNSt3__122__make_exception_guardB8ue170006INS_29_AllocatorDestroyRangeReverseINS_9allocatorIN5Catch5clara6detail3OptEEEPS6_EEEENS_28__exception_guard_exceptionsIT_EESB_, symObjAddr: 0x155150, symBinAddr: 0x10015628C, symSize: 0x1F8 }
  - { offsetInCU: 0xAFA5A, offset: 0xAFA5A, size: 0x8, addend: 0x0, symName: __ZNSt3__112construct_atB8ue170006IN5Catch5clara6detail3OptEJRS4_EPS4_EEPT_S8_DpOT0_, symObjAddr: 0x155650, symBinAddr: 0x10015678C, symSize: 0x3C }
  - { offsetInCU: 0xAFAD1, offset: 0xAFAD1, size: 0x8, addend: 0x0, symName: __ZNSt3__119__allocator_destroyB8ue170006INS_9allocatorIN5Catch5clara6detail3OptEEENS_16reverse_iteratorIPS5_EES9_EEvRT_T0_T1_, symObjAddr: 0x155EDC, symBinAddr: 0x100157018, symSize: 0x2B8 }
  - { offsetInCU: 0xAFB3E, offset: 0xAFB3E, size: 0x8, addend: 0x0, symName: __ZNSt3__1neB8ue170006IPN5Catch5clara6detail3OptES5_EEbRKNS_16reverse_iteratorIT_EERKNS6_IT0_EE, symObjAddr: 0x1561C8, symBinAddr: 0x100157304, symSize: 0x48 }
  - { offsetInCU: 0xAFB8D, offset: 0xAFB8D, size: 0x8, addend: 0x0, symName: __ZNSt3__112__to_addressB8ue170006INS_16reverse_iteratorIPN5Catch5clara6detail3OptEEEvEEu7__decayIDTclsr19__to_address_helperIT_EE6__callclsr3stdE7declvalIRKS8_EEEEESA_, symObjAddr: 0x156210, symBinAddr: 0x10015734C, symSize: 0x24 }
  - { offsetInCU: 0xAFBF0, offset: 0xAFBF0, size: 0x8, addend: 0x0, symName: __ZNSt3__14prevB8ue170006IPN5Catch5clara6detail3OptEEENS_9enable_ifIXsr29__has_input_iterator_categoryIT_EE5valueES7_E4typeES7_NS_15iterator_traitsIS7_E15difference_typeE, symObjAddr: 0x1563B4, symBinAddr: 0x1001574F0, symSize: 0x240 }
  - { offsetInCU: 0xAFC93, offset: 0xAFC93, size: 0x8, addend: 0x0, symName: __ZNSt3__123__dispatch_copy_or_moveB8ue170006INS_17_ClassicAlgPolicyENS_11__copy_loopIS1_EENS_14__copy_trivialEPN5Catch5clara6detail3OptES9_S9_EENS_4pairIT2_T4_EESB_T3_SC_, symObjAddr: 0x1569A0, symBinAddr: 0x100157ADC, symSize: 0x22C }
  - { offsetInCU: 0xAFD18, offset: 0xAFD18, size: 0x8, addend: 0x0, symName: __ZNSt3__121__unwrap_and_dispatchB8ue170006INS_10__overloadINS_11__copy_loopINS_17_ClassicAlgPolicyEEENS_14__copy_trivialEEEPN5Catch5clara6detail3OptESB_SB_Li0EEENS_4pairIT0_T2_EESD_T1_SE_, symObjAddr: 0x156BCC, symBinAddr: 0x100157D08, symSize: 0x5A4 }
  - { offsetInCU: 0xAFDB7, offset: 0xAFDB7, size: 0x8, addend: 0x0, symName: __ZNSt3__19make_pairB8ue170006IPN5Catch5clara6detail3OptES5_EENS_4pairINS_18__unwrap_ref_decayIT_E4typeENS7_IT0_E4typeEEEOS8_OSB_, symObjAddr: 0x1575C8, symBinAddr: 0x100158704, symSize: 0x20C }
  - { offsetInCU: 0xAFE09, offset: 0xAFE09, size: 0x8, addend: 0x0, symName: __ZNSt3__114__rewrap_rangeB8ue170006IPN5Catch5clara6detail3OptES5_S5_EET0_S6_T1_, symObjAddr: 0x1577D4, symBinAddr: 0x100158910, symSize: 0x2C }
  - { offsetInCU: 0xAFE61, offset: 0xAFE61, size: 0x8, addend: 0x0, symName: __ZNSt3__14swapB8ue170006IPN5Catch5clara6detail8BoundRefEEENS_9enable_ifIXaasr21is_move_constructibleIT_EE5valuesr18is_move_assignableIS7_EE5valueEvE4typeERS7_SA_, symObjAddr: 0x157C04, symBinAddr: 0x100158D40, symSize: 0x134 }
  - { offsetInCU: 0xAFEB6, offset: 0xAFEB6, size: 0x8, addend: 0x0, symName: __ZNSt3__119__allocate_at_leastB8ue170006INS_9allocatorIN5Catch5clara6detail3OptEEEEENS_19__allocation_resultINS_16allocator_traitsIT_E7pointerEEERS9_m, symObjAddr: 0x158080, symBinAddr: 0x1001591BC, symSize: 0x28C }
  - { offsetInCU: 0xAFEFE, offset: 0xAFEFE, size: 0x8, addend: 0x0, symName: __ZNSt3__110__distanceB8ue170006IPN5Catch5clara6detail3OptEEENS_15iterator_traitsIT_E15difference_typeES7_S7_NS_26random_access_iterator_tagE, symObjAddr: 0x1584D0, symBinAddr: 0x10015960C, symSize: 0x28 }
  - { offsetInCU: 0xAFF4F, offset: 0xAFF4F, size: 0x8, addend: 0x0, symName: __ZNSt3__18distanceB8ue170006IPN5Catch5clara6detail3ArgEEENS_15iterator_traitsIT_E15difference_typeES7_S7_, symObjAddr: 0x15899C, symBinAddr: 0x100159AD8, symSize: 0x2C }
  - { offsetInCU: 0xAFF95, offset: 0xAFF95, size: 0x8, addend: 0x0, symName: __ZNSt3__14nextB8ue170006IPN5Catch5clara6detail3ArgEEENS_9enable_ifIXsr29__has_input_iterator_categoryIT_EE5valueES7_E4typeES7_NS_15iterator_traitsIS7_E15difference_typeE, symObjAddr: 0x1589C8, symBinAddr: 0x100159B04, symSize: 0x238 }
  - { offsetInCU: 0xAFFE0, offset: 0xAFFE0, size: 0x8, addend: 0x0, symName: __ZNSt3__14copyB8ue170006IPN5Catch5clara6detail3ArgES5_EET0_T_S7_S6_, symObjAddr: 0x158C00, symBinAddr: 0x100159D3C, symSize: 0x26C }
  - { offsetInCU: 0xB0041, offset: 0xB0041, size: 0x8, addend: 0x0, symName: __ZNSt3__16__copyB8ue170006INS_17_ClassicAlgPolicyEPN5Catch5clara6detail3ArgES6_S6_EENS_4pairIT0_T2_EES8_T1_S9_, symObjAddr: 0x1591EC, symBinAddr: 0x10015A328, symSize: 0x22C }
  - { offsetInCU: 0xB00B4, offset: 0xB00B4, size: 0x8, addend: 0x0, symName: __ZNSt3__19__advanceB8ue170006IPN5Catch5clara6detail3ArgEEEvRT_NS_15iterator_traitsIS6_E15difference_typeENS_26random_access_iterator_tagE, symObjAddr: 0x159C48, symBinAddr: 0x10015AD84, symSize: 0x80 }
  - { offsetInCU: 0xB0100, offset: 0xB0100, size: 0x8, addend: 0x0, symName: __ZNSt3__130__uninitialized_allocator_copyB8ue170006INS_9allocatorIN5Catch5clara6detail3ArgEEEPS5_S7_S7_EET2_RT_T0_T1_S8_, symObjAddr: 0x159D04, symBinAddr: 0x10015AE40, symSize: 0x2DC }
  - { offsetInCU: 0xB01A7, offset: 0xB01A7, size: 0x8, addend: 0x0, symName: __ZNSt3__114__unwrap_rangeB8ue170006IPN5Catch5clara6detail3ArgES5_EEDaT_T0_, symObjAddr: 0x15A2DC, symBinAddr: 0x10015B418, symSize: 0x224 }
  - { offsetInCU: 0xB01F7, offset: 0xB01F7, size: 0x8, addend: 0x0, symName: __ZNSt3__135__uninitialized_allocator_copy_implB8ue170006INS_9allocatorIN5Catch5clara6detail3ArgEEEPS5_S7_S7_EET2_RT_T0_T1_S8_, symObjAddr: 0x15A500, symBinAddr: 0x10015B63C, symSize: 0x520 }
  - { offsetInCU: 0xB02A4, offset: 0xB02A4, size: 0x8, addend: 0x0, symName: __ZNSt3__113__unwrap_iterB8ue170006IPN5Catch5clara6detail3ArgENS_18__unwrap_iter_implIS5_Lb1EEELi0EEEDTclsrT0_8__unwrapclsr3stdE7declvalIT_EEEES9_, symObjAddr: 0x15AA20, symBinAddr: 0x10015BB5C, symSize: 0x24 }
  - { offsetInCU: 0xB02EB, offset: 0xB02EB, size: 0x8, addend: 0x0, symName: __ZNSt3__113__rewrap_iterB8ue170006IPN5Catch5clara6detail3ArgES5_NS_18__unwrap_iter_implIS5_Lb1EEEEET_S8_T0_, symObjAddr: 0x15AA44, symBinAddr: 0x10015BB80, symSize: 0x48 }
  - { offsetInCU: 0xB0471, offset: 0xB0471, size: 0x8, addend: 0x0, symName: __ZNSt3__122__make_exception_guardB8ue170006INS_29_AllocatorDestroyRangeReverseINS_9allocatorIN5Catch5clara6detail3ArgEEEPS6_EEEENS_28__exception_guard_exceptionsIT_EESB_, symObjAddr: 0x15AF0C, symBinAddr: 0x10015C048, symSize: 0x1F8 }
  - { offsetInCU: 0xB04D1, offset: 0xB04D1, size: 0x8, addend: 0x0, symName: __ZNSt3__112construct_atB8ue170006IN5Catch5clara6detail3ArgEJRS4_EPS4_EEPT_S8_DpOT0_, symObjAddr: 0x15B40C, symBinAddr: 0x10015C548, symSize: 0x3C }
  - { offsetInCU: 0xB0548, offset: 0xB0548, size: 0x8, addend: 0x0, symName: __ZNSt3__119__allocator_destroyB8ue170006INS_9allocatorIN5Catch5clara6detail3ArgEEENS_16reverse_iteratorIPS5_EES9_EEvRT_T0_T1_, symObjAddr: 0x15BBE4, symBinAddr: 0x10015CD20, symSize: 0x2B8 }
  - { offsetInCU: 0xB05B5, offset: 0xB05B5, size: 0x8, addend: 0x0, symName: __ZNSt3__1neB8ue170006IPN5Catch5clara6detail3ArgES5_EEbRKNS_16reverse_iteratorIT_EERKNS6_IT0_EE, symObjAddr: 0x15BED0, symBinAddr: 0x10015D00C, symSize: 0x48 }
  - { offsetInCU: 0xB0604, offset: 0xB0604, size: 0x8, addend: 0x0, symName: __ZNSt3__112__to_addressB8ue170006INS_16reverse_iteratorIPN5Catch5clara6detail3ArgEEEvEEu7__decayIDTclsr19__to_address_helperIT_EE6__callclsr3stdE7declvalIRKS8_EEEEESA_, symObjAddr: 0x15BF18, symBinAddr: 0x10015D054, symSize: 0x24 }
  - { offsetInCU: 0xB0667, offset: 0xB0667, size: 0x8, addend: 0x0, symName: __ZNSt3__14prevB8ue170006IPN5Catch5clara6detail3ArgEEENS_9enable_ifIXsr29__has_input_iterator_categoryIT_EE5valueES7_E4typeES7_NS_15iterator_traitsIS7_E15difference_typeE, symObjAddr: 0x15C0BC, symBinAddr: 0x10015D1F8, symSize: 0x240 }
  - { offsetInCU: 0xB070A, offset: 0xB070A, size: 0x8, addend: 0x0, symName: __ZNSt3__123__dispatch_copy_or_moveB8ue170006INS_17_ClassicAlgPolicyENS_11__copy_loopIS1_EENS_14__copy_trivialEPN5Catch5clara6detail3ArgES9_S9_EENS_4pairIT2_T4_EESB_T3_SC_, symObjAddr: 0x15C6A8, symBinAddr: 0x10015D7E4, symSize: 0x22C }
  - { offsetInCU: 0xB078F, offset: 0xB078F, size: 0x8, addend: 0x0, symName: __ZNSt3__121__unwrap_and_dispatchB8ue170006INS_10__overloadINS_11__copy_loopINS_17_ClassicAlgPolicyEEENS_14__copy_trivialEEEPN5Catch5clara6detail3ArgESB_SB_Li0EEENS_4pairIT0_T2_EESD_T1_SE_, symObjAddr: 0x15C8D4, symBinAddr: 0x10015DA10, symSize: 0x5A4 }
  - { offsetInCU: 0xB082E, offset: 0xB082E, size: 0x8, addend: 0x0, symName: __ZNSt3__19make_pairB8ue170006IPN5Catch5clara6detail3ArgES5_EENS_4pairINS_18__unwrap_ref_decayIT_E4typeENS7_IT0_E4typeEEEOS8_OSB_, symObjAddr: 0x15D2D0, symBinAddr: 0x10015E40C, symSize: 0x20C }
  - { offsetInCU: 0xB0880, offset: 0xB0880, size: 0x8, addend: 0x0, symName: __ZNSt3__114__rewrap_rangeB8ue170006IPN5Catch5clara6detail3ArgES5_S5_EET0_S6_T1_, symObjAddr: 0x15D4DC, symBinAddr: 0x10015E618, symSize: 0x2C }
  - { offsetInCU: 0xB08D8, offset: 0xB08D8, size: 0x8, addend: 0x0, symName: __ZNSt3__119__allocate_at_leastB8ue170006INS_9allocatorIN5Catch5clara6detail3ArgEEEEENS_19__allocation_resultINS_16allocator_traitsIT_E7pointerEEERS9_m, symObjAddr: 0x15DA08, symBinAddr: 0x10015EB44, symSize: 0x28C }
  - { offsetInCU: 0xB0920, offset: 0xB0920, size: 0x8, addend: 0x0, symName: __ZNSt3__110__distanceB8ue170006IPN5Catch5clara6detail3ArgEEENS_15iterator_traitsIT_E15difference_typeES7_S7_NS_26random_access_iterator_tagE, symObjAddr: 0x15DE58, symBinAddr: 0x10015EF94, symSize: 0x28 }
  - { offsetInCU: 0xB0971, offset: 0xB0971, size: 0x8, addend: 0x0, symName: __ZNSt3__112construct_atB8ue170006INS_12basic_stringIcNS_11char_traitsIcEENS_9allocatorIcEEEEJS6_EPS6_EEPT_S9_DpOT0_, symObjAddr: 0x15E6F0, symBinAddr: 0x10015F82C, symSize: 0x3C }
  - { offsetInCU: 0xB09E8, offset: 0xB09E8, size: 0x8, addend: 0x0, symName: __ZNSt3__142__uninitialized_allocator_move_if_noexceptB8ue170006INS_9allocatorINS_12basic_stringIcNS_11char_traitsIcEENS1_IcEEEEEENS_16reverse_iteratorIPS6_EESA_SA_EET2_RT_T0_T1_SB_, symObjAddr: 0x15F428, symBinAddr: 0x100160564, symSize: 0x53C }
  - { offsetInCU: 0xB0A9E, offset: 0xB0A9E, size: 0x8, addend: 0x0, symName: __ZNSt3__122__make_exception_guardB8ue170006INS_29_AllocatorDestroyRangeReverseINS_9allocatorINS_12basic_stringIcNS_11char_traitsIcEENS2_IcEEEEEENS_16reverse_iteratorIPS7_EEEEEENS_28__exception_guard_exceptionsIT_EESE_, symObjAddr: 0x15F964, symBinAddr: 0x100160AA0, symSize: 0x1F8 }
  - { offsetInCU: 0xB0AD6, offset: 0xB0AD6, size: 0x8, addend: 0x0, symName: __ZNSt3__119__allocator_destroyB8ue170006INS_9allocatorINS_12basic_stringIcNS_11char_traitsIcEENS1_IcEEEEEENS_16reverse_iteratorINS8_IPS6_EEEESB_EEvRT_T0_T1_, symObjAddr: 0x16030C, symBinAddr: 0x100161448, symSize: 0x70 }
  - { offsetInCU: 0xB0B3C, offset: 0xB0B3C, size: 0x8, addend: 0x0, symName: __ZNSt3__1neB8ue170006INS_16reverse_iteratorIPNS_12basic_stringIcNS_11char_traitsIcEENS_9allocatorIcEEEEEES9_EEbRKNS1_IT_EERKNS1_IT0_EE, symObjAddr: 0x1605C4, symBinAddr: 0x100161700, symSize: 0x2CC }
  - { offsetInCU: 0xB0B8D, offset: 0xB0B8D, size: 0x8, addend: 0x0, symName: __ZNSt3__112__to_addressB8ue170006INS_16reverse_iteratorINS1_IPNS_12basic_stringIcNS_11char_traitsIcEENS_9allocatorIcEEEEEEEEvEEu7__decayIDTclsr19__to_address_helperIT_EE6__callclsr3stdE7declvalIRKSB_EEEEESD_, symObjAddr: 0x160890, symBinAddr: 0x1001619CC, symSize: 0x24 }
  - { offsetInCU: 0xB0BF0, offset: 0xB0BF0, size: 0x8, addend: 0x0, symName: __ZNSt3__14prevB8ue170006INS_16reverse_iteratorIPNS_12basic_stringIcNS_11char_traitsIcEENS_9allocatorIcEEEEEEEENS_9enable_ifIXsr29__has_input_iterator_categoryIT_EE5valueESB_E4typeESB_NS_15iterator_traitsISB_E15difference_typeE, symObjAddr: 0x160DD4, symBinAddr: 0x100161F10, symSize: 0x294 }
  - { offsetInCU: 0xB0C3B, offset: 0xB0C3B, size: 0x8, addend: 0x0, symName: __ZNSt3__19__advanceB8ue170006INS_16reverse_iteratorIPNS_12basic_stringIcNS_11char_traitsIcEENS_9allocatorIcEEEEEEEEvRT_NS_15iterator_traitsISA_E15difference_typeENS_26random_access_iterator_tagE, symObjAddr: 0x1610A0, symBinAddr: 0x1001621DC, symSize: 0x2C }
  - { offsetInCU: 0xB0C88, offset: 0xB0C88, size: 0x8, addend: 0x0, symName: __ZNSt3__13minB8ue170006IiNS_6__lessIvvEEEERKT_S5_S5_T0_, symObjAddr: 0x161794, symBinAddr: 0x1001628D0, symSize: 0x1E8 }
  - { offsetInCU: 0xB0CEC, offset: 0xB0CEC, size: 0x8, addend: 0x0, symName: __ZNSt3__1neB8ue170006IPN5Catch8TestSpec11FilterMatchEEEbRKNS_11__wrap_iterIT_EES9_, symObjAddr: 0x163608, symBinAddr: 0x100164744, symSize: 0x34 }
  - { offsetInCU: 0xB0D32, offset: 0xB0D32, size: 0x8, addend: 0x0, symName: __ZNSt3__1neB8ue170006IPKNS_10shared_ptrIN5Catch16IReporterFactoryEEEEEbRKNS_11__wrap_iterIT_EESB_, symObjAddr: 0x164CBC, symBinAddr: 0x100165DF8, symSize: 0x34 }
  - { offsetInCU: 0xB0D78, offset: 0xB0D78, size: 0x8, addend: 0x0, symName: __ZNSt3__1eqB8ue170006IPKNS_10shared_ptrIN5Catch16IReporterFactoryEEEEEbRKNS_11__wrap_iterIT_EESB_, symObjAddr: 0x165458, symBinAddr: 0x100166594, symSize: 0x48 }
  - { offsetInCU: 0xB0DBE, offset: 0xB0DBE, size: 0x8, addend: 0x0, symName: __ZNSt3__112__to_addressB8ue170006IN5Catch8TestSpec11FilterMatchEEEPT_S5_, symObjAddr: 0x1669C0, symBinAddr: 0x100167AFC, symSize: 0x14 }
  - { offsetInCU: 0xB0DF5, offset: 0xB0DF5, size: 0x8, addend: 0x0, symName: __ZNSt3__110destroy_atB8ue170006IN5Catch8TestSpec11FilterMatchELi0EEEvPT_, symObjAddr: 0x1669D4, symBinAddr: 0x100167B10, symSize: 0x24 }
  - { offsetInCU: 0xB0E2F, offset: 0xB0E2F, size: 0x8, addend: 0x0, symName: __ZNSt3__112__destroy_atB8ue170006IN5Catch8TestSpec11FilterMatchELi0EEEvPT_, symObjAddr: 0x1669F8, symBinAddr: 0x100167B34, symSize: 0x24 }
  - { offsetInCU: 0xB0E69, offset: 0xB0E69, size: 0x8, addend: 0x0, symName: __ZNSt3__112__to_addressB8ue170006IPKN5Catch8TestCaseEEEPT_S6_, symObjAddr: 0x1672F4, symBinAddr: 0x100168430, symSize: 0x14 }
  - { offsetInCU: 0xB0EA0, offset: 0xB0EA0, size: 0x8, addend: 0x0, symName: __ZNSt3__110destroy_atB8ue170006IPKN5Catch8TestCaseELi0EEEvPT_, symObjAddr: 0x167308, symBinAddr: 0x100168444, symSize: 0x24 }
  - { offsetInCU: 0xB0EDA, offset: 0xB0EDA, size: 0x8, addend: 0x0, symName: __ZNSt3__112__destroy_atB8ue170006IPKN5Catch8TestCaseELi0EEEvPT_, symObjAddr: 0x16732C, symBinAddr: 0x100168468, symSize: 0x10 }
  - { offsetInCU: 0xB0F65, offset: 0xB0F65, size: 0x8, addend: 0x0, symName: __ZNSt3__112construct_atB8ue170006IPKN5Catch8TestCaseEJS4_EPS4_EEPT_S7_DpOT0_, symObjAddr: 0x1696E4, symBinAddr: 0x10016A820, symSize: 0xB8 }
  - { offsetInCU: 0xB0FDC, offset: 0xB0FDC, size: 0x8, addend: 0x0, symName: __ZNSt3__127__tree_balance_after_insertB8ue170006IPNS_16__tree_node_baseIPvEEEEvT_S5_, symObjAddr: 0x169810, symBinAddr: 0x10016A94C, symSize: 0x960 }
  - { offsetInCU: 0xB1051, offset: 0xB1051, size: 0x8, addend: 0x0, symName: __ZNSt3__120__tree_is_left_childB8ue170006IPNS_16__tree_node_baseIPvEEEEbT_, symObjAddr: 0x16A1FC, symBinAddr: 0x10016B338, symSize: 0xB8 }
  - { offsetInCU: 0xB1087, offset: 0xB1087, size: 0x8, addend: 0x0, symName: __ZNSt3__118__tree_left_rotateB8ue170006IPNS_16__tree_node_baseIPvEEEEvT_, symObjAddr: 0x16A2B4, symBinAddr: 0x10016B3F0, symSize: 0x374 }
  - { offsetInCU: 0xB10C9, offset: 0xB10C9, size: 0x8, addend: 0x0, symName: __ZNSt3__119__tree_right_rotateB8ue170006IPNS_16__tree_node_baseIPvEEEEvT_, symObjAddr: 0x16A628, symBinAddr: 0x10016B764, symSize: 0x354 }
  - { offsetInCU: 0xB110C, offset: 0xB110C, size: 0x8, addend: 0x0, symName: __ZNSt3__1eqB8ue170006IPN5Catch8TestSpec11FilterMatchEEEbRKNS_11__wrap_iterIT_EES9_, symObjAddr: 0x16B934, symBinAddr: 0x10016CA70, symSize: 0x48 }
  - { offsetInCU: 0xB1152, offset: 0xB1152, size: 0x8, addend: 0x0, symName: __ZNSt3__1neB8ue170006IPKPKN5Catch8TestCaseEEEbRKNS_11__wrap_iterIT_EESB_, symObjAddr: 0x16BC10, symBinAddr: 0x10016CD4C, symSize: 0x34 }
  - { offsetInCU: 0xB1198, offset: 0xB1198, size: 0x8, addend: 0x0, symName: __ZNSt3__1eqB8ue170006IPKPKN5Catch8TestCaseEEEbRKNS_11__wrap_iterIT_EESB_, symObjAddr: 0x16C58C, symBinAddr: 0x10016D6C8, symSize: 0x48 }
  - { offsetInCU: 0xB11DD, offset: 0xB11DD, size: 0x8, addend: 0x0, symName: __ZNSt3__1eqB8ue170006ERKNS_21__tree_const_iteratorIPKN5Catch8TestCaseEPNS_11__tree_nodeIS4_PvEElEESB_, symObjAddr: 0x16DC14, symBinAddr: 0x10016ED50, symSize: 0xB8 }
  - { offsetInCU: 0xB121B, offset: 0xB121B, size: 0x8, addend: 0x0, symName: __ZNSt3__14nextB8ue170006INS_21__tree_const_iteratorIPKN5Catch8TestCaseEPNS_11__tree_nodeIS5_PvEElEEEENS_9enable_ifIXsr29__has_input_iterator_categoryIT_EE5valueESC_E4typeESC_NS_15iterator_traitsISC_E15difference_typeE, symObjAddr: 0x16E1D8, symBinAddr: 0x10016F314, symSize: 0x288 }
  - { offsetInCU: 0xB1266, offset: 0xB1266, size: 0x8, addend: 0x0, symName: __ZNSt3__116__tree_prev_iterB8ue170006IPNS_16__tree_node_baseIPvEEPNS_15__tree_end_nodeIS4_EEEET_T0_, symObjAddr: 0x16E564, symBinAddr: 0x10016F6A0, symSize: 0xFC }
  - { offsetInCU: 0xB12B5, offset: 0xB12B5, size: 0x8, addend: 0x0, symName: __ZNSt3__110__tree_maxB8ue170006IPNS_16__tree_node_baseIPvEEEET_S5_, symObjAddr: 0x16E660, symBinAddr: 0x10016F79C, symSize: 0xCC }
  - { offsetInCU: 0xB12EC, offset: 0xB12EC, size: 0x8, addend: 0x0, symName: __ZNSt3__19__advanceB8ue170006INS_21__tree_const_iteratorIPKN5Catch8TestCaseEPNS_11__tree_nodeIS5_PvEElEEEEvRT_NS_15iterator_traitsISB_E15difference_typeENS_26bidirectional_iterator_tagE, symObjAddr: 0x16E764, symBinAddr: 0x10016F8A0, symSize: 0xA4 }
  - { offsetInCU: 0xB1339, offset: 0xB1339, size: 0x8, addend: 0x0, symName: __ZNSt3__116__tree_next_iterB8ue170006IPNS_15__tree_end_nodeIPNS_16__tree_node_baseIPvEEEES5_EET_T0_, symObjAddr: 0x16E8B0, symBinAddr: 0x10016F9EC, symSize: 0x134 }
  - { offsetInCU: 0xB1379, offset: 0xB1379, size: 0x8, addend: 0x0, symName: __ZNSt3__110__tree_minB8ue170006IPNS_16__tree_node_baseIPvEEEET_S5_, symObjAddr: 0x16E9E4, symBinAddr: 0x10016FB20, symSize: 0xC4 }
  - { offsetInCU: 0xB13B0, offset: 0xB13B0, size: 0x8, addend: 0x0, symName: __ZNSt3__112construct_atB8ue170006IPKN5Catch8TestCaseEJRKS4_EPS4_EEPT_S9_DpOT0_, symObjAddr: 0x16EAD8, symBinAddr: 0x10016FC14, symSize: 0xB8 }
  - { offsetInCU: 0xB1427, offset: 0xB1427, size: 0x8, addend: 0x0, symName: __ZNSt3__1neB8ue170006ERKNS_21__tree_const_iteratorIPKN5Catch8TestCaseEPNS_11__tree_nodeIS4_PvEElEESB_, symObjAddr: 0x16F554, symBinAddr: 0x100170690, symSize: 0x34 }
  - { offsetInCU: 0xB1465, offset: 0xB1465, size: 0x8, addend: 0x0, symName: __ZNSt3__13maxB8ue170006IiNS_6__lessIvvEEEERKT_S5_S5_T0_, symObjAddr: 0x16F638, symBinAddr: 0x100170774, symSize: 0x1E8 }
  - { offsetInCU: 0xB14C9, offset: 0xB14C9, size: 0x8, addend: 0x0, symName: __ZNSt3__112__to_addressB8ue170006IPN5Catch10ISingletonEEEPT_S5_, symObjAddr: 0x1704F0, symBinAddr: 0x10017162C, symSize: 0x14 }
  - { offsetInCU: 0xB1527, offset: 0xB1527, size: 0x8, addend: 0x0, symName: __ZNSt3__112construct_atB8ue170006IPN5Catch10ISingletonEJRKS3_EPS3_EEPT_S8_DpOT0_, symObjAddr: 0x170A60, symBinAddr: 0x100171B9C, symSize: 0xB8 }
  - { offsetInCU: 0xB159F, offset: 0xB159F, size: 0x8, addend: 0x0, symName: __ZNSt3__119__allocate_at_leastB8ue170006INS_9allocatorIPN5Catch10ISingletonEEEEENS_19__allocation_resultINS_16allocator_traitsIT_E7pointerEEERS8_m, symObjAddr: 0x1720F0, symBinAddr: 0x10017322C, symSize: 0x28C }
  - { offsetInCU: 0xB15E6, offset: 0xB15E6, size: 0x8, addend: 0x0, symName: __ZNSt3__142__uninitialized_allocator_move_if_noexceptB8ue170006INS_9allocatorIPN5Catch10ISingletonEEENS_16reverse_iteratorIPS4_EES8_S4_vEET1_RT_T0_SC_S9_, symObjAddr: 0x172658, symBinAddr: 0x100173794, symSize: 0x4A8 }
  - { offsetInCU: 0xB1671, offset: 0xB1671, size: 0x8, addend: 0x0, symName: __ZNSt3__14swapB8ue170006IPPN5Catch10ISingletonEEENS_9enable_ifIXaasr21is_move_constructibleIT_EE5valuesr18is_move_assignableIS6_EE5valueEvE4typeERS6_S9_, symObjAddr: 0x172B98, symBinAddr: 0x100173CD4, symSize: 0x134 }
  - { offsetInCU: 0xB16C6, offset: 0xB16C6, size: 0x8, addend: 0x0, symName: __ZNSt3__14moveB8ue170006INS_16reverse_iteratorIPPN5Catch10ISingletonEEES6_EET0_T_S8_S7_, symObjAddr: 0x172D8C, symBinAddr: 0x100173EC8, symSize: 0x4B0 }
  - { offsetInCU: 0xB1731, offset: 0xB1731, size: 0x8, addend: 0x0, symName: __ZNSt3__16__moveB8ue170006INS_17_ClassicAlgPolicyENS_16reverse_iteratorIPPN5Catch10ISingletonEEES7_S7_EENS_4pairIT0_T2_EES9_T1_SA_, symObjAddr: 0x17323C, symBinAddr: 0x100174378, symSize: 0x424 }
  - { offsetInCU: 0xB17AD, offset: 0xB17AD, size: 0x8, addend: 0x0, symName: __ZNSt3__123__dispatch_copy_or_moveB8ue170006INS_17_ClassicAlgPolicyENS_11__move_loopIS1_EENS_14__move_trivialENS_16reverse_iteratorIPPN5Catch10ISingletonEEESA_SA_EENS_4pairIT2_T4_EESC_T3_SD_, symObjAddr: 0x173660, symBinAddr: 0x10017479C, symSize: 0x424 }
  - { offsetInCU: 0xB183B, offset: 0xB183B, size: 0x8, addend: 0x0, symName: __ZNSt3__121__unwrap_and_dispatchB8ue170006INS_10__overloadINS_11__move_loopINS_17_ClassicAlgPolicyEEENS_14__move_trivialEEENS_16reverse_iteratorIPPN5Catch10ISingletonEEESC_SC_Li0EEENS_4pairIT0_T2_EESE_T1_SF_, symObjAddr: 0x173A84, symBinAddr: 0x100174BC0, symSize: 0x880 }
  - { offsetInCU: 0xB18E6, offset: 0xB18E6, size: 0x8, addend: 0x0, symName: __ZNSt3__114__unwrap_rangeB8ue170006INS_16reverse_iteratorIPPN5Catch10ISingletonEEES6_EEDaT_T0_, symObjAddr: 0x174304, symBinAddr: 0x100175440, symSize: 0x35C }
  - { offsetInCU: 0xB1A18, offset: 0xB1A18, size: 0x8, addend: 0x0, symName: __ZNSt3__113__unwrap_iterB8ue170006INS_16reverse_iteratorIPPN5Catch10ISingletonEEENS_18__unwrap_iter_implIS6_Lb0EEELi0EEEDTclsrT0_8__unwrapclsr3stdE7declvalIT_EEEESA_, symObjAddr: 0x174A08, symBinAddr: 0x100175B44, symSize: 0x2EC }
  - { offsetInCU: 0xB1A62, offset: 0xB1A62, size: 0x8, addend: 0x0, symName: __ZNSt3__19make_pairB8ue170006INS_16reverse_iteratorIPPN5Catch10ISingletonEEES6_EENS_4pairINS_18__unwrap_ref_decayIT_E4typeENS8_IT0_E4typeEEEOS9_OSC_, symObjAddr: 0x174CF4, symBinAddr: 0x100175E30, symSize: 0x38 }
  - { offsetInCU: 0xB1AB2, offset: 0xB1AB2, size: 0x8, addend: 0x0, symName: __ZNSt3__114__rewrap_rangeB8ue170006INS_16reverse_iteratorIPPN5Catch10ISingletonEEES6_S6_EET0_S7_T1_, symObjAddr: 0x174D2C, symBinAddr: 0x100175E68, symSize: 0x3D4 }
  - { offsetInCU: 0xB1B12, offset: 0xB1B12, size: 0x8, addend: 0x0, symName: __ZNSt3__113__rewrap_iterB8ue170006INS_16reverse_iteratorIPPN5Catch10ISingletonEEES6_NS_18__unwrap_iter_implIS6_Lb0EEEEET_S9_T0_, symObjAddr: 0x175100, symBinAddr: 0x10017623C, symSize: 0x3E8 }
  - { offsetInCU: 0xB1BC5, offset: 0xB1BC5, size: 0x8, addend: 0x0, symName: __ZNSt3__1neB8ue170006IPPN5Catch10ISingletonES4_EEbRKNS_16reverse_iteratorIT_EERKNS5_IT0_EE, symObjAddr: 0x1759C0, symBinAddr: 0x100176AFC, symSize: 0x48 }
  - { offsetInCU: 0xB1C87, offset: 0xB1C87, size: 0x8, addend: 0x0, symName: __ZNSt3__110destroy_atB8ue170006IPN5Catch10ISingletonELi0EEEvPT_, symObjAddr: 0x1768B0, symBinAddr: 0x1001779EC, symSize: 0x24 }
  - { offsetInCU: 0xB1CC1, offset: 0xB1CC1, size: 0x8, addend: 0x0, symName: __ZNSt3__112__destroy_atB8ue170006IPN5Catch10ISingletonELi0EEEvPT_, symObjAddr: 0x1768D4, symBinAddr: 0x100177A10, symSize: 0x10 }
  - { offsetInCU: 0xB1CFB, offset: 0xB1CFB, size: 0x8, addend: 0x0, symName: __ZNSt3__1eqB8ue170006IPPN5Catch10ISingletonEEEbRKNS_11__wrap_iterIT_EES9_, symObjAddr: 0x176C1C, symBinAddr: 0x100177D58, symSize: 0x48 }
  - { offsetInCU: 0xB1D41, offset: 0xB1D41, size: 0x8, addend: 0x0, symName: __ZNSt3__112__to_addressB8ue170006ISt13exception_ptrEEPT_S3_, symObjAddr: 0x177B20, symBinAddr: 0x100178C5C, symSize: 0x14 }
  - { offsetInCU: 0xB1D9F, offset: 0xB1D9F, size: 0x8, addend: 0x0, symName: __ZNSt3__112construct_atB8ue170006ISt13exception_ptrJRKS1_EPS1_EEPT_S6_DpOT0_, symObjAddr: 0x178090, symBinAddr: 0x1001791CC, symSize: 0x3C }
  - { offsetInCU: 0xB1E17, offset: 0xB1E17, size: 0x8, addend: 0x0, symName: __ZNSt3__119__allocate_at_leastB8ue170006INS_9allocatorISt13exception_ptrEEEENS_19__allocation_resultINS_16allocator_traitsIT_E7pointerEEERS6_m, symObjAddr: 0x1796A4, symBinAddr: 0x10017A7E0, symSize: 0x28C }
  - { offsetInCU: 0xB1E5E, offset: 0xB1E5E, size: 0x8, addend: 0x0, symName: __ZNSt3__142__uninitialized_allocator_move_if_noexceptB8ue170006INS_9allocatorISt13exception_ptrEENS_16reverse_iteratorIPS2_EES6_S6_EET2_RT_T0_T1_S7_, symObjAddr: 0x179C70, symBinAddr: 0x10017ADAC, symSize: 0x544 }
  - { offsetInCU: 0xB1F14, offset: 0xB1F14, size: 0x8, addend: 0x0, symName: __ZNSt3__14swapB8ue170006IPSt13exception_ptrEENS_9enable_ifIXaasr21is_move_constructibleIT_EE5valuesr18is_move_assignableIS4_EE5valueEvE4typeERS4_S7_, symObjAddr: 0x17A24C, symBinAddr: 0x10017B388, symSize: 0x134 }
  - { offsetInCU: 0xB1F69, offset: 0xB1F69, size: 0x8, addend: 0x0, symName: __ZNSt3__122__make_exception_guardB8ue170006INS_29_AllocatorDestroyRangeReverseINS_9allocatorISt13exception_ptrEENS_16reverse_iteratorIPS3_EEEEEENS_28__exception_guard_exceptionsIT_EESA_, symObjAddr: 0x17A440, symBinAddr: 0x10017B57C, symSize: 0x1F8 }
  - { offsetInCU: 0xB1FA2, offset: 0xB1FA2, size: 0x8, addend: 0x0, symName: __ZNSt3__1neB8ue170006IPSt13exception_ptrS2_EEbRKNS_16reverse_iteratorIT_EERKNS3_IT0_EE, symObjAddr: 0x17A67C, symBinAddr: 0x10017B7B8, symSize: 0x48 }
  - { offsetInCU: 0xB1FF1, offset: 0xB1FF1, size: 0x8, addend: 0x0, symName: __ZNSt3__112__to_addressB8ue170006INS_16reverse_iteratorIPSt13exception_ptrEEvEEu7__decayIDTclsr19__to_address_helperIT_EE6__callclsr3stdE7declvalIRKS5_EEEEES7_, symObjAddr: 0x17A6F4, symBinAddr: 0x10017B830, symSize: 0x24 }
  - { offsetInCU: 0xB2029, offset: 0xB2029, size: 0x8, addend: 0x0, symName: __ZNSt3__112construct_atB8ue170006ISt13exception_ptrJS1_EPS1_EEPT_S4_DpOT0_, symObjAddr: 0x17AA8C, symBinAddr: 0x10017BBC8, symSize: 0x3C }
  - { offsetInCU: 0xB20CC, offset: 0xB20CC, size: 0x8, addend: 0x0, symName: __ZNSt3__14prevB8ue170006IPSt13exception_ptrEENS_9enable_ifIXsr29__has_input_iterator_categoryIT_EE5valueES4_E4typeES4_NS_15iterator_traitsIS4_E15difference_typeE, symObjAddr: 0x17AB78, symBinAddr: 0x10017BCB4, symSize: 0x240 }
  - { offsetInCU: 0xB2117, offset: 0xB2117, size: 0x8, addend: 0x0, symName: __ZNSt3__19__advanceB8ue170006IPSt13exception_ptrEEvRT_NS_15iterator_traitsIS3_E15difference_typeENS_26random_access_iterator_tagE, symObjAddr: 0x17ADF0, symBinAddr: 0x10017BF2C, symSize: 0x78 }
  - { offsetInCU: 0xB2163, offset: 0xB2163, size: 0x8, addend: 0x0, symName: __ZNSt3__119__allocator_destroyB8ue170006INS_9allocatorISt13exception_ptrEENS_16reverse_iteratorINS4_IPS2_EEEES7_EEvRT_T0_T1_, symObjAddr: 0x17B2CC, symBinAddr: 0x10017C408, symSize: 0x70 }
  - { offsetInCU: 0xB21C9, offset: 0xB21C9, size: 0x8, addend: 0x0, symName: __ZNSt3__1neB8ue170006INS_16reverse_iteratorIPSt13exception_ptrEES4_EEbRKNS1_IT_EERKNS1_IT0_EE, symObjAddr: 0x17B584, symBinAddr: 0x10017C6C0, symSize: 0x2CC }
  - { offsetInCU: 0xB221A, offset: 0xB221A, size: 0x8, addend: 0x0, symName: __ZNSt3__112__to_addressB8ue170006INS_16reverse_iteratorINS1_IPSt13exception_ptrEEEEvEEu7__decayIDTclsr19__to_address_helperIT_EE6__callclsr3stdE7declvalIRKS6_EEEEES8_, symObjAddr: 0x17B878, symBinAddr: 0x10017C9B4, symSize: 0x24 }
  - { offsetInCU: 0xB2252, offset: 0xB2252, size: 0x8, addend: 0x0, symName: __ZNSt3__110destroy_atB8ue170006ISt13exception_ptrLi0EEEvPT_, symObjAddr: 0x17BAD8, symBinAddr: 0x10017CC14, symSize: 0x24 }
  - { offsetInCU: 0xB228C, offset: 0xB228C, size: 0x8, addend: 0x0, symName: __ZNSt3__112__destroy_atB8ue170006ISt13exception_ptrLi0EEEvPT_, symObjAddr: 0x17BAFC, symBinAddr: 0x10017CC38, symSize: 0x24 }
  - { offsetInCU: 0xB22F1, offset: 0xB22F1, size: 0x8, addend: 0x0, symName: __ZNSt3__14prevB8ue170006INS_16reverse_iteratorIPSt13exception_ptrEEEENS_9enable_ifIXsr29__has_input_iterator_categoryIT_EE5valueES6_E4typeES6_NS_15iterator_traitsIS6_E15difference_typeE, symObjAddr: 0x17BE04, symBinAddr: 0x10017CF40, symSize: 0x294 }
  - { offsetInCU: 0xB233C, offset: 0xB233C, size: 0x8, addend: 0x0, symName: __ZNSt3__19__advanceB8ue170006INS_16reverse_iteratorIPSt13exception_ptrEEEEvRT_NS_15iterator_traitsIS5_E15difference_typeENS_26random_access_iterator_tagE, symObjAddr: 0x17C0D0, symBinAddr: 0x10017D20C, symSize: 0x2C }
  - { offsetInCU: 0xB2389, offset: 0xB2389, size: 0x8, addend: 0x0, symName: __ZNSt3__112__to_addressB8ue170006INS_10unique_ptrINS_19basic_ostringstreamIcNS_11char_traitsIcEENS_9allocatorIcEEEENS_14default_deleteIS7_EEEEEEPT_SC_, symObjAddr: 0x17FAFC, symBinAddr: 0x100180C38, symSize: 0x14 }
  - { offsetInCU: 0xB23E7, offset: 0xB23E7, size: 0x8, addend: 0x0, symName: __ZNSt3__112construct_atB8ue170006INS_10unique_ptrINS_19basic_ostringstreamIcNS_11char_traitsIcEENS_9allocatorIcEEEENS_14default_deleteIS7_EEEEJSA_EPSA_EEPT_SD_DpOT0_, symObjAddr: 0x17FFBC, symBinAddr: 0x1001810F8, symSize: 0x3C }
  - { offsetInCU: 0xB245F, offset: 0xB245F, size: 0x8, addend: 0x0, symName: __ZNSt3__119__allocate_at_leastB8ue170006INS_9allocatorINS_10unique_ptrINS_19basic_ostringstreamIcNS_11char_traitsIcEENS1_IcEEEENS_14default_deleteIS7_EEEEEEEENS_19__allocation_resultINS_16allocator_traitsIT_E7pointerEEERSE_m, symObjAddr: 0x181AE4, symBinAddr: 0x100182C20, symSize: 0x28C }
  - { offsetInCU: 0xB24A6, offset: 0xB24A6, size: 0x8, addend: 0x0, symName: __ZNSt3__142__uninitialized_allocator_move_if_noexceptB8ue170006INS_9allocatorINS_10unique_ptrINS_19basic_ostringstreamIcNS_11char_traitsIcEENS1_IcEEEENS_14default_deleteIS7_EEEEEENS_16reverse_iteratorIPSA_EESE_SE_EET2_RT_T0_T1_SF_, symObjAddr: 0x1820B0, symBinAddr: 0x1001831EC, symSize: 0x544 }
  - { offsetInCU: 0xB255C, offset: 0xB255C, size: 0x8, addend: 0x0, symName: __ZNSt3__14swapB8ue170006IPNS_10unique_ptrINS_19basic_ostringstreamIcNS_11char_traitsIcEENS_9allocatorIcEEEENS_14default_deleteIS7_EEEEEENS_9enable_ifIXaasr21is_move_constructibleIT_EE5valuesr18is_move_assignableISD_EE5valueEvE4typeERSD_SG_, symObjAddr: 0x18268C, symBinAddr: 0x1001837C8, symSize: 0x134 }
  - { offsetInCU: 0xB25B1, offset: 0xB25B1, size: 0x8, addend: 0x0, symName: __ZNSt3__122__make_exception_guardB8ue170006INS_29_AllocatorDestroyRangeReverseINS_9allocatorINS_10unique_ptrINS_19basic_ostringstreamIcNS_11char_traitsIcEENS2_IcEEEENS_14default_deleteIS8_EEEEEENS_16reverse_iteratorIPSB_EEEEEENS_28__exception_guard_exceptionsIT_EESI_, symObjAddr: 0x182880, symBinAddr: 0x1001839BC, symSize: 0x1F8 }
  - { offsetInCU: 0xB25EA, offset: 0xB25EA, size: 0x8, addend: 0x0, symName: __ZNSt3__1neB8ue170006IPNS_10unique_ptrINS_19basic_ostringstreamIcNS_11char_traitsIcEENS_9allocatorIcEEEENS_14default_deleteIS7_EEEESB_EEbRKNS_16reverse_iteratorIT_EERKNSC_IT0_EE, symObjAddr: 0x182ABC, symBinAddr: 0x100183BF8, symSize: 0x48 }
  - { offsetInCU: 0xB2639, offset: 0xB2639, size: 0x8, addend: 0x0, symName: __ZNSt3__112__to_addressB8ue170006INS_16reverse_iteratorIPNS_10unique_ptrINS_19basic_ostringstreamIcNS_11char_traitsIcEENS_9allocatorIcEEEENS_14default_deleteIS8_EEEEEEvEEu7__decayIDTclsr19__to_address_helperIT_EE6__callclsr3stdE7declvalIRKSE_EEEEESG_, symObjAddr: 0x182B04, symBinAddr: 0x100183C40, symSize: 0x24 }
  - { offsetInCU: 0xB269C, offset: 0xB269C, size: 0x8, addend: 0x0, symName: __ZNSt3__14prevB8ue170006IPNS_10unique_ptrINS_19basic_ostringstreamIcNS_11char_traitsIcEENS_9allocatorIcEEEENS_14default_deleteIS7_EEEEEENS_9enable_ifIXsr29__has_input_iterator_categoryIT_EE5valueESD_E4typeESD_NS_15iterator_traitsISD_E15difference_typeE, symObjAddr: 0x182F4C, symBinAddr: 0x100184088, symSize: 0x240 }
  - { offsetInCU: 0xB26E7, offset: 0xB26E7, size: 0x8, addend: 0x0, symName: __ZNSt3__19__advanceB8ue170006IPNS_10unique_ptrINS_19basic_ostringstreamIcNS_11char_traitsIcEENS_9allocatorIcEEEENS_14default_deleteIS7_EEEEEEvRT_NS_15iterator_traitsISC_E15difference_typeENS_26random_access_iterator_tagE, symObjAddr: 0x1831C4, symBinAddr: 0x100184300, symSize: 0x78 }
  - { offsetInCU: 0xB2733, offset: 0xB2733, size: 0x8, addend: 0x0, symName: __ZNSt3__119__allocator_destroyB8ue170006INS_9allocatorINS_10unique_ptrINS_19basic_ostringstreamIcNS_11char_traitsIcEENS1_IcEEEENS_14default_deleteIS7_EEEEEENS_16reverse_iteratorINSC_IPSA_EEEESF_EEvRT_T0_T1_, symObjAddr: 0x1836A0, symBinAddr: 0x1001847DC, symSize: 0x70 }
  - { offsetInCU: 0xB2799, offset: 0xB2799, size: 0x8, addend: 0x0, symName: __ZNSt3__1neB8ue170006INS_16reverse_iteratorIPNS_10unique_ptrINS_19basic_ostringstreamIcNS_11char_traitsIcEENS_9allocatorIcEEEENS_14default_deleteIS8_EEEEEESD_EEbRKNS1_IT_EERKNS1_IT0_EE, symObjAddr: 0x183958, symBinAddr: 0x100184A94, symSize: 0x2CC }
  - { offsetInCU: 0xB27EA, offset: 0xB27EA, size: 0x8, addend: 0x0, symName: __ZNSt3__112__to_addressB8ue170006INS_16reverse_iteratorINS1_IPNS_10unique_ptrINS_19basic_ostringstreamIcNS_11char_traitsIcEENS_9allocatorIcEEEENS_14default_deleteIS8_EEEEEEEEvEEu7__decayIDTclsr19__to_address_helperIT_EE6__callclsr3stdE7declvalIRKSF_EEEEESH_, symObjAddr: 0x183C4C, symBinAddr: 0x100184D88, symSize: 0x24 }
  - { offsetInCU: 0xB2822, offset: 0xB2822, size: 0x8, addend: 0x0, symName: __ZNSt3__110destroy_atB8ue170006INS_10unique_ptrINS_19basic_ostringstreamIcNS_11char_traitsIcEENS_9allocatorIcEEEENS_14default_deleteIS7_EEEELi0EEEvPT_, symObjAddr: 0x183EAC, symBinAddr: 0x100184FE8, symSize: 0x24 }
  - { offsetInCU: 0xB285C, offset: 0xB285C, size: 0x8, addend: 0x0, symName: __ZNSt3__112__destroy_atB8ue170006INS_10unique_ptrINS_19basic_ostringstreamIcNS_11char_traitsIcEENS_9allocatorIcEEEENS_14default_deleteIS7_EEEELi0EEEvPT_, symObjAddr: 0x183ED0, symBinAddr: 0x10018500C, symSize: 0x24 }
  - { offsetInCU: 0xB28C1, offset: 0xB28C1, size: 0x8, addend: 0x0, symName: __ZNSt3__14prevB8ue170006INS_16reverse_iteratorIPNS_10unique_ptrINS_19basic_ostringstreamIcNS_11char_traitsIcEENS_9allocatorIcEEEENS_14default_deleteIS8_EEEEEEEENS_9enable_ifIXsr29__has_input_iterator_categoryIT_EE5valueESF_E4typeESF_NS_15iterator_traitsISF_E15difference_typeE, symObjAddr: 0x1841D8, symBinAddr: 0x100185314, symSize: 0x294 }
  - { offsetInCU: 0xB290C, offset: 0xB290C, size: 0x8, addend: 0x0, symName: __ZNSt3__19__advanceB8ue170006INS_16reverse_iteratorIPNS_10unique_ptrINS_19basic_ostringstreamIcNS_11char_traitsIcEENS_9allocatorIcEEEENS_14default_deleteIS8_EEEEEEEEvRT_NS_15iterator_traitsISE_E15difference_typeENS_26random_access_iterator_tagE, symObjAddr: 0x1844A4, symBinAddr: 0x1001855E0, symSize: 0x2C }
  - { offsetInCU: 0xB2959, offset: 0xB2959, size: 0x8, addend: 0x0, symName: __ZNSt3__15equalB8ue170006INS_11__wrap_iterIPKcEES4_NS_10__equal_toEEEbT_S6_T0_T1_, symObjAddr: 0x18540C, symBinAddr: 0x100186548, symSize: 0x44C }
  - { offsetInCU: 0xB29E0, offset: 0xB29E0, size: 0x8, addend: 0x0, symName: __ZNSt3__117__equal_iter_implB8ue170006IKcS1_NS_10__equal_toELi0EEEbPT_S4_PT0_RT1_, symObjAddr: 0x185858, symBinAddr: 0x100186994, symSize: 0x44 }
  - { offsetInCU: 0xB2A59, offset: 0xB2A59, size: 0x8, addend: 0x0, symName: __ZNSt3__113__unwrap_iterB8ue170006INS_11__wrap_iterIPKcEENS_18__unwrap_iter_implIS4_Lb1EEELi0EEEDTclsrT0_8__unwrapclsr3stdE7declvalIT_EEEES8_, symObjAddr: 0x18589C, symBinAddr: 0x1001869D8, symSize: 0x274 }
  - { offsetInCU: 0xB2AA4, offset: 0xB2AA4, size: 0x8, addend: 0x0, symName: __ZNSt3__124__constexpr_memcmp_equalB8ue170006IccEEbPKT_PKT0_NS_15__element_countE, symObjAddr: 0x185B10, symBinAddr: 0x100186C4C, symSize: 0x4C }
  - { offsetInCU: 0xB2B69, offset: 0xB2B69, size: 0x8, addend: 0x0, symName: __ZNSt3__112__to_addressB8ue170006INS_11__wrap_iterIPKcEEvEEu7__decayIDTclsr19__to_address_helperIT_EE6__callclsr3stdE7declvalIRKS5_EEEEES7_, symObjAddr: 0x185D4C, symBinAddr: 0x100186E88, symSize: 0x24 }
  - { offsetInCU: 0xB2C0E, offset: 0xB2C0E, size: 0x8, addend: 0x0, symName: __ZNSt3__15equalB8ue170006INS_16reverse_iteratorINS_11__wrap_iterIPKcEEEES6_NS_10__equal_toEEEbT_S8_T0_T1_, symObjAddr: 0x186464, symBinAddr: 0x1001875A0, symSize: 0x5A4 }
  - { offsetInCU: 0xB2C95, offset: 0xB2C95, size: 0x8, addend: 0x0, symName: __ZNSt3__117__equal_iter_implB8ue170006INS_16reverse_iteratorINS_11__wrap_iterIPKcEEEES6_NS_10__equal_toEEEbT_S8_T0_RT1_, symObjAddr: 0x186A08, symBinAddr: 0x100187B44, symSize: 0x380 }
  - { offsetInCU: 0xB2D18, offset: 0xB2D18, size: 0x8, addend: 0x0, symName: __ZNSt3__113__unwrap_iterB8ue170006INS_16reverse_iteratorINS_11__wrap_iterIPKcEEEENS_18__unwrap_iter_implIS6_Lb0EEELi0EEEDTclsrT0_8__unwrapclsr3stdE7declvalIT_EEEESA_, symObjAddr: 0x186D88, symBinAddr: 0x100187EC4, symSize: 0x2EC }
  - { offsetInCU: 0xB2D63, offset: 0xB2D63, size: 0x8, addend: 0x0, symName: __ZNSt3__1neB8ue170006INS_11__wrap_iterIPKcEES4_EEbRKNS_16reverse_iteratorIT_EERKNS5_IT0_EE, symObjAddr: 0x187074, symBinAddr: 0x1001881B0, symSize: 0x2B4 }
  - { offsetInCU: 0xB2DFF, offset: 0xB2DFF, size: 0x8, addend: 0x0, symName: __ZNSt3__110__str_findB8ue170006IcmNS_11char_traitsIcEELm18446744073709551615EEET0_PKT_S3_S6_S3_S3_, symObjAddr: 0x187F78, symBinAddr: 0x1001890B4, symSize: 0xF8 }
  - { offsetInCU: 0xB2EA7, offset: 0xB2EA7, size: 0x8, addend: 0x0, symName: __ZNSt3__118__search_substringB8ue170006IcNS_11char_traitsIcEEEEPKT_S5_S5_S5_S5_, symObjAddr: 0x188070, symBinAddr: 0x1001891AC, symSize: 0x3F8 }
  - { offsetInCU: 0xB2F4C, offset: 0xB2F4C, size: 0x8, addend: 0x0, symName: __ZNSt3__1neB8ue170006IPcEEbRKNS_11__wrap_iterIT_EES6_, symObjAddr: 0x188468, symBinAddr: 0x1001895A4, symSize: 0x34 }
  - { offsetInCU: 0xB2F92, offset: 0xB2F92, size: 0x8, addend: 0x0, symName: __ZNSt3__1eqB8ue170006IPcEEbRKNS_11__wrap_iterIT_EES6_, symObjAddr: 0x188564, symBinAddr: 0x1001896A0, symSize: 0x48 }
  - { offsetInCU: 0xB2FD7, offset: 0xB2FD7, size: 0x8, addend: 0x0, symName: __ZNSt3__123__str_find_first_not_ofB8ue170006IcmNS_11char_traitsIcEELm18446744073709551615EEET0_PKT_S3_S6_S3_S3_, symObjAddr: 0x1888D0, symBinAddr: 0x100189A0C, symSize: 0x124 }
  - { offsetInCU: 0xB30A2, offset: 0xB30A2, size: 0x8, addend: 0x0, symName: __ZNSt3__122__str_find_last_not_ofB8ue170006IcmNS_11char_traitsIcEELm18446744073709551615EEET0_PKT_S3_S6_S3_S3_, symObjAddr: 0x1889F4, symBinAddr: 0x100189B30, symSize: 0x104 }
  - { offsetInCU: 0xB3159, offset: 0xB3159, size: 0x8, addend: 0x0, symName: __ZNSt3__13minB8ue170006ImNS_6__lessIvvEEEERKT_S5_S5_T0_, symObjAddr: 0x188B24, symBinAddr: 0x100189C60, symSize: 0x1E8 }
  - { offsetInCU: 0xB31BD, offset: 0xB31BD, size: 0x8, addend: 0x0, symName: __ZNSt3__112construct_atB8ue170006INS_12basic_stringIcNS_11char_traitsIcEENS_9allocatorIcEEEEJRKS6_EPS6_EEPT_SB_DpOT0_, symObjAddr: 0x189B2C, symBinAddr: 0x10018AC68, symSize: 0x3C }
  - { offsetInCU: 0xB3235, offset: 0xB3235, size: 0x8, addend: 0x0, symName: __ZNSt3__18distanceB8ue170006IPKNS_12basic_stringIcNS_11char_traitsIcEENS_9allocatorIcEEEEEENS_15iterator_traitsIT_E15difference_typeESA_SA_, symObjAddr: 0x18A940, symBinAddr: 0x10018BA7C, symSize: 0x2C }
  - { offsetInCU: 0xB327B, offset: 0xB327B, size: 0x8, addend: 0x0, symName: __ZNSt3__1miB8ue170006IPKNS_12basic_stringIcNS_11char_traitsIcEENS_9allocatorIcEEEEPS6_EEDTmicldtfp_4baseEcldtfp0_4baseEERKNS_11__wrap_iterIT_EERKNSB_IT0_EE, symObjAddr: 0x18A96C, symBinAddr: 0x10018BAA8, symSize: 0x48 }
  - { offsetInCU: 0xB32CA, offset: 0xB32CA, size: 0x8, addend: 0x0, symName: __ZNSt3__14nextB8ue170006IPKNS_12basic_stringIcNS_11char_traitsIcEENS_9allocatorIcEEEEEENS_9enable_ifIXsr29__has_input_iterator_categoryIT_EE5valueESA_E4typeESA_NS_15iterator_traitsISA_E15difference_typeE, symObjAddr: 0x18A9B4, symBinAddr: 0x10018BAF0, symSize: 0x238 }
  - { offsetInCU: 0xB3315, offset: 0xB3315, size: 0x8, addend: 0x0, symName: __ZNSt3__14copyB8ue170006IPKNS_12basic_stringIcNS_11char_traitsIcEENS_9allocatorIcEEEEPS6_EET0_T_SB_SA_, symObjAddr: 0x18B404, symBinAddr: 0x10018C540, symSize: 0x26C }
  - { offsetInCU: 0xB3376, offset: 0xB3376, size: 0x8, addend: 0x0, symName: __ZNSt3__19__advanceB8ue170006IPKNS_12basic_stringIcNS_11char_traitsIcEENS_9allocatorIcEEEEEEvRT_NS_15iterator_traitsIS9_E15difference_typeENS_26random_access_iterator_tagE, symObjAddr: 0x18C0F8, symBinAddr: 0x10018D234, symSize: 0x80 }
  - { offsetInCU: 0xB33C2, offset: 0xB33C2, size: 0x8, addend: 0x0, symName: __ZNSt3__130__uninitialized_allocator_copyB8ue170006INS_9allocatorINS_12basic_stringIcNS_11char_traitsIcEENS1_IcEEEEEEPKS6_S9_PS6_EET2_RT_T0_T1_SB_, symObjAddr: 0x18C178, symBinAddr: 0x10018D2B4, symSize: 0x2DC }
  - { offsetInCU: 0xB3469, offset: 0xB3469, size: 0x8, addend: 0x0, symName: __ZNSt3__114__unwrap_rangeB8ue170006IPKNS_12basic_stringIcNS_11char_traitsIcEENS_9allocatorIcEEEES8_EEDaT_T0_, symObjAddr: 0x18C454, symBinAddr: 0x10018D590, symSize: 0x224 }
  - { offsetInCU: 0xB34B9, offset: 0xB34B9, size: 0x8, addend: 0x0, symName: __ZNSt3__135__uninitialized_allocator_copy_implB8ue170006INS_9allocatorINS_12basic_stringIcNS_11char_traitsIcEENS1_IcEEEEEEPKS6_S9_PS6_EET2_RT_T0_T1_SB_, symObjAddr: 0x18C678, symBinAddr: 0x10018D7B4, symSize: 0x520 }
  - { offsetInCU: 0xB368E, offset: 0xB368E, size: 0x8, addend: 0x0, symName: __ZNSt3__113__unwrap_iterB8ue170006IPKNS_12basic_stringIcNS_11char_traitsIcEENS_9allocatorIcEEEENS_18__unwrap_iter_implIS8_Lb1EEELi0EEEDTclsrT0_8__unwrapclsr3stdE7declvalIT_EEEESC_, symObjAddr: 0x18CEA4, symBinAddr: 0x10018DFE0, symSize: 0x24 }
  - { offsetInCU: 0xB372D, offset: 0xB372D, size: 0x8, addend: 0x0, symName: __ZNSt3__113move_backwardB8ue170006IPNS_12basic_stringIcNS_11char_traitsIcEENS_9allocatorIcEEEES7_EET0_T_S9_S8_, symObjAddr: 0x18D060, symBinAddr: 0x10018E19C, symSize: 0x26C }
  - { offsetInCU: 0xB378E, offset: 0xB378E, size: 0x8, addend: 0x0, symName: __ZNSt3__115__move_backwardB8ue170006INS_17_ClassicAlgPolicyEPNS_12basic_stringIcNS_11char_traitsIcEENS_9allocatorIcEEEES8_S8_EENS_4pairIT0_T2_EESA_T1_SB_, symObjAddr: 0x18D2CC, symBinAddr: 0x10018E408, symSize: 0x22C }
  - { offsetInCU: 0xB3801, offset: 0xB3801, size: 0x8, addend: 0x0, symName: __ZNSt3__123__dispatch_copy_or_moveB8ue170006INS_17_ClassicAlgPolicyENS_20__move_backward_loopIS1_EENS_23__move_backward_trivialEPNS_12basic_stringIcNS_11char_traitsIcEENS_9allocatorIcEEEESB_SB_EENS_4pairIT2_T4_EESD_T3_SE_, symObjAddr: 0x18D4F8, symBinAddr: 0x10018E634, symSize: 0x22C }
  - { offsetInCU: 0xB3886, offset: 0xB3886, size: 0x8, addend: 0x0, symName: __ZNSt3__121__unwrap_and_dispatchB8ue170006INS_10__overloadINS_20__move_backward_loopINS_17_ClassicAlgPolicyEEENS_23__move_backward_trivialEEEPNS_12basic_stringIcNS_11char_traitsIcEENS_9allocatorIcEEEESD_SD_Li0EEENS_4pairIT0_T2_EESF_T1_SG_, symObjAddr: 0x18D724, symBinAddr: 0x10018E860, symSize: 0x5A4 }
  - { offsetInCU: 0xB394D, offset: 0xB394D, size: 0x8, addend: 0x0, symName: __ZNSt3__16__copyB8ue170006INS_17_ClassicAlgPolicyEPKNS_12basic_stringIcNS_11char_traitsIcEENS_9allocatorIcEEEES9_PS7_EENS_4pairIT0_T2_EESC_T1_SD_, symObjAddr: 0x18E240, symBinAddr: 0x10018F37C, symSize: 0x22C }
  - { offsetInCU: 0xB39C0, offset: 0xB39C0, size: 0x8, addend: 0x0, symName: __ZNSt3__123__dispatch_copy_or_moveB8ue170006INS_17_ClassicAlgPolicyENS_11__copy_loopIS1_EENS_14__copy_trivialEPKNS_12basic_stringIcNS_11char_traitsIcEENS_9allocatorIcEEEESC_PSA_EENS_4pairIT2_T4_EESF_T3_SG_, symObjAddr: 0x18E46C, symBinAddr: 0x10018F5A8, symSize: 0x22C }
  - { offsetInCU: 0xB3A45, offset: 0xB3A45, size: 0x8, addend: 0x0, symName: __ZNSt3__121__unwrap_and_dispatchB8ue170006INS_10__overloadINS_11__copy_loopINS_17_ClassicAlgPolicyEEENS_14__copy_trivialEEEPKNS_12basic_stringIcNS_11char_traitsIcEENS_9allocatorIcEEEESE_PSC_Li0EEENS_4pairIT0_T2_EESH_T1_SI_, symObjAddr: 0x18E698, symBinAddr: 0x10018F7D4, symSize: 0x5A4 }
  - { offsetInCU: 0xB3BBF, offset: 0xB3BBF, size: 0x8, addend: 0x0, symName: __ZNSt3__19make_pairB8ue170006IPKNS_12basic_stringIcNS_11char_traitsIcEENS_9allocatorIcEEEEPS6_EENS_4pairINS_18__unwrap_ref_decayIT_E4typeENSB_IT0_E4typeEEEOSC_OSF_, symObjAddr: 0x18F094, symBinAddr: 0x1001901D0, symSize: 0x20C }
  - { offsetInCU: 0xB3C11, offset: 0xB3C11, size: 0x8, addend: 0x0, symName: __ZNSt3__114__rewrap_rangeB8ue170006IPKNS_12basic_stringIcNS_11char_traitsIcEENS_9allocatorIcEEEES8_S8_EET0_S9_T1_, symObjAddr: 0x18F2A0, symBinAddr: 0x1001903DC, symSize: 0x2C }
  - { offsetInCU: 0xB3C69, offset: 0xB3C69, size: 0x8, addend: 0x0, symName: __ZNSt3__113__rewrap_iterB8ue170006IPKNS_12basic_stringIcNS_11char_traitsIcEENS_9allocatorIcEEEES8_NS_18__unwrap_iter_implIS8_Lb1EEEEET_SB_T0_, symObjAddr: 0x18F46C, symBinAddr: 0x1001905A8, symSize: 0x48 }
  - { offsetInCU: 0xB3CC0, offset: 0xB3CC0, size: 0x8, addend: 0x0, symName: __ZNSt3__142__uninitialized_allocator_move_if_noexceptB8ue170006INS_9allocatorINS_12basic_stringIcNS_11char_traitsIcEENS1_IcEEEEEEPS6_S8_S8_EET2_RT_T0_T1_S9_, symObjAddr: 0x18F7E0, symBinAddr: 0x10019091C, symSize: 0x520 }
  - { offsetInCU: 0xB3D6D, offset: 0xB3D6D, size: 0x8, addend: 0x0, symName: __ZNSt3__110__distanceB8ue170006IPKNS_12basic_stringIcNS_11char_traitsIcEENS_9allocatorIcEEEEEENS_15iterator_traitsIT_E15difference_typeESA_SA_NS_26random_access_iterator_tagE, symObjAddr: 0x18FD00, symBinAddr: 0x100190E3C, symSize: 0x28 }
  - { offsetInCU: 0xB3DBD, offset: 0xB3DBD, size: 0x8, addend: 0x0, symName: __ZNSt3__14sortB8ue170006INS_11__wrap_iterIPNS_12basic_stringIcNS_11char_traitsIcEENS_9allocatorIcEEEEEENS_6__lessIvvEEEEvT_SC_T0_, symObjAddr: 0x18FFA0, symBinAddr: 0x1001910DC, symSize: 0x36C }
  - { offsetInCU: 0xB3E23, offset: 0xB3E23, size: 0x8, addend: 0x0, symName: __ZNSt3__111__sort_implB8ue170006INS_17_ClassicAlgPolicyENS_11__wrap_iterIPNS_12basic_stringIcNS_11char_traitsIcEENS_9allocatorIcEEEEEENS_6__lessIvvEEEEvT0_SD_RT1_, symObjAddr: 0x19030C, symBinAddr: 0x100191448, symSize: 0x4D0 }
  - { offsetInCU: 0xB3E90, offset: 0xB3E90, size: 0x8, addend: 0x0, symName: __ZNSt3__123__debug_randomize_rangeB8ue170006INS_17_ClassicAlgPolicyENS_11__wrap_iterIPNS_12basic_stringIcNS_11char_traitsIcEENS_9allocatorIcEEEEEESA_EEvT0_T1_, symObjAddr: 0x1907DC, symBinAddr: 0x100191918, symSize: 0x264 }
  - { offsetInCU: 0xB3EEB, offset: 0xB3EEB, size: 0x8, addend: 0x0, symName: __ZNSt3__115__sort_dispatchB8ue170006INS_17_ClassicAlgPolicyEPNS_12basic_stringIcNS_11char_traitsIcEENS_9allocatorIcEEEENS_6__lessIvvEEEEvT0_SB_RT1_, symObjAddr: 0x190A40, symBinAddr: 0x100191B7C, symSize: 0x64 }
  - { offsetInCU: 0xB3F6A, offset: 0xB3F6A, size: 0x8, addend: 0x0, symName: __ZNSt3__113__unwrap_iterB8ue170006INS_11__wrap_iterIPNS_12basic_stringIcNS_11char_traitsIcEENS_9allocatorIcEEEEEENS_18__unwrap_iter_implIS9_Lb1EEELi0EEEDTclsrT0_8__unwrapclsr3stdE7declvalIT_EEEESD_, symObjAddr: 0x190AA4, symBinAddr: 0x100191BE0, symSize: 0x274 }
  - { offsetInCU: 0xB3FB5, offset: 0xB3FB5, size: 0x8, addend: 0x0, symName: __ZNSt3__135__check_strict_weak_ordering_sortedB8ue170006IPNS_12basic_stringIcNS_11char_traitsIcEENS_9allocatorIcEEEENS_6__lessIvvEEEEvT_SA_RT0_, symObjAddr: 0x190D18, symBinAddr: 0x100191E54, symSize: 0x18 }
  - { offsetInCU: 0xB400E, offset: 0xB400E, size: 0x8, addend: 0x0, symName: __ZNSt3__17__log2iB8ue170006IlEET_S1_, symObjAddr: 0x190D30, symBinAddr: 0x100191E6C, symSize: 0x54 }
  - { offsetInCU: 0xB4046, offset: 0xB4046, size: 0x8, addend: 0x0, symName: __ZNSt3__112__libcpp_clzB8ue170006Em, symObjAddr: 0x191FEC, symBinAddr: 0x100193128, symSize: 0x1C }
  - { offsetInCU: 0xB4074, offset: 0xB4074, size: 0x8, addend: 0x0, symName: __ZNSt3__124__sort3_maybe_branchlessB8ue170006INS_17_ClassicAlgPolicyERNS_6__lessIvvEEPNS_12basic_stringIcNS_11char_traitsIcEENS_9allocatorIcEEEEEENS_9enable_ifIXntsr21__use_branchless_sortIT0_T1_EE5valueEvE4typeESE_SE_SE_SD_, symObjAddr: 0x192364, symBinAddr: 0x1001934A0, symSize: 0x3C }
  - { offsetInCU: 0xB40EA, offset: 0xB40EA, size: 0x8, addend: 0x0, symName: __ZNSt3__124__sort4_maybe_branchlessB8ue170006INS_17_ClassicAlgPolicyERNS_6__lessIvvEEPNS_12basic_stringIcNS_11char_traitsIcEENS_9allocatorIcEEEEEENS_9enable_ifIXntsr21__use_branchless_sortIT0_T1_EE5valueEvE4typeESE_SE_SE_SE_SD_, symObjAddr: 0x1923A0, symBinAddr: 0x1001934DC, symSize: 0x44 }
  - { offsetInCU: 0xB416F, offset: 0xB416F, size: 0x8, addend: 0x0, symName: __ZNSt3__124__sort5_maybe_branchlessB8ue170006INS_17_ClassicAlgPolicyERNS_6__lessIvvEEPNS_12basic_stringIcNS_11char_traitsIcEENS_9allocatorIcEEEEEENS_9enable_ifIXntsr21__use_branchless_sortIT0_T1_EE5valueEvE4typeESE_SE_SE_SE_SE_SD_, symObjAddr: 0x1923E4, symBinAddr: 0x100193520, symSize: 0x4C }
  - { offsetInCU: 0xB4203, offset: 0xB4203, size: 0x8, addend: 0x0, symName: __ZNSt3__116__insertion_sortB8ue170006INS_17_ClassicAlgPolicyERNS_6__lessIvvEEPNS_12basic_stringIcNS_11char_traitsIcEENS_9allocatorIcEEEEEEvT1_SC_T0_, symObjAddr: 0x192430, symBinAddr: 0x10019356C, symSize: 0x670 }
  - { offsetInCU: 0xB42CB, offset: 0xB42CB, size: 0x8, addend: 0x0, symName: __ZNSt3__114__partial_sortB8ue170006INS_17_ClassicAlgPolicyERNS_6__lessIvvEEPNS_12basic_stringIcNS_11char_traitsIcEENS_9allocatorIcEEEESB_EET1_SC_SC_T2_RT0_, symObjAddr: 0x1930E4, symBinAddr: 0x100194220, symSize: 0x94 }
  - { offsetInCU: 0xB4359, offset: 0xB4359, size: 0x8, addend: 0x0, symName: __ZNSt3__17__sort3B8ue170006INS_17_ClassicAlgPolicyERNS_6__lessIvvEEPNS_12basic_stringIcNS_11char_traitsIcEENS_9allocatorIcEEEEEEjT1_SC_SC_T0_, symObjAddr: 0x193178, symBinAddr: 0x1001942B4, symSize: 0x66C }
  - { offsetInCU: 0xB43EC, offset: 0xB43EC, size: 0x8, addend: 0x0, symName: __ZNSt3__19iter_swapB8ue170006IPNS_12basic_stringIcNS_11char_traitsIcEENS_9allocatorIcEEEES7_EEvT_T0_, symObjAddr: 0x196C88, symBinAddr: 0x100197DC4, symSize: 0x2C }
  - { offsetInCU: 0xB4436, offset: 0xB4436, size: 0x8, addend: 0x0, symName: __ZNSt3__14swapB8ue170006IcNS_11char_traitsIcEENS_9allocatorIcEEEEvRNS_12basic_stringIT_T0_T1_EESA_, symObjAddr: 0x196CB4, symBinAddr: 0x100197DF0, symSize: 0x2C }
  - { offsetInCU: 0xB448B, offset: 0xB448B, size: 0x8, addend: 0x0, symName: __ZNSt3__14swapB8ue170006INS_12basic_stringIcNS_11char_traitsIcEENS_9allocatorIcEEE5__repEEENS_9enable_ifIXaasr21is_move_constructibleIT_EE5valuesr18is_move_assignableIS9_EE5valueEvE4typeERS9_SC_, symObjAddr: 0x196D44, symBinAddr: 0x100197E80, symSize: 0x234 }
  - { offsetInCU: 0xB44E6, offset: 0xB44E6, size: 0x8, addend: 0x0, symName: __ZNSt3__116__swap_allocatorB8ue170006INS_9allocatorIcEEEEvRT_S4_, symObjAddr: 0x196F78, symBinAddr: 0x1001980B4, symSize: 0x2C }
  - { offsetInCU: 0xB4528, offset: 0xB4528, size: 0x8, addend: 0x0, symName: __ZNSt3__116__swap_allocatorB8ue170006INS_9allocatorIcEEEEvRT_S4_NS_17integral_constantIbLb0EEE, symObjAddr: 0x196FA4, symBinAddr: 0x1001980E0, symSize: 0x14 }
  - { offsetInCU: 0xB456D, offset: 0xB456D, size: 0x8, addend: 0x0, symName: __ZNSt3__17__sort4B8ue170006INS_17_ClassicAlgPolicyERNS_6__lessIvvEEPNS_12basic_stringIcNS_11char_traitsIcEENS_9allocatorIcEEEEEEvT1_SC_SC_SC_T0_, symObjAddr: 0x196FB8, symBinAddr: 0x1001980F4, symSize: 0x5D4 }
  - { offsetInCU: 0xB4600, offset: 0xB4600, size: 0x8, addend: 0x0, symName: __ZNSt3__17__sort5B8ue170006INS_17_ClassicAlgPolicyERNS_6__lessIvvEEPNS_12basic_stringIcNS_11char_traitsIcEENS_9allocatorIcEEEEEEvT1_SC_SC_SC_SC_T0_, symObjAddr: 0x19758C, symBinAddr: 0x1001986C8, symSize: 0x714 }
  - { offsetInCU: 0xB46A7, offset: 0xB46A7, size: 0x8, addend: 0x0, symName: __ZNSt3__123__debug_randomize_rangeB8ue170006INS_17_ClassicAlgPolicyEPNS_12basic_stringIcNS_11char_traitsIcEENS_9allocatorIcEEEES8_EEvT0_T1_, symObjAddr: 0x197CA0, symBinAddr: 0x100198DDC, symSize: 0x14 }
  - { offsetInCU: 0xB46FB, offset: 0xB46FB, size: 0x8, addend: 0x0, symName: __ZNSt3__119__partial_sort_implB8ue170006INS_17_ClassicAlgPolicyERNS_6__lessIvvEEPNS_12basic_stringIcNS_11char_traitsIcEENS_9allocatorIcEEEESB_EET1_SC_SC_T2_OT0_, symObjAddr: 0x197CB4, symBinAddr: 0x100198DF0, symSize: 0x59C }
  - { offsetInCU: 0xB47A4, offset: 0xB47A4, size: 0x8, addend: 0x0, symName: __ZNSt3__111__make_heapB8ue170006INS_17_ClassicAlgPolicyERNS_6__lessIvvEEPNS_12basic_stringIcNS_11char_traitsIcEENS_9allocatorIcEEEEEEvT1_SC_OT0_, symObjAddr: 0x198250, symBinAddr: 0x10019938C, symSize: 0xC4 }
  - { offsetInCU: 0xB484E, offset: 0xB484E, size: 0x8, addend: 0x0, symName: __ZNSt3__111__sort_heapB8ue170006INS_17_ClassicAlgPolicyERNS_6__lessIvvEEPNS_12basic_stringIcNS_11char_traitsIcEENS_9allocatorIcEEEEEEvT1_SC_OT0_, symObjAddr: 0x198BBC, symBinAddr: 0x100199CF8, symSize: 0xAC }
  - { offsetInCU: 0xB48F8, offset: 0xB48F8, size: 0x8, addend: 0x0, symName: __ZNSt3__110__pop_heapB8ue170006INS_17_ClassicAlgPolicyENS_6__lessIvvEEPNS_12basic_stringIcNS_11char_traitsIcEENS_9allocatorIcEEEEEEvT1_SB_RT0_NS_15iterator_traitsISB_E15difference_typeE, symObjAddr: 0x198C68, symBinAddr: 0x100199DA4, symSize: 0x578 }
  - { offsetInCU: 0xB49B9, offset: 0xB49B9, size: 0x8, addend: 0x0, symName: __ZNSt3__19__sift_upB8ue170006INS_17_ClassicAlgPolicyERNS_6__lessIvvEEPNS_12basic_stringIcNS_11char_traitsIcEENS_9allocatorIcEEEEEEvT1_SC_OT0_NS_15iterator_traitsISC_E15difference_typeE, symObjAddr: 0x1995B4, symBinAddr: 0x10019A6F0, symSize: 0x66C }
  - { offsetInCU: 0xB4A6F, offset: 0xB4A6F, size: 0x8, addend: 0x0, symName: __ZNSt3__122__populate_left_bitsetB8ue170006IRNS_6__lessIvvEEPNS_12basic_stringIcNS_11char_traitsIcEENS_9allocatorIcEEEES9_EEvT0_T_RT1_Ry, symObjAddr: 0x199C20, symBinAddr: 0x10019AD5C, symSize: 0xF8 }
  - { offsetInCU: 0xB4B2A, offset: 0xB4B2A, size: 0x8, addend: 0x0, symName: __ZNSt3__123__populate_right_bitsetB8ue170006IRNS_6__lessIvvEEPNS_12basic_stringIcNS_11char_traitsIcEENS_9allocatorIcEEEES9_EEvT0_T_RT1_Ry, symObjAddr: 0x199D18, symBinAddr: 0x10019AE54, symSize: 0xF4 }
  - { offsetInCU: 0xB4BE5, offset: 0xB4BE5, size: 0x8, addend: 0x0, symName: __ZNSt3__117__swap_bitmap_posB8ue170006INS_17_ClassicAlgPolicyEPNS_12basic_stringIcNS_11char_traitsIcEENS_9allocatorIcEEEEEEvT0_S9_RySA_, symObjAddr: 0x199E0C, symBinAddr: 0x10019AF48, symSize: 0x520 }
  - { offsetInCU: 0xB4C8C, offset: 0xB4C8C, size: 0x8, addend: 0x0, symName: __ZNSt3__133__bitset_partition_partial_blocksB8ue170006INS_17_ClassicAlgPolicyERNS_6__lessIvvEEPNS_12basic_stringIcNS_11char_traitsIcEENS_9allocatorIcEEEESA_EEvRT1_SD_T0_RT2_RySH_, symObjAddr: 0x19A32C, symBinAddr: 0x10019B468, symSize: 0x6B4 }
  - { offsetInCU: 0xB4E15, offset: 0xB4E15, size: 0x8, addend: 0x0, symName: __ZNSt3__19make_pairB8ue170006IRPNS_12basic_stringIcNS_11char_traitsIcEENS_9allocatorIcEEEERbEENS_4pairINS_18__unwrap_ref_decayIT_E4typeENSB_IT0_E4typeEEEOSC_OSF_, symObjAddr: 0x19B1A0, symBinAddr: 0x10019C2DC, symSize: 0x20C }
  - { offsetInCU: 0xB4E67, offset: 0xB4E67, size: 0x8, addend: 0x0, symName: __ZNSt3__112__libcpp_ctzB8ue170006Ey, symObjAddr: 0x19B3AC, symBinAddr: 0x10019C4E8, symSize: 0x20 }
  - { offsetInCU: 0xB4E95, offset: 0xB4E95, size: 0x8, addend: 0x0, symName: __ZNSt3__113__libcpp_blsrB8ue170006Ey, symObjAddr: 0x19B3CC, symBinAddr: 0x10019C508, symSize: 0x2C }
  - { offsetInCU: 0xB4EC3, offset: 0xB4EC3, size: 0x8, addend: 0x0, symName: __ZNSt3__112__libcpp_clzB8ue170006Ey, symObjAddr: 0x19B4A8, symBinAddr: 0x10019C5E4, symSize: 0x1C }
  - { offsetInCU: 0xB5024, offset: 0xB5024, size: 0x8, addend: 0x0, symName: __ZNSt3__112__to_addressB8ue170006INS_11__wrap_iterIPNS_12basic_stringIcNS_11char_traitsIcEENS_9allocatorIcEEEEEEvEEu7__decayIDTclsr19__to_address_helperIT_EE6__callclsr3stdE7declvalIRKSA_EEEEESC_, symObjAddr: 0x19B878, symBinAddr: 0x10019C9B4, symSize: 0x24 }
  - { offsetInCU: 0xB50C9, offset: 0xB50C9, size: 0x8, addend: 0x0, symName: __ZNSt3__14moveB8ue170006IPNS_12basic_stringIcNS_11char_traitsIcEENS_9allocatorIcEEEES7_EET0_T_S9_S8_, symObjAddr: 0x19BC90, symBinAddr: 0x10019CDCC, symSize: 0x26C }
  - { offsetInCU: 0xB512A, offset: 0xB512A, size: 0x8, addend: 0x0, symName: __ZNSt3__1miB8ue170006IPKNS_12basic_stringIcNS_11char_traitsIcEENS_9allocatorIcEEEES8_EEDTmicldtfp_4baseEcldtfp0_4baseEERKNS_11__wrap_iterIT_EERKNSA_IT0_EE, symObjAddr: 0x19BEFC, symBinAddr: 0x10019D038, symSize: 0x48 }
  - { offsetInCU: 0xB5179, offset: 0xB5179, size: 0x8, addend: 0x0, symName: __ZNSt3__16__moveB8ue170006INS_17_ClassicAlgPolicyEPNS_12basic_stringIcNS_11char_traitsIcEENS_9allocatorIcEEEES8_S8_EENS_4pairIT0_T2_EESA_T1_SB_, symObjAddr: 0x19BF44, symBinAddr: 0x10019D080, symSize: 0x22C }
  - { offsetInCU: 0xB51EC, offset: 0xB51EC, size: 0x8, addend: 0x0, symName: __ZNSt3__123__dispatch_copy_or_moveB8ue170006INS_17_ClassicAlgPolicyENS_11__move_loopIS1_EENS_14__move_trivialEPNS_12basic_stringIcNS_11char_traitsIcEENS_9allocatorIcEEEESB_SB_EENS_4pairIT2_T4_EESD_T3_SE_, symObjAddr: 0x19C170, symBinAddr: 0x10019D2AC, symSize: 0x22C }
  - { offsetInCU: 0xB5271, offset: 0xB5271, size: 0x8, addend: 0x0, symName: __ZNSt3__121__unwrap_and_dispatchB8ue170006INS_10__overloadINS_11__move_loopINS_17_ClassicAlgPolicyEEENS_14__move_trivialEEEPNS_12basic_stringIcNS_11char_traitsIcEENS_9allocatorIcEEEESD_SD_Li0EEENS_4pairIT0_T2_EESF_T1_SG_, symObjAddr: 0x19C39C, symBinAddr: 0x10019D4D8, symSize: 0x5A4 }
  - { offsetInCU: 0xB5311, offset: 0xB5311, size: 0x8, addend: 0x0, symName: __ZNSt3__16uniqueB8ue170006INS_11__wrap_iterIPNS_12basic_stringIcNS_11char_traitsIcEENS_9allocatorIcEEEEEENS_10__equal_toEEET_SB_SB_T0_, symObjAddr: 0x19CD68, symBinAddr: 0x10019DEA4, symSize: 0x450 }
  - { offsetInCU: 0xB537C, offset: 0xB537C, size: 0x8, addend: 0x0, symName: __ZNSt3__18__uniqueB8ue170006INS_17_ClassicAlgPolicyENS_11__wrap_iterIPNS_12basic_stringIcNS_11char_traitsIcEENS_9allocatorIcEEEEEESA_RNS_10__equal_toEEENS_4pairIT0_SE_EESE_T1_OT2_, symObjAddr: 0x19D1B8, symBinAddr: 0x10019E2F4, symSize: 0x55C }
  - { offsetInCU: 0xB5417, offset: 0xB5417, size: 0x8, addend: 0x0, symName: __ZNSt3__115__adjacent_findB8ue170006INS_11__wrap_iterIPNS_12basic_stringIcNS_11char_traitsIcEENS_9allocatorIcEEEEEES9_RNS_10__equal_toEEET_SC_T0_OT1_, symObjAddr: 0x19D714, symBinAddr: 0x10019E850, symSize: 0x3E8 }
  - { offsetInCU: 0xB55A6, offset: 0xB55A6, size: 0x8, addend: 0x0, symName: __ZNSt3__1ssB8ue170006IcNS_11char_traitsIcEEEEDaNS_17basic_string_viewIT_T0_EES7_, symObjAddr: 0x19E9D4, symBinAddr: 0x10019FB10, symSize: 0x3E8 }
  - { offsetInCU: 0xB55FE, offset: 0xB55FE, size: 0x8, addend: 0x0, symName: __ZNSt3__122__make_exception_guardB8ue170006INS_6vectorIN5Catch8TestCaseENS_9allocatorIS3_EEE16__destroy_vectorEEENS_28__exception_guard_exceptionsIT_EES9_, symObjAddr: 0x19F624, symBinAddr: 0x1001A0760, symSize: 0x278 }
  - { offsetInCU: 0xB5639, offset: 0xB5639, size: 0x8, addend: 0x0, symName: __ZNSt3__119__allocate_at_leastB8ue170006INS_9allocatorIN5Catch8TestCaseEEEEENS_19__allocation_resultINS_16allocator_traitsIT_E7pointerEEERS7_m, symObjAddr: 0x1A08B4, symBinAddr: 0x1001A19F0, symSize: 0x28C }
  - { offsetInCU: 0xB5680, offset: 0xB5680, size: 0x8, addend: 0x0, symName: __ZNSt3__130__uninitialized_allocator_copyB8ue170006INS_9allocatorIN5Catch8TestCaseEEEPS3_S5_S5_EET2_RT_T0_T1_S6_, symObjAddr: 0x1A0D40, symBinAddr: 0x1001A1E7C, symSize: 0x2DC }
  - { offsetInCU: 0xB5727, offset: 0xB5727, size: 0x8, addend: 0x0, symName: __ZNSt3__114__unwrap_rangeB8ue170006IPN5Catch8TestCaseES3_EEDaT_T0_, symObjAddr: 0x1A1318, symBinAddr: 0x1001A2454, symSize: 0x224 }
  - { offsetInCU: 0xB5777, offset: 0xB5777, size: 0x8, addend: 0x0, symName: __ZNSt3__135__uninitialized_allocator_copy_implB8ue170006INS_9allocatorIN5Catch8TestCaseEEEPS3_S5_S5_EET2_RT_T0_T1_S6_, symObjAddr: 0x1A153C, symBinAddr: 0x1001A2678, symSize: 0x520 }
  - { offsetInCU: 0xB5824, offset: 0xB5824, size: 0x8, addend: 0x0, symName: __ZNSt3__113__unwrap_iterB8ue170006IPN5Catch8TestCaseENS_18__unwrap_iter_implIS3_Lb1EEELi0EEEDTclsrT0_8__unwrapclsr3stdE7declvalIT_EEEES7_, symObjAddr: 0x1A1A5C, symBinAddr: 0x1001A2B98, symSize: 0x24 }
  - { offsetInCU: 0xB586B, offset: 0xB586B, size: 0x8, addend: 0x0, symName: __ZNSt3__113__rewrap_iterB8ue170006IPN5Catch8TestCaseES3_NS_18__unwrap_iter_implIS3_Lb1EEEEET_S6_T0_, symObjAddr: 0x1A1A80, symBinAddr: 0x1001A2BBC, symSize: 0x48 }
  - { offsetInCU: 0xB59D0, offset: 0xB59D0, size: 0x8, addend: 0x0, symName: __ZNSt3__122__make_exception_guardB8ue170006INS_29_AllocatorDestroyRangeReverseINS_9allocatorIN5Catch8TestCaseEEEPS4_EEEENS_28__exception_guard_exceptionsIT_EES9_, symObjAddr: 0x1A1F48, symBinAddr: 0x1001A3084, symSize: 0x1F8 }
  - { offsetInCU: 0xB5A30, offset: 0xB5A30, size: 0x8, addend: 0x0, symName: __ZNSt3__112construct_atB8ue170006IN5Catch8TestCaseEJRS2_EPS2_EEPT_S6_DpOT0_, symObjAddr: 0x1A2448, symBinAddr: 0x1001A3584, symSize: 0x3C }
  - { offsetInCU: 0xB5AA7, offset: 0xB5AA7, size: 0x8, addend: 0x0, symName: __ZNSt3__119__allocator_destroyB8ue170006INS_9allocatorIN5Catch8TestCaseEEENS_16reverse_iteratorIPS3_EES7_EEvRT_T0_T1_, symObjAddr: 0x1A28DC, symBinAddr: 0x1001A3A18, symSize: 0x2B8 }
  - { offsetInCU: 0xB5B14, offset: 0xB5B14, size: 0x8, addend: 0x0, symName: __ZNSt3__1neB8ue170006IPN5Catch8TestCaseES3_EEbRKNS_16reverse_iteratorIT_EERKNS4_IT0_EE, symObjAddr: 0x1A2BC8, symBinAddr: 0x1001A3D04, symSize: 0x48 }
  - { offsetInCU: 0xB5B63, offset: 0xB5B63, size: 0x8, addend: 0x0, symName: __ZNSt3__112__to_addressB8ue170006INS_16reverse_iteratorIPN5Catch8TestCaseEEEvEEu7__decayIDTclsr19__to_address_helperIT_EE6__callclsr3stdE7declvalIRKS6_EEEEES8_, symObjAddr: 0x1A2C10, symBinAddr: 0x1001A3D4C, symSize: 0x24 }
  - { offsetInCU: 0xB5BC6, offset: 0xB5BC6, size: 0x8, addend: 0x0, symName: __ZNSt3__14prevB8ue170006IPN5Catch8TestCaseEEENS_9enable_ifIXsr29__has_input_iterator_categoryIT_EE5valueES5_E4typeES5_NS_15iterator_traitsIS5_E15difference_typeE, symObjAddr: 0x1A2DB4, symBinAddr: 0x1001A3EF0, symSize: 0x240 }
  - { offsetInCU: 0xB5C11, offset: 0xB5C11, size: 0x8, addend: 0x0, symName: __ZNSt3__19__advanceB8ue170006IPN5Catch8TestCaseEEEvRT_NS_15iterator_traitsIS4_E15difference_typeENS_26random_access_iterator_tagE, symObjAddr: 0x1A302C, symBinAddr: 0x1001A4168, symSize: 0x80 }
  - { offsetInCU: 0xB5CB5, offset: 0xB5CB5, size: 0x8, addend: 0x0, symName: __ZNSt3__14sortB8ue170006INS_11__wrap_iterIPN5Catch8TestCaseEEENS_6__lessIvvEEEEvT_S8_T0_, symObjAddr: 0x1A35E4, symBinAddr: 0x1001A4720, symSize: 0x36C }
  - { offsetInCU: 0xB5D1B, offset: 0xB5D1B, size: 0x8, addend: 0x0, symName: __ZNSt3__111__sort_implB8ue170006INS_17_ClassicAlgPolicyENS_11__wrap_iterIPN5Catch8TestCaseEEENS_6__lessIvvEEEEvT0_S9_RT1_, symObjAddr: 0x1A3950, symBinAddr: 0x1001A4A8C, symSize: 0x4D0 }
  - { offsetInCU: 0xB5D88, offset: 0xB5D88, size: 0x8, addend: 0x0, symName: __ZNSt3__123__debug_randomize_rangeB8ue170006INS_17_ClassicAlgPolicyENS_11__wrap_iterIPN5Catch8TestCaseEEES6_EEvT0_T1_, symObjAddr: 0x1A3E20, symBinAddr: 0x1001A4F5C, symSize: 0x264 }
  - { offsetInCU: 0xB5DE3, offset: 0xB5DE3, size: 0x8, addend: 0x0, symName: __ZNSt3__115__sort_dispatchB8ue170006INS_17_ClassicAlgPolicyEPN5Catch8TestCaseENS_6__lessIvvEEEEvT0_S7_RT1_, symObjAddr: 0x1A4084, symBinAddr: 0x1001A51C0, symSize: 0x64 }
  - { offsetInCU: 0xB5E62, offset: 0xB5E62, size: 0x8, addend: 0x0, symName: __ZNSt3__113__unwrap_iterB8ue170006INS_11__wrap_iterIPN5Catch8TestCaseEEENS_18__unwrap_iter_implIS5_Lb1EEELi0EEEDTclsrT0_8__unwrapclsr3stdE7declvalIT_EEEES9_, symObjAddr: 0x1A40E8, symBinAddr: 0x1001A5224, symSize: 0x274 }
  - { offsetInCU: 0xB5EAD, offset: 0xB5EAD, size: 0x8, addend: 0x0, symName: __ZNSt3__135__check_strict_weak_ordering_sortedB8ue170006IPN5Catch8TestCaseENS_6__lessIvvEEEEvT_S6_RT0_, symObjAddr: 0x1A435C, symBinAddr: 0x1001A5498, symSize: 0x18 }
  - { offsetInCU: 0xB5F07, offset: 0xB5F07, size: 0x8, addend: 0x0, symName: __ZNSt3__124__sort3_maybe_branchlessB8ue170006INS_17_ClassicAlgPolicyERNS_6__lessIvvEEPN5Catch8TestCaseEEENS_9enable_ifIXntsr21__use_branchless_sortIT0_T1_EE5valueEvE4typeESA_SA_SA_S9_, symObjAddr: 0x1A56C0, symBinAddr: 0x1001A67FC, symSize: 0x3C }
  - { offsetInCU: 0xB5F7D, offset: 0xB5F7D, size: 0x8, addend: 0x0, symName: __ZNSt3__124__sort4_maybe_branchlessB8ue170006INS_17_ClassicAlgPolicyERNS_6__lessIvvEEPN5Catch8TestCaseEEENS_9enable_ifIXntsr21__use_branchless_sortIT0_T1_EE5valueEvE4typeESA_SA_SA_SA_S9_, symObjAddr: 0x1A56FC, symBinAddr: 0x1001A6838, symSize: 0x44 }
  - { offsetInCU: 0xB6002, offset: 0xB6002, size: 0x8, addend: 0x0, symName: __ZNSt3__124__sort5_maybe_branchlessB8ue170006INS_17_ClassicAlgPolicyERNS_6__lessIvvEEPN5Catch8TestCaseEEENS_9enable_ifIXntsr21__use_branchless_sortIT0_T1_EE5valueEvE4typeESA_SA_SA_SA_SA_S9_, symObjAddr: 0x1A5740, symBinAddr: 0x1001A687C, symSize: 0x4C }
  - { offsetInCU: 0xB6096, offset: 0xB6096, size: 0x8, addend: 0x0, symName: __ZNSt3__116__insertion_sortB8ue170006INS_17_ClassicAlgPolicyERNS_6__lessIvvEEPN5Catch8TestCaseEEEvT1_S8_T0_, symObjAddr: 0x1A578C, symBinAddr: 0x1001A68C8, symSize: 0x67C }
  - { offsetInCU: 0xB615E, offset: 0xB615E, size: 0x8, addend: 0x0, symName: __ZNSt3__114__partial_sortB8ue170006INS_17_ClassicAlgPolicyERNS_6__lessIvvEEPN5Catch8TestCaseES7_EET1_S8_S8_T2_RT0_, symObjAddr: 0x1A6458, symBinAddr: 0x1001A7594, symSize: 0x94 }
  - { offsetInCU: 0xB61EC, offset: 0xB61EC, size: 0x8, addend: 0x0, symName: __ZNSt3__17__sort3B8ue170006INS_17_ClassicAlgPolicyERNS_6__lessIvvEEPN5Catch8TestCaseEEEjT1_S8_S8_T0_, symObjAddr: 0x1A64EC, symBinAddr: 0x1001A7628, symSize: 0x66C }
  - { offsetInCU: 0xB627F, offset: 0xB627F, size: 0x8, addend: 0x0, symName: __ZNSt3__19iter_swapB8ue170006IPN5Catch8TestCaseES3_EEvT_T0_, symObjAddr: 0x1AA09C, symBinAddr: 0x1001AB1D8, symSize: 0x2C }
  - { offsetInCU: 0xB62CA, offset: 0xB62CA, size: 0x8, addend: 0x0, symName: __ZNSt3__14swapB8ue170006IN5Catch8TestCaseEEENS_9enable_ifIXaasr21is_move_constructibleIT_EE5valuesr18is_move_assignableIS4_EE5valueEvE4typeERS4_S7_, symObjAddr: 0x1AA0C8, symBinAddr: 0x1001AB204, symSize: 0x274 }
  - { offsetInCU: 0xB6325, offset: 0xB6325, size: 0x8, addend: 0x0, symName: __ZNSt3__14swapB8ue170006IPN5Catch12ITestInvokerEEENS_9enable_ifIXaasr21is_move_constructibleIT_EE5valuesr18is_move_assignableIS5_EE5valueEvE4typeERS5_S8_, symObjAddr: 0x1AA8C0, symBinAddr: 0x1001AB9FC, symSize: 0x134 }
  - { offsetInCU: 0xB637A, offset: 0xB637A, size: 0x8, addend: 0x0, symName: __ZNSt3__17__sort4B8ue170006INS_17_ClassicAlgPolicyERNS_6__lessIvvEEPN5Catch8TestCaseEEEvT1_S8_S8_S8_T0_, symObjAddr: 0x1AA9F4, symBinAddr: 0x1001ABB30, symSize: 0x5D4 }
  - { offsetInCU: 0xB640D, offset: 0xB640D, size: 0x8, addend: 0x0, symName: __ZNSt3__17__sort5B8ue170006INS_17_ClassicAlgPolicyERNS_6__lessIvvEEPN5Catch8TestCaseEEEvT1_S8_S8_S8_S8_T0_, symObjAddr: 0x1AAFC8, symBinAddr: 0x1001AC104, symSize: 0x714 }
  - { offsetInCU: 0xB64DB, offset: 0xB64DB, size: 0x8, addend: 0x0, symName: __ZNSt3__123__debug_randomize_rangeB8ue170006INS_17_ClassicAlgPolicyEPN5Catch8TestCaseES4_EEvT0_T1_, symObjAddr: 0x1AB764, symBinAddr: 0x1001AC8A0, symSize: 0x14 }
  - { offsetInCU: 0xB652F, offset: 0xB652F, size: 0x8, addend: 0x0, symName: __ZNSt3__119__partial_sort_implB8ue170006INS_17_ClassicAlgPolicyERNS_6__lessIvvEEPN5Catch8TestCaseES7_EET1_S8_S8_T2_OT0_, symObjAddr: 0x1AB778, symBinAddr: 0x1001AC8B4, symSize: 0x59C }
  - { offsetInCU: 0xB65D8, offset: 0xB65D8, size: 0x8, addend: 0x0, symName: __ZNSt3__111__make_heapB8ue170006INS_17_ClassicAlgPolicyERNS_6__lessIvvEEPN5Catch8TestCaseEEEvT1_S8_OT0_, symObjAddr: 0x1ABD14, symBinAddr: 0x1001ACE50, symSize: 0xC4 }
  - { offsetInCU: 0xB6682, offset: 0xB6682, size: 0x8, addend: 0x0, symName: __ZNSt3__111__sort_heapB8ue170006INS_17_ClassicAlgPolicyERNS_6__lessIvvEEPN5Catch8TestCaseEEEvT1_S8_OT0_, symObjAddr: 0x1AC688, symBinAddr: 0x1001AD7C4, symSize: 0xAC }
  - { offsetInCU: 0xB672C, offset: 0xB672C, size: 0x8, addend: 0x0, symName: __ZNSt3__110__pop_heapB8ue170006INS_17_ClassicAlgPolicyENS_6__lessIvvEEPN5Catch8TestCaseEEEvT1_S7_RT0_NS_15iterator_traitsIS7_E15difference_typeE, symObjAddr: 0x1AC734, symBinAddr: 0x1001AD870, symSize: 0x5A0 }
  - { offsetInCU: 0xB67ED, offset: 0xB67ED, size: 0x8, addend: 0x0, symName: __ZNSt3__19__sift_upB8ue170006INS_17_ClassicAlgPolicyERNS_6__lessIvvEEPN5Catch8TestCaseEEEvT1_S8_OT0_NS_15iterator_traitsIS8_E15difference_typeE, symObjAddr: 0x1AD0A8, symBinAddr: 0x1001AE1E4, symSize: 0x674 }
  - { offsetInCU: 0xB68A3, offset: 0xB68A3, size: 0x8, addend: 0x0, symName: __ZNSt3__122__populate_left_bitsetB8ue170006IRNS_6__lessIvvEEPN5Catch8TestCaseES5_EEvT0_T_RT1_Ry, symObjAddr: 0x1AD71C, symBinAddr: 0x1001AE858, symSize: 0xF8 }
  - { offsetInCU: 0xB695E, offset: 0xB695E, size: 0x8, addend: 0x0, symName: __ZNSt3__123__populate_right_bitsetB8ue170006IRNS_6__lessIvvEEPN5Catch8TestCaseES5_EEvT0_T_RT1_Ry, symObjAddr: 0x1AD814, symBinAddr: 0x1001AE950, symSize: 0xF4 }
  - { offsetInCU: 0xB6A19, offset: 0xB6A19, size: 0x8, addend: 0x0, symName: __ZNSt3__117__swap_bitmap_posB8ue170006INS_17_ClassicAlgPolicyEPN5Catch8TestCaseEEEvT0_S5_RyS6_, symObjAddr: 0x1AD908, symBinAddr: 0x1001AEA44, symSize: 0x520 }
  - { offsetInCU: 0xB6AC0, offset: 0xB6AC0, size: 0x8, addend: 0x0, symName: __ZNSt3__133__bitset_partition_partial_blocksB8ue170006INS_17_ClassicAlgPolicyERNS_6__lessIvvEEPN5Catch8TestCaseES6_EEvRT1_S9_T0_RT2_RySD_, symObjAddr: 0x1ADE28, symBinAddr: 0x1001AEF64, symSize: 0x6B4 }
  - { offsetInCU: 0xB6C49, offset: 0xB6C49, size: 0x8, addend: 0x0, symName: __ZNSt3__19make_pairB8ue170006IRPN5Catch8TestCaseERbEENS_4pairINS_18__unwrap_ref_decayIT_E4typeENS7_IT0_E4typeEEEOS8_OSB_, symObjAddr: 0x1AEC9C, symBinAddr: 0x1001AFDD8, symSize: 0x20C }
  - { offsetInCU: 0xB6DCE, offset: 0xB6DCE, size: 0x8, addend: 0x0, symName: __ZNSt3__112__to_addressB8ue170006INS_11__wrap_iterIPN5Catch8TestCaseEEEvEEu7__decayIDTclsr19__to_address_helperIT_EE6__callclsr3stdE7declvalIRKS6_EEEEES8_, symObjAddr: 0x1AF30C, symBinAddr: 0x1001B0448, symSize: 0x24 }
  - { offsetInCU: 0xB6E73, offset: 0xB6E73, size: 0x8, addend: 0x0, symName: __ZNSt3__119__allocate_at_leastB8ue170006INS_9allocatorINS_4pairIyPKN5Catch8TestCaseEEEEEEENS_19__allocation_resultINS_16allocator_traitsIT_E7pointerEEERSB_m, symObjAddr: 0x1B0C20, symBinAddr: 0x1001B1D5C, symSize: 0x28C }
  - { offsetInCU: 0xB6EBA, offset: 0xB6EBA, size: 0x8, addend: 0x0, symName: __ZNSt3__142__uninitialized_allocator_move_if_noexceptB8ue170006INS_9allocatorINS_4pairIyPKN5Catch8TestCaseEEEEENS_16reverse_iteratorIPS7_EESB_SB_EET2_RT_T0_T1_SC_, symObjAddr: 0x1B119C, symBinAddr: 0x1001B22D8, symSize: 0x544 }
  - { offsetInCU: 0xB6F70, offset: 0xB6F70, size: 0x8, addend: 0x0, symName: __ZNSt3__14swapB8ue170006IPNS_4pairIyPKN5Catch8TestCaseEEEEENS_9enable_ifIXaasr21is_move_constructibleIT_EE5valuesr18is_move_assignableIS9_EE5valueEvE4typeERS9_SC_, symObjAddr: 0x1B1778, symBinAddr: 0x1001B28B4, symSize: 0x134 }
  - { offsetInCU: 0xB6FC5, offset: 0xB6FC5, size: 0x8, addend: 0x0, symName: __ZNSt3__112__to_addressB8ue170006INS_4pairIyPKN5Catch8TestCaseEEEEEPT_S8_, symObjAddr: 0x1B1A50, symBinAddr: 0x1001B2B8C, symSize: 0x14 }
  - { offsetInCU: 0xB6FFC, offset: 0xB6FFC, size: 0x8, addend: 0x0, symName: __ZNSt3__122__make_exception_guardB8ue170006INS_29_AllocatorDestroyRangeReverseINS_9allocatorINS_4pairIyPKN5Catch8TestCaseEEEEENS_16reverse_iteratorIPS8_EEEEEENS_28__exception_guard_exceptionsIT_EESF_, symObjAddr: 0x1B1A64, symBinAddr: 0x1001B2BA0, symSize: 0x1F8 }
  - { offsetInCU: 0xB7035, offset: 0xB7035, size: 0x8, addend: 0x0, symName: __ZNSt3__1neB8ue170006IPNS_4pairIyPKN5Catch8TestCaseEEES7_EEbRKNS_16reverse_iteratorIT_EERKNS8_IT0_EE, symObjAddr: 0x1B1CA0, symBinAddr: 0x1001B2DDC, symSize: 0x48 }
  - { offsetInCU: 0xB7084, offset: 0xB7084, size: 0x8, addend: 0x0, symName: __ZNSt3__112__to_addressB8ue170006INS_16reverse_iteratorIPNS_4pairIyPKN5Catch8TestCaseEEEEEvEEu7__decayIDTclsr19__to_address_helperIT_EE6__callclsr3stdE7declvalIRKSA_EEEEESC_, symObjAddr: 0x1B1D18, symBinAddr: 0x1001B2E54, symSize: 0x24 }
  - { offsetInCU: 0xB70E3, offset: 0xB70E3, size: 0x8, addend: 0x0, symName: __ZNSt3__112construct_atB8ue170006INS_4pairIyPKN5Catch8TestCaseEEEJS6_EPS6_EEPT_S9_DpOT0_, symObjAddr: 0x1B20B0, symBinAddr: 0x1001B31EC, symSize: 0x40 }
  - { offsetInCU: 0xB7186, offset: 0xB7186, size: 0x8, addend: 0x0, symName: __ZNSt3__14prevB8ue170006IPNS_4pairIyPKN5Catch8TestCaseEEEEENS_9enable_ifIXsr29__has_input_iterator_categoryIT_EE5valueES9_E4typeES9_NS_15iterator_traitsIS9_E15difference_typeE, symObjAddr: 0x1B21A0, symBinAddr: 0x1001B32DC, symSize: 0x240 }
  - { offsetInCU: 0xB71D1, offset: 0xB71D1, size: 0x8, addend: 0x0, symName: __ZNSt3__19__advanceB8ue170006IPNS_4pairIyPKN5Catch8TestCaseEEEEEvRT_NS_15iterator_traitsIS8_E15difference_typeENS_26random_access_iterator_tagE, symObjAddr: 0x1B2418, symBinAddr: 0x1001B3554, symSize: 0x78 }
  - { offsetInCU: 0xB721D, offset: 0xB721D, size: 0x8, addend: 0x0, symName: __ZNSt3__119__allocator_destroyB8ue170006INS_9allocatorINS_4pairIyPKN5Catch8TestCaseEEEEENS_16reverse_iteratorINS9_IPS7_EEEESC_EEvRT_T0_T1_, symObjAddr: 0x1B28F4, symBinAddr: 0x1001B3A30, symSize: 0x70 }
  - { offsetInCU: 0xB7283, offset: 0xB7283, size: 0x8, addend: 0x0, symName: __ZNSt3__1neB8ue170006INS_16reverse_iteratorIPNS_4pairIyPKN5Catch8TestCaseEEEEES9_EEbRKNS1_IT_EERKNS1_IT0_EE, symObjAddr: 0x1B2BAC, symBinAddr: 0x1001B3CE8, symSize: 0x2CC }
  - { offsetInCU: 0xB72D4, offset: 0xB72D4, size: 0x8, addend: 0x0, symName: __ZNSt3__112__to_addressB8ue170006INS_16reverse_iteratorINS1_IPNS_4pairIyPKN5Catch8TestCaseEEEEEEEvEEu7__decayIDTclsr19__to_address_helperIT_EE6__callclsr3stdE7declvalIRKSB_EEEEESD_, symObjAddr: 0x1B2EA0, symBinAddr: 0x1001B3FDC, symSize: 0x24 }
  - { offsetInCU: 0xB730C, offset: 0xB730C, size: 0x8, addend: 0x0, symName: __ZNSt3__110destroy_atB8ue170006INS_4pairIyPKN5Catch8TestCaseEEELi0EEEvPT_, symObjAddr: 0x1B3100, symBinAddr: 0x1001B423C, symSize: 0x24 }
  - { offsetInCU: 0xB7346, offset: 0xB7346, size: 0x8, addend: 0x0, symName: __ZNSt3__112__destroy_atB8ue170006INS_4pairIyPKN5Catch8TestCaseEEELi0EEEvPT_, symObjAddr: 0x1B3124, symBinAddr: 0x1001B4260, symSize: 0x10 }
  - { offsetInCU: 0xB73AB, offset: 0xB73AB, size: 0x8, addend: 0x0, symName: __ZNSt3__14prevB8ue170006INS_16reverse_iteratorIPNS_4pairIyPKN5Catch8TestCaseEEEEEEENS_9enable_ifIXsr29__has_input_iterator_categoryIT_EE5valueESB_E4typeESB_NS_15iterator_traitsISB_E15difference_typeE, symObjAddr: 0x1B3418, symBinAddr: 0x1001B4554, symSize: 0x294 }
  - { offsetInCU: 0xB73F6, offset: 0xB73F6, size: 0x8, addend: 0x0, symName: __ZNSt3__19__advanceB8ue170006INS_16reverse_iteratorIPNS_4pairIyPKN5Catch8TestCaseEEEEEEEvRT_NS_15iterator_traitsISA_E15difference_typeENS_26random_access_iterator_tagE, symObjAddr: 0x1B36E4, symBinAddr: 0x1001B4820, symSize: 0x2C }
  - { offsetInCU: 0xB7443, offset: 0xB7443, size: 0x8, addend: 0x0, symName: __ZNSt3__1eqB8ue170006IPKN5Catch8TestCaseEEEbRKNS_11__wrap_iterIT_EES9_, symObjAddr: 0x1B41D4, symBinAddr: 0x1001B5310, symSize: 0x48 }
  - { offsetInCU: 0xB7489, offset: 0xB7489, size: 0x8, addend: 0x0, symName: __ZNSt3__112construct_atB8ue170006INS_4pairIyPKN5Catch8TestCaseEEEJjS5_EPS6_EEPT_S9_DpOT0_, symObjAddr: 0x1B4D68, symBinAddr: 0x1001B5EA4, symSize: 0x44 }
  - { offsetInCU: 0xB7515, offset: 0xB7515, size: 0x8, addend: 0x0, symName: '__ZNSt3__111__sort_implB8ue170006INS_17_ClassicAlgPolicyENS_11__wrap_iterIPNS_4pairIyPKN5Catch8TestCaseEEEEEZNS4_9sortTestsERKNS4_7IConfigERKNS_6vectorIS5_NS_9allocatorIS5_EEEEE4$_15EEvT0_SL_RT1_', symObjAddr: 0x1B560C, symBinAddr: 0x1001B6748, symSize: 0x4D0 }
  - { offsetInCU: 0xB7582, offset: 0xB7582, size: 0x8, addend: 0x0, symName: __ZNSt3__123__debug_randomize_rangeB8ue170006INS_17_ClassicAlgPolicyENS_11__wrap_iterIPNS_4pairIyPKN5Catch8TestCaseEEEEESA_EEvT0_T1_, symObjAddr: 0x1B5ADC, symBinAddr: 0x1001B6C18, symSize: 0x264 }
  - { offsetInCU: 0xB75DD, offset: 0xB75DD, size: 0x8, addend: 0x0, symName: '__ZNSt3__115__sort_dispatchB8ue170006INS_17_ClassicAlgPolicyEPNS_4pairIyPKN5Catch8TestCaseEEEZNS3_9sortTestsERKNS3_7IConfigERKNS_6vectorIS4_NS_9allocatorIS4_EEEEE4$_15EEvT0_SJ_RT1_', symObjAddr: 0x1B5D40, symBinAddr: 0x1001B6E7C, symSize: 0x64 }
  - { offsetInCU: 0xB765C, offset: 0xB765C, size: 0x8, addend: 0x0, symName: __ZNSt3__113__unwrap_iterB8ue170006INS_11__wrap_iterIPNS_4pairIyPKN5Catch8TestCaseEEEEENS_18__unwrap_iter_implIS9_Lb1EEELi0EEEDTclsrT0_8__unwrapclsr3stdE7declvalIT_EEEESD_, symObjAddr: 0x1B5DA4, symBinAddr: 0x1001B6EE0, symSize: 0x274 }
  - { offsetInCU: 0xB76A7, offset: 0xB76A7, size: 0x8, addend: 0x0, symName: '__ZNSt3__135__check_strict_weak_ordering_sortedB8ue170006IPNS_4pairIyPKN5Catch8TestCaseEEEZNS2_9sortTestsERKNS2_7IConfigERKNS_6vectorIS3_NS_9allocatorIS3_EEEEE4$_15EEvT_SI_RT0_', symObjAddr: 0x1B6018, symBinAddr: 0x1001B7154, symSize: 0x18 }
  - { offsetInCU: 0xB7701, offset: 0xB7701, size: 0x8, addend: 0x0, symName: '__ZNSt3__124__sort3_maybe_branchlessB8ue170006INS_17_ClassicAlgPolicyERZN5Catch9sortTestsERKNS2_7IConfigERKNS_6vectorINS2_8TestCaseENS_9allocatorIS7_EEEEE4$_15PNS_4pairIyPKS7_EEEENS_9enable_ifIXntsr21__use_branchless_sortIT0_T1_EE5valueEvE4typeESM_SM_SM_SL_', symObjAddr: 0x1B7774, symBinAddr: 0x1001B88B0, symSize: 0x3C }
  - { offsetInCU: 0xB7777, offset: 0xB7777, size: 0x8, addend: 0x0, symName: '__ZNSt3__124__sort4_maybe_branchlessB8ue170006INS_17_ClassicAlgPolicyERZN5Catch9sortTestsERKNS2_7IConfigERKNS_6vectorINS2_8TestCaseENS_9allocatorIS7_EEEEE4$_15PNS_4pairIyPKS7_EEEENS_9enable_ifIXntsr21__use_branchless_sortIT0_T1_EE5valueEvE4typeESM_SM_SM_SM_SL_', symObjAddr: 0x1B77B0, symBinAddr: 0x1001B88EC, symSize: 0x44 }
  - { offsetInCU: 0xB77FC, offset: 0xB77FC, size: 0x8, addend: 0x0, symName: '__ZNSt3__124__sort5_maybe_branchlessB8ue170006INS_17_ClassicAlgPolicyERZN5Catch9sortTestsERKNS2_7IConfigERKNS_6vectorINS2_8TestCaseENS_9allocatorIS7_EEEEE4$_15PNS_4pairIyPKS7_EEEENS_9enable_ifIXntsr21__use_branchless_sortIT0_T1_EE5valueEvE4typeESM_SM_SM_SM_SM_SL_', symObjAddr: 0x1B77F4, symBinAddr: 0x1001B8930, symSize: 0x4C }
  - { offsetInCU: 0xB7890, offset: 0xB7890, size: 0x8, addend: 0x0, symName: '__ZNSt3__116__insertion_sortB8ue170006INS_17_ClassicAlgPolicyERZN5Catch9sortTestsERKNS2_7IConfigERKNS_6vectorINS2_8TestCaseENS_9allocatorIS7_EEEEE4$_15PNS_4pairIyPKS7_EEEEvT1_SK_T0_', symObjAddr: 0x1B7840, symBinAddr: 0x1001B897C, symSize: 0x53C }
  - { offsetInCU: 0xB795F, offset: 0xB795F, size: 0x8, addend: 0x0, symName: '__ZNSt3__114__partial_sortB8ue170006INS_17_ClassicAlgPolicyERZN5Catch9sortTestsERKNS2_7IConfigERKNS_6vectorINS2_8TestCaseENS_9allocatorIS7_EEEEE4$_15PNS_4pairIyPKS7_EESJ_EET1_SK_SK_T2_RT0_', symObjAddr: 0x1B828C, symBinAddr: 0x1001B93C8, symSize: 0x94 }
  - { offsetInCU: 0xB79ED, offset: 0xB79ED, size: 0x8, addend: 0x0, symName: '__ZNSt3__17__sort3B8ue170006INS_17_ClassicAlgPolicyERZN5Catch9sortTestsERKNS2_7IConfigERKNS_6vectorINS2_8TestCaseENS_9allocatorIS7_EEEEE4$_15PNS_4pairIyPKS7_EEEEjT1_SK_SK_T0_', symObjAddr: 0x1B8320, symBinAddr: 0x1001B945C, symSize: 0x66C }
  - { offsetInCU: 0xB7A80, offset: 0xB7A80, size: 0x8, addend: 0x0, symName: __ZNSt3__19iter_swapB8ue170006IPNS_4pairIyPKN5Catch8TestCaseEEES7_EEvT_T0_, symObjAddr: 0x1BB948, symBinAddr: 0x1001BCA84, symSize: 0x2C }
  - { offsetInCU: 0xB7ACA, offset: 0xB7ACA, size: 0x8, addend: 0x0, symName: __ZNSt3__14swapB8ue170006IyPKN5Catch8TestCaseEEENS_9enable_ifIXaasr14__is_swappableIT_EE5valuesr14__is_swappableIT0_EE5valueEvE4typeERNS_4pairIS6_S7_EESC_, symObjAddr: 0x1BB974, symBinAddr: 0x1001BCAB0, symSize: 0x2C }
  - { offsetInCU: 0xB7B1A, offset: 0xB7B1A, size: 0x8, addend: 0x0, symName: __ZNSt3__14swapB8ue170006IyEENS_9enable_ifIXaasr21is_move_constructibleIT_EE5valuesr18is_move_assignableIS2_EE5valueEvE4typeERS2_S5_, symObjAddr: 0x1BB9E4, symBinAddr: 0x1001BCB20, symSize: 0x134 }
  - { offsetInCU: 0xB7B6F, offset: 0xB7B6F, size: 0x8, addend: 0x0, symName: __ZNSt3__14swapB8ue170006IPKN5Catch8TestCaseEEENS_9enable_ifIXaasr21is_move_constructibleIT_EE5valuesr18is_move_assignableIS6_EE5valueEvE4typeERS6_S9_, symObjAddr: 0x1BBB18, symBinAddr: 0x1001BCC54, symSize: 0x134 }
  - { offsetInCU: 0xB7BC4, offset: 0xB7BC4, size: 0x8, addend: 0x0, symName: '__ZNSt3__17__sort4B8ue170006INS_17_ClassicAlgPolicyERZN5Catch9sortTestsERKNS2_7IConfigERKNS_6vectorINS2_8TestCaseENS_9allocatorIS7_EEEEE4$_15PNS_4pairIyPKS7_EEEEvT1_SK_SK_SK_T0_', symObjAddr: 0x1BBC4C, symBinAddr: 0x1001BCD88, symSize: 0x5D4 }
  - { offsetInCU: 0xB7C57, offset: 0xB7C57, size: 0x8, addend: 0x0, symName: '__ZNSt3__17__sort5B8ue170006INS_17_ClassicAlgPolicyERZN5Catch9sortTestsERKNS2_7IConfigERKNS_6vectorINS2_8TestCaseENS_9allocatorIS7_EEEEE4$_15PNS_4pairIyPKS7_EEEEvT1_SK_SK_SK_SK_T0_', symObjAddr: 0x1BC220, symBinAddr: 0x1001BD35C, symSize: 0x714 }
  - { offsetInCU: 0xB7D25, offset: 0xB7D25, size: 0x8, addend: 0x0, symName: __ZNSt3__123__debug_randomize_rangeB8ue170006INS_17_ClassicAlgPolicyEPNS_4pairIyPKN5Catch8TestCaseEEES8_EEvT0_T1_, symObjAddr: 0x1BCAF0, symBinAddr: 0x1001BDC2C, symSize: 0x14 }
  - { offsetInCU: 0xB7D79, offset: 0xB7D79, size: 0x8, addend: 0x0, symName: '__ZNSt3__119__partial_sort_implB8ue170006INS_17_ClassicAlgPolicyERZN5Catch9sortTestsERKNS2_7IConfigERKNS_6vectorINS2_8TestCaseENS_9allocatorIS7_EEEEE4$_15PNS_4pairIyPKS7_EESJ_EET1_SK_SK_T2_OT0_', symObjAddr: 0x1BCB04, symBinAddr: 0x1001BDC40, symSize: 0x59C }
  - { offsetInCU: 0xB7E22, offset: 0xB7E22, size: 0x8, addend: 0x0, symName: '__ZNSt3__111__make_heapB8ue170006INS_17_ClassicAlgPolicyERZN5Catch9sortTestsERKNS2_7IConfigERKNS_6vectorINS2_8TestCaseENS_9allocatorIS7_EEEEE4$_15PNS_4pairIyPKS7_EEEEvT1_SK_OT0_', symObjAddr: 0x1BD0A0, symBinAddr: 0x1001BE1DC, symSize: 0xBC }
  - { offsetInCU: 0xB7ECC, offset: 0xB7ECC, size: 0x8, addend: 0x0, symName: '__ZNSt3__111__sort_heapB8ue170006INS_17_ClassicAlgPolicyERZN5Catch9sortTestsERKNS2_7IConfigERKNS_6vectorINS2_8TestCaseENS_9allocatorIS7_EEEEE4$_15PNS_4pairIyPKS7_EEEEvT1_SK_OT0_', symObjAddr: 0x1BD8E4, symBinAddr: 0x1001BEA20, symSize: 0xAC }
  - { offsetInCU: 0xB7F76, offset: 0xB7F76, size: 0x8, addend: 0x0, symName: '__ZNSt3__110__pop_heapB8ue170006INS_17_ClassicAlgPolicyEZN5Catch9sortTestsERKNS2_7IConfigERKNS_6vectorINS2_8TestCaseENS_9allocatorIS7_EEEEE4$_15PNS_4pairIyPKS7_EEEEvT1_SJ_RT0_NS_15iterator_traitsISJ_E15difference_typeE', symObjAddr: 0x1BD990, symBinAddr: 0x1001BEACC, symSize: 0x460 }
  - { offsetInCU: 0xB8037, offset: 0xB8037, size: 0x8, addend: 0x0, symName: '__ZNSt3__19__sift_upB8ue170006INS_17_ClassicAlgPolicyERZN5Catch9sortTestsERKNS2_7IConfigERKNS_6vectorINS2_8TestCaseENS_9allocatorIS7_EEEEE4$_15PNS_4pairIyPKS7_EEEEvT1_SK_OT0_NS_15iterator_traitsISK_E15difference_typeE', symObjAddr: 0x1BE1BC, symBinAddr: 0x1001BF2F8, symSize: 0x54C }
  - { offsetInCU: 0xB80ED, offset: 0xB80ED, size: 0x8, addend: 0x0, symName: '__ZNSt3__122__populate_left_bitsetB8ue170006IRZN5Catch9sortTestsERKNS1_7IConfigERKNS_6vectorINS1_8TestCaseENS_9allocatorIS6_EEEEE4$_15PNS_4pairIyPKS6_EESH_EEvT0_T_RT1_Ry', symObjAddr: 0x1BE708, symBinAddr: 0x1001BF844, symSize: 0xF8 }
  - { offsetInCU: 0xB81A8, offset: 0xB81A8, size: 0x8, addend: 0x0, symName: '__ZNSt3__123__populate_right_bitsetB8ue170006IRZN5Catch9sortTestsERKNS1_7IConfigERKNS_6vectorINS1_8TestCaseENS_9allocatorIS6_EEEEE4$_15PNS_4pairIyPKS6_EESH_EEvT0_T_RT1_Ry', symObjAddr: 0x1BE800, symBinAddr: 0x1001BF93C, symSize: 0xF4 }
  - { offsetInCU: 0xB8263, offset: 0xB8263, size: 0x8, addend: 0x0, symName: __ZNSt3__117__swap_bitmap_posB8ue170006INS_17_ClassicAlgPolicyEPNS_4pairIyPKN5Catch8TestCaseEEEEEvT0_S9_RySA_, symObjAddr: 0x1BE8F4, symBinAddr: 0x1001BFA30, symSize: 0x518 }
  - { offsetInCU: 0xB830A, offset: 0xB830A, size: 0x8, addend: 0x0, symName: '__ZNSt3__133__bitset_partition_partial_blocksB8ue170006INS_17_ClassicAlgPolicyERZN5Catch9sortTestsERKNS2_7IConfigERKNS_6vectorINS2_8TestCaseENS_9allocatorIS7_EEEEE4$_15PNS_4pairIyPKS7_EESI_EEvRT1_SL_T0_RT2_RySP_', symObjAddr: 0x1BEE0C, symBinAddr: 0x1001BFF48, symSize: 0x6AC }
  - { offsetInCU: 0xB8493, offset: 0xB8493, size: 0x8, addend: 0x0, symName: __ZNSt3__19make_pairB8ue170006IRPNS_4pairIyPKN5Catch8TestCaseEEERbEENS1_INS_18__unwrap_ref_decayIT_E4typeENSA_IT0_E4typeEEEOSB_OSE_, symObjAddr: 0x1BFC70, symBinAddr: 0x1001C0DAC, symSize: 0x20C }
  - { offsetInCU: 0xB8618, offset: 0xB8618, size: 0x8, addend: 0x0, symName: __ZNSt3__112__to_addressB8ue170006INS_11__wrap_iterIPNS_4pairIyPKN5Catch8TestCaseEEEEEvEEu7__decayIDTclsr19__to_address_helperIT_EE6__callclsr3stdE7declvalIRKSA_EEEEESC_, symObjAddr: 0x1C02E0, symBinAddr: 0x1001C141C, symSize: 0x24 }
  - { offsetInCU: 0xB86BC, offset: 0xB86BC, size: 0x8, addend: 0x0, symName: __ZNSt3__142__uninitialized_allocator_move_if_noexceptB8ue170006INS_9allocatorIN5Catch8TestCaseEEENS_16reverse_iteratorIPS3_EES7_S7_EET2_RT_T0_T1_S8_, symObjAddr: 0x1C1AC4, symBinAddr: 0x1001C2C00, symSize: 0x53C }
  - { offsetInCU: 0xB8772, offset: 0xB8772, size: 0x8, addend: 0x0, symName: __ZNSt3__14swapB8ue170006IPN5Catch8TestCaseEEENS_9enable_ifIXaasr21is_move_constructibleIT_EE5valuesr18is_move_assignableIS5_EE5valueEvE4typeERS5_S8_, symObjAddr: 0x1C2000, symBinAddr: 0x1001C313C, symSize: 0x134 }
  - { offsetInCU: 0xB87C7, offset: 0xB87C7, size: 0x8, addend: 0x0, symName: __ZNSt3__122__make_exception_guardB8ue170006INS_29_AllocatorDestroyRangeReverseINS_9allocatorIN5Catch8TestCaseEEENS_16reverse_iteratorIPS4_EEEEEENS_28__exception_guard_exceptionsIT_EESB_, symObjAddr: 0x1C2134, symBinAddr: 0x1001C3270, symSize: 0x1F8 }
  - { offsetInCU: 0xB8800, offset: 0xB8800, size: 0x8, addend: 0x0, symName: __ZNSt3__112construct_atB8ue170006IN5Catch8TestCaseEJS2_EPS2_EEPT_S5_DpOT0_, symObjAddr: 0x1C26A8, symBinAddr: 0x1001C37E4, symSize: 0x3C }
  - { offsetInCU: 0xB8877, offset: 0xB8877, size: 0x8, addend: 0x0, symName: __ZNSt3__119__allocator_destroyB8ue170006INS_9allocatorIN5Catch8TestCaseEEENS_16reverse_iteratorINS5_IPS3_EEEES8_EEvRT_T0_T1_, symObjAddr: 0x1C2B48, symBinAddr: 0x1001C3C84, symSize: 0x70 }
  - { offsetInCU: 0xB88DD, offset: 0xB88DD, size: 0x8, addend: 0x0, symName: __ZNSt3__1neB8ue170006INS_16reverse_iteratorIPN5Catch8TestCaseEEES5_EEbRKNS1_IT_EERKNS1_IT0_EE, symObjAddr: 0x1C2E00, symBinAddr: 0x1001C3F3C, symSize: 0x2CC }
  - { offsetInCU: 0xB892E, offset: 0xB892E, size: 0x8, addend: 0x0, symName: __ZNSt3__112__to_addressB8ue170006INS_16reverse_iteratorINS1_IPN5Catch8TestCaseEEEEEvEEu7__decayIDTclsr19__to_address_helperIT_EE6__callclsr3stdE7declvalIRKS7_EEEEES9_, symObjAddr: 0x1C30CC, symBinAddr: 0x1001C4208, symSize: 0x24 }
  - { offsetInCU: 0xB8991, offset: 0xB8991, size: 0x8, addend: 0x0, symName: __ZNSt3__14prevB8ue170006INS_16reverse_iteratorIPN5Catch8TestCaseEEEEENS_9enable_ifIXsr29__has_input_iterator_categoryIT_EE5valueES7_E4typeES7_NS_15iterator_traitsIS7_E15difference_typeE, symObjAddr: 0x1C3610, symBinAddr: 0x1001C474C, symSize: 0x294 }
  - { offsetInCU: 0xB89DC, offset: 0xB89DC, size: 0x8, addend: 0x0, symName: __ZNSt3__19__advanceB8ue170006INS_16reverse_iteratorIPN5Catch8TestCaseEEEEEvRT_NS_15iterator_traitsIS6_E15difference_typeENS_26random_access_iterator_tagE, symObjAddr: 0x1C38DC, symBinAddr: 0x1001C4A18, symSize: 0x2C }
  - { offsetInCU: 0xB8A29, offset: 0xB8A29, size: 0x8, addend: 0x0, symName: __ZNSt3__1eqB8ue170006IPNS_4pairIyPKN5Catch8TestCaseEEEEEbRKNS_11__wrap_iterIT_EESC_, symObjAddr: 0x1C3FD0, symBinAddr: 0x1001C510C, symSize: 0x48 }
  - { offsetInCU: 0xB8A6F, offset: 0xB8A6F, size: 0x8, addend: 0x0, symName: __ZNSt3__112construct_atB8ue170006IN5Catch8TestCaseEJRKS2_EPS2_EEPT_S7_DpOT0_, symObjAddr: 0x1C47DC, symBinAddr: 0x1001C5918, symSize: 0x3C }
  - { offsetInCU: 0xB8AE6, offset: 0xB8AE6, size: 0x8, addend: 0x0, symName: __ZNSt3__111__str_rfindB8ue170006IcmNS_11char_traitsIcEELm18446744073709551615EEET0_PKT_S3_S6_S3_S3_, symObjAddr: 0x1C5A60, symBinAddr: 0x1001C6B9C, symSize: 0x578 }
  - { offsetInCU: 0xB8B9B, offset: 0xB8B9B, size: 0x8, addend: 0x0, symName: __ZNSt3__118__find_end_classicB8ue170006IPKcS2_DoFbccEEET_S4_S4_T0_S5_RT1_, symObjAddr: 0x1C5FD8, symBinAddr: 0x1001C7114, symSize: 0x2D8 }
  - { offsetInCU: 0xB8C38, offset: 0xB8C38, size: 0x8, addend: 0x0, symName: __ZNSt3__115__find_end_implB8ue170006INS_17_ClassicAlgPolicyEPKcS3_S3_S3_DoFbccENS_10__identityES5_EENS_4pairIT0_S7_EES7_T1_T2_T3_RT4_RT5_RT6_NS_20forward_iterator_tagESI_, symObjAddr: 0x1C62B0, symBinAddr: 0x1001C73EC, symSize: 0x598 }
  - { offsetInCU: 0xB8D7A, offset: 0xB8D7A, size: 0x8, addend: 0x0, symName: __ZNSt3__18__invokeB8ue170006IRDoFbccEJRKcS4_EEEDTclclsr3stdE7declvalIT_EEspclsr3stdE7declvalIT0_EEEEOS5_DpOS6_, symObjAddr: 0x1C689C, symBinAddr: 0x1001C79D8, symSize: 0x10C }
  - { offsetInCU: 0xB8DE2, offset: 0xB8DE2, size: 0x8, addend: 0x0, symName: __ZNSt3__18__invokeB8ue170006IRNS_10__identityEJRKcEEEDTclclsr3stdE7declvalIT_EEspclsr3stdE7declvalIT0_EEEEOS5_DpOS6_, symObjAddr: 0x1C69A8, symBinAddr: 0x1001C7AE4, symSize: 0x2C }
  - { offsetInCU: 0xB8E5D, offset: 0xB8E5D, size: 0x8, addend: 0x0, symName: __ZNSt3__112construct_atB8ue170006INS_10shared_ptrIN5Catch16TestCaseTracking8ITrackerEEEJRKS5_EPS5_EEPT_SA_DpOT0_, symObjAddr: 0x1C7AA4, symBinAddr: 0x1001C8BE0, symSize: 0x3C }
  - { offsetInCU: 0xB8ED5, offset: 0xB8ED5, size: 0x8, addend: 0x0, symName: __ZNSt3__119__allocate_at_leastB8ue170006INS_9allocatorINS_10shared_ptrIN5Catch16TestCaseTracking8ITrackerEEEEEEENS_19__allocation_resultINS_16allocator_traitsIT_E7pointerEEERSA_m, symObjAddr: 0x1C9080, symBinAddr: 0x1001CA1BC, symSize: 0x28C }
  - { offsetInCU: 0xB8F1C, offset: 0xB8F1C, size: 0x8, addend: 0x0, symName: __ZNSt3__142__uninitialized_allocator_move_if_noexceptB8ue170006INS_9allocatorINS_10shared_ptrIN5Catch16TestCaseTracking8ITrackerEEEEENS_16reverse_iteratorIPS6_EESA_SA_EET2_RT_T0_T1_SB_, symObjAddr: 0x1C951C, symBinAddr: 0x1001CA658, symSize: 0x544 }
  - { offsetInCU: 0xB8FD2, offset: 0xB8FD2, size: 0x8, addend: 0x0, symName: __ZNSt3__14swapB8ue170006IPNS_10shared_ptrIN5Catch16TestCaseTracking8ITrackerEEEEENS_9enable_ifIXaasr21is_move_constructibleIT_EE5valuesr18is_move_assignableIS8_EE5valueEvE4typeERS8_SB_, symObjAddr: 0x1C9AF8, symBinAddr: 0x1001CAC34, symSize: 0x134 }
  - { offsetInCU: 0xB9027, offset: 0xB9027, size: 0x8, addend: 0x0, symName: __ZNSt3__122__make_exception_guardB8ue170006INS_29_AllocatorDestroyRangeReverseINS_9allocatorINS_10shared_ptrIN5Catch16TestCaseTracking8ITrackerEEEEENS_16reverse_iteratorIPS7_EEEEEENS_28__exception_guard_exceptionsIT_EESE_, symObjAddr: 0x1C9CEC, symBinAddr: 0x1001CAE28, symSize: 0x1F8 }
  - { offsetInCU: 0xB9060, offset: 0xB9060, size: 0x8, addend: 0x0, symName: __ZNSt3__1neB8ue170006IPNS_10shared_ptrIN5Catch16TestCaseTracking8ITrackerEEES6_EEbRKNS_16reverse_iteratorIT_EERKNS7_IT0_EE, symObjAddr: 0x1C9F28, symBinAddr: 0x1001CB064, symSize: 0x48 }
  - { offsetInCU: 0xB90AF, offset: 0xB90AF, size: 0x8, addend: 0x0, symName: __ZNSt3__112__to_addressB8ue170006INS_16reverse_iteratorIPNS_10shared_ptrIN5Catch16TestCaseTracking8ITrackerEEEEEvEEu7__decayIDTclsr19__to_address_helperIT_EE6__callclsr3stdE7declvalIRKS9_EEEEESB_, symObjAddr: 0x1C9FA0, symBinAddr: 0x1001CB0DC, symSize: 0x24 }
  - { offsetInCU: 0xB90E7, offset: 0xB90E7, size: 0x8, addend: 0x0, symName: __ZNSt3__112construct_atB8ue170006INS_10shared_ptrIN5Catch16TestCaseTracking8ITrackerEEEJS5_EPS5_EEPT_S8_DpOT0_, symObjAddr: 0x1CA338, symBinAddr: 0x1001CB474, symSize: 0x3C }
  - { offsetInCU: 0xB918A, offset: 0xB918A, size: 0x8, addend: 0x0, symName: __ZNSt3__14prevB8ue170006IPNS_10shared_ptrIN5Catch16TestCaseTracking8ITrackerEEEEENS_9enable_ifIXsr29__has_input_iterator_categoryIT_EE5valueES8_E4typeES8_NS_15iterator_traitsIS8_E15difference_typeE, symObjAddr: 0x1CA610, symBinAddr: 0x1001CB74C, symSize: 0x240 }
  - { offsetInCU: 0xB91D5, offset: 0xB91D5, size: 0x8, addend: 0x0, symName: __ZNSt3__19__advanceB8ue170006IPNS_10shared_ptrIN5Catch16TestCaseTracking8ITrackerEEEEEvRT_NS_15iterator_traitsIS7_E15difference_typeENS_26random_access_iterator_tagE, symObjAddr: 0x1CA888, symBinAddr: 0x1001CB9C4, symSize: 0x78 }
  - { offsetInCU: 0xB9221, offset: 0xB9221, size: 0x8, addend: 0x0, symName: __ZNSt3__119__allocator_destroyB8ue170006INS_9allocatorINS_10shared_ptrIN5Catch16TestCaseTracking8ITrackerEEEEENS_16reverse_iteratorINS8_IPS6_EEEESB_EEvRT_T0_T1_, symObjAddr: 0x1CAD64, symBinAddr: 0x1001CBEA0, symSize: 0x70 }
  - { offsetInCU: 0xB9287, offset: 0xB9287, size: 0x8, addend: 0x0, symName: __ZNSt3__1neB8ue170006INS_16reverse_iteratorIPNS_10shared_ptrIN5Catch16TestCaseTracking8ITrackerEEEEES8_EEbRKNS1_IT_EERKNS1_IT0_EE, symObjAddr: 0x1CB01C, symBinAddr: 0x1001CC158, symSize: 0x2CC }
  - { offsetInCU: 0xB92D8, offset: 0xB92D8, size: 0x8, addend: 0x0, symName: __ZNSt3__112__to_addressB8ue170006INS_16reverse_iteratorINS1_IPNS_10shared_ptrIN5Catch16TestCaseTracking8ITrackerEEEEEEEvEEu7__decayIDTclsr19__to_address_helperIT_EE6__callclsr3stdE7declvalIRKSA_EEEEESC_, symObjAddr: 0x1CB2E8, symBinAddr: 0x1001CC424, symSize: 0x24 }
  - { offsetInCU: 0xB933B, offset: 0xB933B, size: 0x8, addend: 0x0, symName: __ZNSt3__14prevB8ue170006INS_16reverse_iteratorIPNS_10shared_ptrIN5Catch16TestCaseTracking8ITrackerEEEEEEENS_9enable_ifIXsr29__has_input_iterator_categoryIT_EE5valueESA_E4typeESA_NS_15iterator_traitsISA_E15difference_typeE, symObjAddr: 0x1CB82C, symBinAddr: 0x1001CC968, symSize: 0x294 }
  - { offsetInCU: 0xB9386, offset: 0xB9386, size: 0x8, addend: 0x0, symName: __ZNSt3__19__advanceB8ue170006INS_16reverse_iteratorIPNS_10shared_ptrIN5Catch16TestCaseTracking8ITrackerEEEEEEEvRT_NS_15iterator_traitsIS9_E15difference_typeENS_26random_access_iterator_tagE, symObjAddr: 0x1CBAF8, symBinAddr: 0x1001CCC34, symSize: 0x2C }
  - { offsetInCU: 0xB93D3, offset: 0xB93D3, size: 0x8, addend: 0x0, symName: __ZNSt3__1eqB8ue170006IPNS_10shared_ptrIN5Catch16TestCaseTracking8ITrackerEEEEEbRKNS_11__wrap_iterIT_EESB_, symObjAddr: 0x1CC6AC, symBinAddr: 0x1001CD7E8, symSize: 0x48 }
  - { offsetInCU: 0xB9419, offset: 0xB9419, size: 0x8, addend: 0x0, symName: __ZNSt3__113__rewrap_iterB8ue170006INS_11__wrap_iterIPKNS_12basic_stringIcNS_11char_traitsIcEENS_9allocatorIcEEEEEES9_NS_18__unwrap_iter_implISA_Lb1EEEEET_SD_T0_, symObjAddr: 0x1CC8AC, symBinAddr: 0x1001CD9E8, symSize: 0x338 }
  - { offsetInCU: 0xB9476, offset: 0xB9476, size: 0x8, addend: 0x0, symName: __ZNSt3__111__find_implB8ue170006IPKNS_12basic_stringIcNS_11char_traitsIcEENS_9allocatorIcEEEES8_S6_NS_10__identityEEET_SA_T0_RKT1_RT2_, symObjAddr: 0x1CCBE4, symBinAddr: 0x1001CDD20, symSize: 0x7C }
  - { offsetInCU: 0xB94F5, offset: 0xB94F5, size: 0x8, addend: 0x0, symName: __ZNSt3__113__unwrap_iterB8ue170006INS_11__wrap_iterIPKNS_12basic_stringIcNS_11char_traitsIcEENS_9allocatorIcEEEEEENS_18__unwrap_iter_implISA_Lb1EEELi0EEEDTclsrT0_8__unwrapclsr3stdE7declvalIT_EEEESE_, symObjAddr: 0x1CCC60, symBinAddr: 0x1001CDD9C, symSize: 0x274 }
  - { offsetInCU: 0xB9598, offset: 0xB9598, size: 0x8, addend: 0x0, symName: __ZNSt3__112__to_addressB8ue170006INS_11__wrap_iterIPKNS_12basic_stringIcNS_11char_traitsIcEENS_9allocatorIcEEEEEEvEEu7__decayIDTclsr19__to_address_helperIT_EE6__callclsr3stdE7declvalIRKSB_EEEEESD_, symObjAddr: 0x1CD1A8, symBinAddr: 0x1001CE2E4, symSize: 0x24 }
  - { offsetInCU: 0xB967E, offset: 0xB967E, size: 0x8, addend: 0x0, symName: __ZNSt3__18__invokeB8ue170006IRNS_10__identityEJRKNS_12basic_stringIcNS_11char_traitsIcEENS_9allocatorIcEEEEEEEDTclclsr3stdE7declvalIT_EEspclsr3stdE7declvalIT0_EEEEOSB_DpOSC_, symObjAddr: 0x1CD5C0, symBinAddr: 0x1001CE6FC, symSize: 0x2C }
  - { offsetInCU: 0xB96D2, offset: 0xB96D2, size: 0x8, addend: 0x0, symName: __ZNSt3__112construct_atB8ue170006INS_12basic_stringIcNS_11char_traitsIcEENS_9allocatorIcEEEEJRA1_KcEPS6_EEPT_SC_DpOT0_, symObjAddr: 0x1CDFEC, symBinAddr: 0x1001CF128, symSize: 0x3C }
  - { offsetInCU: 0xB974A, offset: 0xB974A, size: 0x8, addend: 0x0, symName: __ZNSt3__18distanceB8ue170006INS_11__wrap_iterIPKNS_12basic_stringIcNS_11char_traitsIcEENS_9allocatorIcEEEEEEEENS_15iterator_traitsIT_E15difference_typeESC_SC_, symObjAddr: 0x1CEBA4, symBinAddr: 0x1001CFCE0, symSize: 0x350 }
  - { offsetInCU: 0xB9798, offset: 0xB9798, size: 0x8, addend: 0x0, symName: __ZNSt3__14nextB8ue170006INS_11__wrap_iterIPKNS_12basic_stringIcNS_11char_traitsIcEENS_9allocatorIcEEEEEEEENS_9enable_ifIXsr29__has_input_iterator_categoryIT_EE5valueESC_E4typeESC_NS_15iterator_traitsISC_E15difference_typeE, symObjAddr: 0x1CEEF4, symBinAddr: 0x1001D0030, symSize: 0x288 }
  - { offsetInCU: 0xB97E3, offset: 0xB97E3, size: 0x8, addend: 0x0, symName: __ZNSt3__14copyB8ue170006INS_11__wrap_iterIPKNS_12basic_stringIcNS_11char_traitsIcEENS_9allocatorIcEEEEEEPS7_EET0_T_SD_SC_, symObjAddr: 0x1CF6FC, symBinAddr: 0x1001D0838, symSize: 0x428 }
  - { offsetInCU: 0xB984A, offset: 0xB984A, size: 0x8, addend: 0x0, symName: __ZNSt3__19__advanceB8ue170006INS_11__wrap_iterIPKNS_12basic_stringIcNS_11char_traitsIcEENS_9allocatorIcEEEEEEEEvRT_NS_15iterator_traitsISB_E15difference_typeENS_26random_access_iterator_tagE, symObjAddr: 0x1CFF9C, symBinAddr: 0x1001D10D8, symSize: 0x2C }
  - { offsetInCU: 0xB9896, offset: 0xB9896, size: 0x8, addend: 0x0, symName: __ZNSt3__130__uninitialized_allocator_copyB8ue170006INS_9allocatorINS_12basic_stringIcNS_11char_traitsIcEENS1_IcEEEEEENS_11__wrap_iterIPKS6_EESB_PS6_EET2_RT_T0_T1_SD_, symObjAddr: 0x1D0048, symBinAddr: 0x1001D1184, symSize: 0x498 }
  - { offsetInCU: 0xB9943, offset: 0xB9943, size: 0x8, addend: 0x0, symName: __ZNSt3__114__unwrap_rangeB8ue170006INS_11__wrap_iterIPKNS_12basic_stringIcNS_11char_traitsIcEENS_9allocatorIcEEEEEESA_EEDaT_T0_, symObjAddr: 0x1D04E0, symBinAddr: 0x1001D161C, symSize: 0x3CC }
  - { offsetInCU: 0xB99ED, offset: 0xB99ED, size: 0x8, addend: 0x0, symName: __ZNSt3__16__copyB8ue170006INS_17_ClassicAlgPolicyENS_11__wrap_iterIPKNS_12basic_stringIcNS_11char_traitsIcEENS_9allocatorIcEEEEEESB_PS8_EENS_4pairIT0_T2_EESE_T1_SF_, symObjAddr: 0x1D0D3C, symBinAddr: 0x1001D1E78, symSize: 0x3E4 }
  - { offsetInCU: 0xB9A66, offset: 0xB9A66, size: 0x8, addend: 0x0, symName: __ZNSt3__123__dispatch_copy_or_moveB8ue170006INS_17_ClassicAlgPolicyENS_11__copy_loopIS1_EENS_14__copy_trivialENS_11__wrap_iterIPKNS_12basic_stringIcNS_11char_traitsIcEENS_9allocatorIcEEEEEESE_PSB_EENS_4pairIT2_T4_EESH_T3_SI_, symObjAddr: 0x1D1120, symBinAddr: 0x1001D225C, symSize: 0x3E4 }
  - { offsetInCU: 0xB9AF1, offset: 0xB9AF1, size: 0x8, addend: 0x0, symName: __ZNSt3__121__unwrap_and_dispatchB8ue170006INS_10__overloadINS_11__copy_loopINS_17_ClassicAlgPolicyEEENS_14__copy_trivialEEENS_11__wrap_iterIPKNS_12basic_stringIcNS_11char_traitsIcEENS_9allocatorIcEEEEEESG_PSD_Li0EEENS_4pairIT0_T2_EESJ_T1_SK_, symObjAddr: 0x1D1504, symBinAddr: 0x1001D2640, symSize: 0x768 }
  - { offsetInCU: 0xB9B98, offset: 0xB9B98, size: 0x8, addend: 0x0, symName: __ZNSt3__19make_pairB8ue170006INS_11__wrap_iterIPKNS_12basic_stringIcNS_11char_traitsIcEENS_9allocatorIcEEEEEEPS7_EENS_4pairINS_18__unwrap_ref_decayIT_E4typeENSD_IT0_E4typeEEEOSE_OSH_, symObjAddr: 0x1D1C6C, symBinAddr: 0x1001D2DA8, symSize: 0x20C }
  - { offsetInCU: 0xB9BEA, offset: 0xB9BEA, size: 0x8, addend: 0x0, symName: __ZNSt3__114__rewrap_rangeB8ue170006INS_11__wrap_iterIPKNS_12basic_stringIcNS_11char_traitsIcEENS_9allocatorIcEEEEEESA_S9_EET0_SB_T1_, symObjAddr: 0x1D1E78, symBinAddr: 0x1001D2FB4, symSize: 0x324 }
  - { offsetInCU: 0xB9D22, offset: 0xB9D22, size: 0x8, addend: 0x0, symName: __ZNSt3__110__distanceB8ue170006INS_11__wrap_iterIPKNS_12basic_stringIcNS_11char_traitsIcEENS_9allocatorIcEEEEEEEENS_15iterator_traitsIT_E15difference_typeESC_SC_NS_26random_access_iterator_tagE, symObjAddr: 0x1D25CC, symBinAddr: 0x1001D3708, symSize: 0x274 }
  - { offsetInCU: 0xB9D7C, offset: 0xB9D7C, size: 0x8, addend: 0x0, symName: __ZNSt3__1eqB8ue170006IPKNS_10shared_ptrIN5Catch8TestSpec7PatternEEEEEbRKNS_11__wrap_iterIT_EESC_, symObjAddr: 0x1D2BE4, symBinAddr: 0x1001D3D20, symSize: 0x48 }
  - { offsetInCU: 0xB9DC2, offset: 0xB9DC2, size: 0x8, addend: 0x0, symName: __ZNSt3__1neB8ue170006IPKN5Catch8TestSpec6FilterEEEbRKNS_11__wrap_iterIT_EESA_, symObjAddr: 0x1D2C8C, symBinAddr: 0x1001D3DC8, symSize: 0x34 }
  - { offsetInCU: 0xB9E08, offset: 0xB9E08, size: 0x8, addend: 0x0, symName: __ZNSt3__1eqB8ue170006IPKN5Catch8TestSpec6FilterEEEbRKNS_11__wrap_iterIT_EESA_, symObjAddr: 0x1D2E00, symBinAddr: 0x1001D3F3C, symSize: 0x48 }
  - { offsetInCU: 0xB9E4E, offset: 0xB9E4E, size: 0x8, addend: 0x0, symName: __ZNSt3__122__make_exception_guardB8ue170006INS_6vectorIN5Catch8TestSpec11FilterMatchENS_9allocatorIS4_EEE16__destroy_vectorEEENS_28__exception_guard_exceptionsIT_EESA_, symObjAddr: 0x1D35D8, symBinAddr: 0x1001D4714, symSize: 0x278 }
  - { offsetInCU: 0xB9E89, offset: 0xB9E89, size: 0x8, addend: 0x0, symName: __ZNSt3__119__allocate_at_leastB8ue170006INS_9allocatorIN5Catch8TestSpec11FilterMatchEEEEENS_19__allocation_resultINS_16allocator_traitsIT_E7pointerEEERS8_m, symObjAddr: 0x1D4970, symBinAddr: 0x1001D5AAC, symSize: 0x28C }
  - { offsetInCU: 0xB9EF8, offset: 0xB9EF8, size: 0x8, addend: 0x0, symName: __ZNSt3__112construct_atB8ue170006IN5Catch8TestSpec11FilterMatchEJEPS3_EEPT_S6_DpOT0_, symObjAddr: 0x1D5120, symBinAddr: 0x1001D625C, symSize: 0x44 }
  - { offsetInCU: 0xB9F5A, offset: 0xB9F5A, size: 0x8, addend: 0x0, symName: __ZNSt3__119__allocate_at_leastB8ue170006INS_9allocatorIPKN5Catch8TestCaseEEEEENS_19__allocation_resultINS_16allocator_traitsIT_E7pointerEEERS9_m, symObjAddr: 0x1D83AC, symBinAddr: 0x1001D94E8, symSize: 0x28C }
  - { offsetInCU: 0xB9FA1, offset: 0xB9FA1, size: 0x8, addend: 0x0, symName: __ZNSt3__142__uninitialized_allocator_move_if_noexceptB8ue170006INS_9allocatorIPKN5Catch8TestCaseEEENS_16reverse_iteratorIPS5_EES9_S5_vEET1_RT_T0_SD_SA_, symObjAddr: 0x1D8848, symBinAddr: 0x1001D9984, symSize: 0x4A8 }
  - { offsetInCU: 0xBA02C, offset: 0xBA02C, size: 0x8, addend: 0x0, symName: __ZNSt3__14swapB8ue170006IPPKN5Catch8TestCaseEEENS_9enable_ifIXaasr21is_move_constructibleIT_EE5valuesr18is_move_assignableIS7_EE5valueEvE4typeERS7_SA_, symObjAddr: 0x1D8D88, symBinAddr: 0x1001D9EC4, symSize: 0x134 }
  - { offsetInCU: 0xBA081, offset: 0xBA081, size: 0x8, addend: 0x0, symName: __ZNSt3__14moveB8ue170006INS_16reverse_iteratorIPPKN5Catch8TestCaseEEES7_EET0_T_S9_S8_, symObjAddr: 0x1D8F7C, symBinAddr: 0x1001DA0B8, symSize: 0x4B0 }
  - { offsetInCU: 0xBA0EC, offset: 0xBA0EC, size: 0x8, addend: 0x0, symName: __ZNSt3__16__moveB8ue170006INS_17_ClassicAlgPolicyENS_16reverse_iteratorIPPKN5Catch8TestCaseEEES8_S8_EENS_4pairIT0_T2_EESA_T1_SB_, symObjAddr: 0x1D942C, symBinAddr: 0x1001DA568, symSize: 0x424 }
  - { offsetInCU: 0xBA168, offset: 0xBA168, size: 0x8, addend: 0x0, symName: __ZNSt3__123__dispatch_copy_or_moveB8ue170006INS_17_ClassicAlgPolicyENS_11__move_loopIS1_EENS_14__move_trivialENS_16reverse_iteratorIPPKN5Catch8TestCaseEEESB_SB_EENS_4pairIT2_T4_EESD_T3_SE_, symObjAddr: 0x1D9850, symBinAddr: 0x1001DA98C, symSize: 0x424 }
  - { offsetInCU: 0xBA1F6, offset: 0xBA1F6, size: 0x8, addend: 0x0, symName: __ZNSt3__121__unwrap_and_dispatchB8ue170006INS_10__overloadINS_11__move_loopINS_17_ClassicAlgPolicyEEENS_14__move_trivialEEENS_16reverse_iteratorIPPKN5Catch8TestCaseEEESD_SD_Li0EEENS_4pairIT0_T2_EESF_T1_SG_, symObjAddr: 0x1D9C74, symBinAddr: 0x1001DADB0, symSize: 0x880 }
  - { offsetInCU: 0xBA2A1, offset: 0xBA2A1, size: 0x8, addend: 0x0, symName: __ZNSt3__114__unwrap_rangeB8ue170006INS_16reverse_iteratorIPPKN5Catch8TestCaseEEES7_EEDaT_T0_, symObjAddr: 0x1DA4F4, symBinAddr: 0x1001DB630, symSize: 0x35C }
  - { offsetInCU: 0xBA3D3, offset: 0xBA3D3, size: 0x8, addend: 0x0, symName: __ZNSt3__113__unwrap_iterB8ue170006INS_16reverse_iteratorIPPKN5Catch8TestCaseEEENS_18__unwrap_iter_implIS7_Lb0EEELi0EEEDTclsrT0_8__unwrapclsr3stdE7declvalIT_EEEESB_, symObjAddr: 0x1DABF8, symBinAddr: 0x1001DBD34, symSize: 0x2EC }
  - { offsetInCU: 0xBA41D, offset: 0xBA41D, size: 0x8, addend: 0x0, symName: __ZNSt3__19make_pairB8ue170006INS_16reverse_iteratorIPPKN5Catch8TestCaseEEES7_EENS_4pairINS_18__unwrap_ref_decayIT_E4typeENS9_IT0_E4typeEEEOSA_OSD_, symObjAddr: 0x1DAEE4, symBinAddr: 0x1001DC020, symSize: 0x38 }
  - { offsetInCU: 0xBA46D, offset: 0xBA46D, size: 0x8, addend: 0x0, symName: __ZNSt3__114__rewrap_rangeB8ue170006INS_16reverse_iteratorIPPKN5Catch8TestCaseEEES7_S7_EET0_S8_T1_, symObjAddr: 0x1DAF1C, symBinAddr: 0x1001DC058, symSize: 0x3D4 }
  - { offsetInCU: 0xBA4CD, offset: 0xBA4CD, size: 0x8, addend: 0x0, symName: __ZNSt3__113__rewrap_iterB8ue170006INS_16reverse_iteratorIPPKN5Catch8TestCaseEEES7_NS_18__unwrap_iter_implIS7_Lb0EEEEET_SA_T0_, symObjAddr: 0x1DB2F0, symBinAddr: 0x1001DC42C, symSize: 0x3E8 }
  - { offsetInCU: 0xBA580, offset: 0xBA580, size: 0x8, addend: 0x0, symName: __ZNSt3__1neB8ue170006IPPKN5Catch8TestCaseES5_EEbRKNS_16reverse_iteratorIT_EERKNS6_IT0_EE, symObjAddr: 0x1DBBB0, symBinAddr: 0x1001DCCEC, symSize: 0x48 }
  - { offsetInCU: 0xBA642, offset: 0xBA642, size: 0x8, addend: 0x0, symName: __ZNSt3__122__make_exception_guardB8ue170006INS_6vectorIPKN5Catch8TestCaseENS_9allocatorIS5_EEE16__destroy_vectorEEENS_28__exception_guard_exceptionsIT_EESB_, symObjAddr: 0x1DD21C, symBinAddr: 0x1001DE358, symSize: 0x278 }
  - { offsetInCU: 0xBA67C, offset: 0xBA67C, size: 0x8, addend: 0x0, symName: __ZNSt3__130__uninitialized_allocator_copyB8ue170006INS_9allocatorIPKN5Catch8TestCaseEEEPS5_S7_S7_EET2_RT_T0_T1_S8_, symObjAddr: 0x1DE188, symBinAddr: 0x1001DF2C4, symSize: 0x2DC }
  - { offsetInCU: 0xBA723, offset: 0xBA723, size: 0x8, addend: 0x0, symName: __ZNSt3__114__unwrap_rangeB8ue170006IPPKN5Catch8TestCaseES5_EEDaT_T0_, symObjAddr: 0x1DE464, symBinAddr: 0x1001DF5A0, symSize: 0x224 }
  - { offsetInCU: 0xBA773, offset: 0xBA773, size: 0x8, addend: 0x0, symName: __ZNSt3__135__uninitialized_allocator_copy_implB8ue170006INS_9allocatorIPKN5Catch8TestCaseEEES5_S5_S5_LPv0EEEPT2_RT_PT0_SD_S9_, symObjAddr: 0x1DE688, symBinAddr: 0x1001DF7C4, symSize: 0x38 }
  - { offsetInCU: 0xBA7F6, offset: 0xBA7F6, size: 0x8, addend: 0x0, symName: __ZNSt3__113__unwrap_iterB8ue170006IPPKN5Catch8TestCaseENS_18__unwrap_iter_implIS5_Lb1EEELi0EEEDTclsrT0_8__unwrapclsr3stdE7declvalIT_EEEES9_, symObjAddr: 0x1DE6C0, symBinAddr: 0x1001DF7FC, symSize: 0x24 }
  - { offsetInCU: 0xBA83D, offset: 0xBA83D, size: 0x8, addend: 0x0, symName: __ZNSt3__113__rewrap_iterB8ue170006IPPKN5Catch8TestCaseES5_NS_18__unwrap_iter_implIS5_Lb1EEEEET_S8_T0_, symObjAddr: 0x1DE6E4, symBinAddr: 0x1001DF820, symSize: 0x48 }
  - { offsetInCU: 0xBA9EE, offset: 0xBA9EE, size: 0x8, addend: 0x0, symName: __ZNSt3__14copyB8ue170006IPPKN5Catch8TestCaseES5_EET0_T_S7_S6_, symObjAddr: 0x1DEBAC, symBinAddr: 0x1001DFCE8, symSize: 0x26C }
  - { offsetInCU: 0xBAA4F, offset: 0xBAA4F, size: 0x8, addend: 0x0, symName: __ZNSt3__16__copyB8ue170006INS_17_ClassicAlgPolicyEPPKN5Catch8TestCaseES6_S6_EENS_4pairIT0_T2_EES8_T1_S9_, symObjAddr: 0x1DEE18, symBinAddr: 0x1001DFF54, symSize: 0x22C }
  - { offsetInCU: 0xBAAC2, offset: 0xBAAC2, size: 0x8, addend: 0x0, symName: __ZNSt3__123__dispatch_copy_or_moveB8ue170006INS_17_ClassicAlgPolicyENS_11__copy_loopIS1_EENS_14__copy_trivialEPPKN5Catch8TestCaseES9_S9_EENS_4pairIT2_T4_EESB_T3_SC_, symObjAddr: 0x1DF044, symBinAddr: 0x1001E0180, symSize: 0x22C }
  - { offsetInCU: 0xBAB47, offset: 0xBAB47, size: 0x8, addend: 0x0, symName: __ZNSt3__121__unwrap_and_dispatchB8ue170006INS_10__overloadINS_11__copy_loopINS_17_ClassicAlgPolicyEEENS_14__copy_trivialEEEPPKN5Catch8TestCaseESB_SB_Li0EEENS_4pairIT0_T2_EESD_T1_SE_, symObjAddr: 0x1DF270, symBinAddr: 0x1001E03AC, symSize: 0x5A4 }
  - { offsetInCU: 0xBABE6, offset: 0xBABE6, size: 0x8, addend: 0x0, symName: __ZNSt3__19make_pairB8ue170006IPPKN5Catch8TestCaseES5_EENS_4pairINS_18__unwrap_ref_decayIT_E4typeENS7_IT0_E4typeEEEOS8_OSB_, symObjAddr: 0x1DFA44, symBinAddr: 0x1001E0B80, symSize: 0x20C }
  - { offsetInCU: 0xBAC38, offset: 0xBAC38, size: 0x8, addend: 0x0, symName: __ZNSt3__114__rewrap_rangeB8ue170006IPPKN5Catch8TestCaseES5_S5_EET0_S6_T1_, symObjAddr: 0x1DFC50, symBinAddr: 0x1001E0D8C, symSize: 0x2C }
  - { offsetInCU: 0xBAC90, offset: 0xBAC90, size: 0x8, addend: 0x0, symName: __ZNSt3__119__copy_trivial_implB8ue170006IPKN5Catch8TestCaseES4_EENS_4pairIPT_PT0_EES7_S7_S9_, symObjAddr: 0x1DFC7C, symBinAddr: 0x1001E0DB8, symSize: 0x3B4 }
  - { offsetInCU: 0xBAD04, offset: 0xBAD04, size: 0x8, addend: 0x0, symName: __ZNSt3__119__constexpr_memmoveB8ue170006IPKN5Catch8TestCaseES4_Li0EEEPT_S6_PT0_NS_15__element_countE, symObjAddr: 0x1E0030, symBinAddr: 0x1001E116C, symSize: 0x64 }
  - { offsetInCU: 0xBAD77, offset: 0xBAD77, size: 0x8, addend: 0x0, symName: __ZNSt3__19make_pairB8ue170006IRPPKN5Catch8TestCaseES5_EENS_4pairINS_18__unwrap_ref_decayIT_E4typeENS8_IT0_E4typeEEEOS9_OSC_, symObjAddr: 0x1E0094, symBinAddr: 0x1001E11D0, symSize: 0x20C }
  - { offsetInCU: 0xBAE21, offset: 0xBAE21, size: 0x8, addend: 0x0, symName: __ZNSt3__122__make_exception_guardB8ue170006INS_6vectorIN5Catch8TestSpec6FilterENS_9allocatorIS4_EEE16__destroy_vectorEEENS_28__exception_guard_exceptionsIT_EESA_, symObjAddr: 0x1E1D9C, symBinAddr: 0x1001E2ED8, symSize: 0x278 }
  - { offsetInCU: 0xBAE5C, offset: 0xBAE5C, size: 0x8, addend: 0x0, symName: __ZNSt3__119__allocate_at_leastB8ue170006INS_9allocatorIN5Catch8TestSpec6FilterEEEEENS_19__allocation_resultINS_16allocator_traitsIT_E7pointerEEERS8_m, symObjAddr: 0x1E302C, symBinAddr: 0x1001E4168, symSize: 0x28C }
  - { offsetInCU: 0xBAEA3, offset: 0xBAEA3, size: 0x8, addend: 0x0, symName: __ZNSt3__130__uninitialized_allocator_copyB8ue170006INS_9allocatorIN5Catch8TestSpec6FilterEEEPS4_S6_S6_EET2_RT_T0_T1_S7_, symObjAddr: 0x1E3458, symBinAddr: 0x1001E4594, symSize: 0x2DC }
  - { offsetInCU: 0xBAF4A, offset: 0xBAF4A, size: 0x8, addend: 0x0, symName: __ZNSt3__114__unwrap_rangeB8ue170006IPN5Catch8TestSpec6FilterES4_EEDaT_T0_, symObjAddr: 0x1E3A30, symBinAddr: 0x1001E4B6C, symSize: 0x224 }
  - { offsetInCU: 0xBAF9A, offset: 0xBAF9A, size: 0x8, addend: 0x0, symName: __ZNSt3__135__uninitialized_allocator_copy_implB8ue170006INS_9allocatorIN5Catch8TestSpec6FilterEEEPS4_S6_S6_EET2_RT_T0_T1_S7_, symObjAddr: 0x1E3C54, symBinAddr: 0x1001E4D90, symSize: 0x520 }
  - { offsetInCU: 0xBB047, offset: 0xBB047, size: 0x8, addend: 0x0, symName: __ZNSt3__113__unwrap_iterB8ue170006IPN5Catch8TestSpec6FilterENS_18__unwrap_iter_implIS4_Lb1EEELi0EEEDTclsrT0_8__unwrapclsr3stdE7declvalIT_EEEES8_, symObjAddr: 0x1E4174, symBinAddr: 0x1001E52B0, symSize: 0x24 }
  - { offsetInCU: 0xBB08E, offset: 0xBB08E, size: 0x8, addend: 0x0, symName: __ZNSt3__113__rewrap_iterB8ue170006IPN5Catch8TestSpec6FilterES4_NS_18__unwrap_iter_implIS4_Lb1EEEEET_S7_T0_, symObjAddr: 0x1E4198, symBinAddr: 0x1001E52D4, symSize: 0x48 }
  - { offsetInCU: 0xBB1F3, offset: 0xBB1F3, size: 0x8, addend: 0x0, symName: __ZNSt3__122__make_exception_guardB8ue170006INS_29_AllocatorDestroyRangeReverseINS_9allocatorIN5Catch8TestSpec6FilterEEEPS5_EEEENS_28__exception_guard_exceptionsIT_EESA_, symObjAddr: 0x1E4660, symBinAddr: 0x1001E579C, symSize: 0x1F8 }
  - { offsetInCU: 0xBB253, offset: 0xBB253, size: 0x8, addend: 0x0, symName: __ZNSt3__112construct_atB8ue170006IN5Catch8TestSpec6FilterEJRS3_EPS3_EEPT_S7_DpOT0_, symObjAddr: 0x1E4B60, symBinAddr: 0x1001E5C9C, symSize: 0x3C }
  - { offsetInCU: 0xBB2CB, offset: 0xBB2CB, size: 0x8, addend: 0x0, symName: __ZNSt3__122__make_exception_guardB8ue170006INS_6vectorINS_10shared_ptrIN5Catch8TestSpec7PatternEEENS_9allocatorIS6_EEE16__destroy_vectorEEENS_28__exception_guard_exceptionsIT_EESC_, symObjAddr: 0x1E54D4, symBinAddr: 0x1001E6610, symSize: 0x278 }
  - { offsetInCU: 0xBB306, offset: 0xBB306, size: 0x8, addend: 0x0, symName: __ZNSt3__119__allocate_at_leastB8ue170006INS_9allocatorINS_10shared_ptrIN5Catch8TestSpec7PatternEEEEEEENS_19__allocation_resultINS_16allocator_traitsIT_E7pointerEEERSA_m, symObjAddr: 0x1E6800, symBinAddr: 0x1001E793C, symSize: 0x28C }
  - { offsetInCU: 0xBB34E, offset: 0xBB34E, size: 0x8, addend: 0x0, symName: __ZNSt3__112__to_addressB8ue170006INS_10shared_ptrIN5Catch8TestSpec7PatternEEEEEPT_S7_, symObjAddr: 0x1E6E08, symBinAddr: 0x1001E7F44, symSize: 0x14 }
  - { offsetInCU: 0xBB384, offset: 0xBB384, size: 0x8, addend: 0x0, symName: __ZNSt3__130__uninitialized_allocator_copyB8ue170006INS_9allocatorINS_10shared_ptrIN5Catch8TestSpec7PatternEEEEEPS6_S8_S8_EET2_RT_T0_T1_S9_, symObjAddr: 0x1E6EB8, symBinAddr: 0x1001E7FF4, symSize: 0x2DC }
  - { offsetInCU: 0xBB42B, offset: 0xBB42B, size: 0x8, addend: 0x0, symName: __ZNSt3__114__unwrap_rangeB8ue170006IPNS_10shared_ptrIN5Catch8TestSpec7PatternEEES6_EEDaT_T0_, symObjAddr: 0x1E7468, symBinAddr: 0x1001E85A4, symSize: 0x224 }
  - { offsetInCU: 0xBB47B, offset: 0xBB47B, size: 0x8, addend: 0x0, symName: __ZNSt3__135__uninitialized_allocator_copy_implB8ue170006INS_9allocatorINS_10shared_ptrIN5Catch8TestSpec7PatternEEEEEPS6_S8_S8_EET2_RT_T0_T1_S9_, symObjAddr: 0x1E768C, symBinAddr: 0x1001E87C8, symSize: 0x520 }
  - { offsetInCU: 0xBB528, offset: 0xBB528, size: 0x8, addend: 0x0, symName: __ZNSt3__113__unwrap_iterB8ue170006IPNS_10shared_ptrIN5Catch8TestSpec7PatternEEENS_18__unwrap_iter_implIS6_Lb1EEELi0EEEDTclsrT0_8__unwrapclsr3stdE7declvalIT_EEEESA_, symObjAddr: 0x1E7BAC, symBinAddr: 0x1001E8CE8, symSize: 0x24 }
  - { offsetInCU: 0xBB56F, offset: 0xBB56F, size: 0x8, addend: 0x0, symName: __ZNSt3__113__rewrap_iterB8ue170006IPNS_10shared_ptrIN5Catch8TestSpec7PatternEEES6_NS_18__unwrap_iter_implIS6_Lb1EEEEET_S9_T0_, symObjAddr: 0x1E7BD0, symBinAddr: 0x1001E8D0C, symSize: 0x48 }
  - { offsetInCU: 0xBB6D4, offset: 0xBB6D4, size: 0x8, addend: 0x0, symName: __ZNSt3__122__make_exception_guardB8ue170006INS_29_AllocatorDestroyRangeReverseINS_9allocatorINS_10shared_ptrIN5Catch8TestSpec7PatternEEEEEPS7_EEEENS_28__exception_guard_exceptionsIT_EESC_, symObjAddr: 0x1E8098, symBinAddr: 0x1001E91D4, symSize: 0x1F8 }
  - { offsetInCU: 0xBB734, offset: 0xBB734, size: 0x8, addend: 0x0, symName: __ZNSt3__112construct_atB8ue170006INS_10shared_ptrIN5Catch8TestSpec7PatternEEEJRS5_EPS5_EEPT_S9_DpOT0_, symObjAddr: 0x1E8598, symBinAddr: 0x1001E96D4, symSize: 0x3C }
  - { offsetInCU: 0xBB7AB, offset: 0xBB7AB, size: 0x8, addend: 0x0, symName: __ZNSt3__119__allocator_destroyB8ue170006INS_9allocatorINS_10shared_ptrIN5Catch8TestSpec7PatternEEEEENS_16reverse_iteratorIPS6_EESA_EEvRT_T0_T1_, symObjAddr: 0x1E8A2C, symBinAddr: 0x1001E9B68, symSize: 0x2B8 }
  - { offsetInCU: 0xBB818, offset: 0xBB818, size: 0x8, addend: 0x0, symName: __ZNSt3__1neB8ue170006IPNS_10shared_ptrIN5Catch8TestSpec7PatternEEES6_EEbRKNS_16reverse_iteratorIT_EERKNS7_IT0_EE, symObjAddr: 0x1E8D18, symBinAddr: 0x1001E9E54, symSize: 0x48 }
  - { offsetInCU: 0xBB867, offset: 0xBB867, size: 0x8, addend: 0x0, symName: __ZNSt3__112__to_addressB8ue170006INS_16reverse_iteratorIPNS_10shared_ptrIN5Catch8TestSpec7PatternEEEEEvEEu7__decayIDTclsr19__to_address_helperIT_EE6__callclsr3stdE7declvalIRKS9_EEEEESB_, symObjAddr: 0x1E8D88, symBinAddr: 0x1001E9EC4, symSize: 0x24 }
  - { offsetInCU: 0xBB89F, offset: 0xBB89F, size: 0x8, addend: 0x0, symName: __ZNSt3__110destroy_atB8ue170006INS_10shared_ptrIN5Catch8TestSpec7PatternEEELi0EEEvPT_, symObjAddr: 0x1E8E7C, symBinAddr: 0x1001E9FB8, symSize: 0x24 }
  - { offsetInCU: 0xBB8D9, offset: 0xBB8D9, size: 0x8, addend: 0x0, symName: __ZNSt3__112__destroy_atB8ue170006INS_10shared_ptrIN5Catch8TestSpec7PatternEEELi0EEEvPT_, symObjAddr: 0x1E8EA0, symBinAddr: 0x1001E9FDC, symSize: 0x24 }
  - { offsetInCU: 0xBB93E, offset: 0xBB93E, size: 0x8, addend: 0x0, symName: __ZNSt3__14prevB8ue170006IPNS_10shared_ptrIN5Catch8TestSpec7PatternEEEEENS_9enable_ifIXsr29__has_input_iterator_categoryIT_EE5valueES8_E4typeES8_NS_15iterator_traitsIS8_E15difference_typeE, symObjAddr: 0x1E8F74, symBinAddr: 0x1001EA0B0, symSize: 0x240 }
  - { offsetInCU: 0xBB989, offset: 0xBB989, size: 0x8, addend: 0x0, symName: __ZNSt3__19__advanceB8ue170006IPNS_10shared_ptrIN5Catch8TestSpec7PatternEEEEEvRT_NS_15iterator_traitsIS7_E15difference_typeENS_26random_access_iterator_tagE, symObjAddr: 0x1E91EC, symBinAddr: 0x1001EA328, symSize: 0x78 }
  - { offsetInCU: 0xBBA2D, offset: 0xBBA2D, size: 0x8, addend: 0x0, symName: __ZNSt3__119__allocator_destroyB8ue170006INS_9allocatorIN5Catch8TestSpec6FilterEEENS_16reverse_iteratorIPS4_EES8_EEvRT_T0_T1_, symObjAddr: 0x1EA0D0, symBinAddr: 0x1001EB20C, symSize: 0x2B8 }
  - { offsetInCU: 0xBBA9A, offset: 0xBBA9A, size: 0x8, addend: 0x0, symName: __ZNSt3__1neB8ue170006IPN5Catch8TestSpec6FilterES4_EEbRKNS_16reverse_iteratorIT_EERKNS5_IT0_EE, symObjAddr: 0x1EA3BC, symBinAddr: 0x1001EB4F8, symSize: 0x48 }
  - { offsetInCU: 0xBBAE9, offset: 0xBBAE9, size: 0x8, addend: 0x0, symName: __ZNSt3__112__to_addressB8ue170006INS_16reverse_iteratorIPN5Catch8TestSpec6FilterEEEvEEu7__decayIDTclsr19__to_address_helperIT_EE6__callclsr3stdE7declvalIRKS7_EEEEES9_, symObjAddr: 0x1EA404, symBinAddr: 0x1001EB540, symSize: 0x24 }
  - { offsetInCU: 0xBBB4C, offset: 0xBBB4C, size: 0x8, addend: 0x0, symName: __ZNSt3__14prevB8ue170006IPN5Catch8TestSpec6FilterEEENS_9enable_ifIXsr29__has_input_iterator_categoryIT_EE5valueES6_E4typeES6_NS_15iterator_traitsIS6_E15difference_typeE, symObjAddr: 0x1EA5A8, symBinAddr: 0x1001EB6E4, symSize: 0x240 }
  - { offsetInCU: 0xBBB97, offset: 0xBBB97, size: 0x8, addend: 0x0, symName: __ZNSt3__19__advanceB8ue170006IPN5Catch8TestSpec6FilterEEEvRT_NS_15iterator_traitsIS5_E15difference_typeENS_26random_access_iterator_tagE, symObjAddr: 0x1EA820, symBinAddr: 0x1001EB95C, symSize: 0x80 }
  - { offsetInCU: 0xBBC63, offset: 0xBBC63, size: 0x8, addend: 0x0, symName: __ZNSt3__112construct_atB8ue170006ImJRKmEPmEEPT_S5_DpOT0_, symObjAddr: 0x1EB7C0, symBinAddr: 0x1001EC8FC, symSize: 0xB8 }
  - { offsetInCU: 0xBBCDB, offset: 0xBBCDB, size: 0x8, addend: 0x0, symName: __ZNSt3__119__allocate_at_leastB8ue170006INS_9allocatorImEEEENS_19__allocation_resultINS_16allocator_traitsIT_E7pointerEEERS5_m, symObjAddr: 0x1ECD50, symBinAddr: 0x1001EDE8C, symSize: 0x28C }
  - { offsetInCU: 0xBBD22, offset: 0xBBD22, size: 0x8, addend: 0x0, symName: __ZNSt3__142__uninitialized_allocator_move_if_noexceptB8ue170006INS_9allocatorImEENS_16reverse_iteratorIPmEES5_mvEET1_RT_T0_S9_S6_, symObjAddr: 0x1ED1EC, symBinAddr: 0x1001EE328, symSize: 0x4A8 }
  - { offsetInCU: 0xBBDAD, offset: 0xBBDAD, size: 0x8, addend: 0x0, symName: __ZNSt3__14swapB8ue170006IPmEENS_9enable_ifIXaasr21is_move_constructibleIT_EE5valuesr18is_move_assignableIS3_EE5valueEvE4typeERS3_S6_, symObjAddr: 0x1ED72C, symBinAddr: 0x1001EE868, symSize: 0x134 }
  - { offsetInCU: 0xBBE02, offset: 0xBBE02, size: 0x8, addend: 0x0, symName: __ZNSt3__14moveB8ue170006INS_16reverse_iteratorIPmEES3_EET0_T_S5_S4_, symObjAddr: 0x1ED920, symBinAddr: 0x1001EEA5C, symSize: 0x4B0 }
  - { offsetInCU: 0xBBE6D, offset: 0xBBE6D, size: 0x8, addend: 0x0, symName: __ZNSt3__16__moveB8ue170006INS_17_ClassicAlgPolicyENS_16reverse_iteratorIPmEES4_S4_EENS_4pairIT0_T2_EES6_T1_S7_, symObjAddr: 0x1EDDD0, symBinAddr: 0x1001EEF0C, symSize: 0x424 }
  - { offsetInCU: 0xBBEE9, offset: 0xBBEE9, size: 0x8, addend: 0x0, symName: __ZNSt3__123__dispatch_copy_or_moveB8ue170006INS_17_ClassicAlgPolicyENS_11__move_loopIS1_EENS_14__move_trivialENS_16reverse_iteratorIPmEES7_S7_EENS_4pairIT2_T4_EES9_T3_SA_, symObjAddr: 0x1EE1F4, symBinAddr: 0x1001EF330, symSize: 0x424 }
  - { offsetInCU: 0xBBF77, offset: 0xBBF77, size: 0x8, addend: 0x0, symName: __ZNSt3__121__unwrap_and_dispatchB8ue170006INS_10__overloadINS_11__move_loopINS_17_ClassicAlgPolicyEEENS_14__move_trivialEEENS_16reverse_iteratorIPmEES9_S9_Li0EEENS_4pairIT0_T2_EESB_T1_SC_, symObjAddr: 0x1EE618, symBinAddr: 0x1001EF754, symSize: 0x880 }
  - { offsetInCU: 0xBC022, offset: 0xBC022, size: 0x8, addend: 0x0, symName: __ZNSt3__114__unwrap_rangeB8ue170006INS_16reverse_iteratorIPmEES3_EEDaT_T0_, symObjAddr: 0x1EEE98, symBinAddr: 0x1001EFFD4, symSize: 0x35C }
  - { offsetInCU: 0xBC154, offset: 0xBC154, size: 0x8, addend: 0x0, symName: __ZNSt3__113__unwrap_iterB8ue170006INS_16reverse_iteratorIPmEENS_18__unwrap_iter_implIS3_Lb0EEELi0EEEDTclsrT0_8__unwrapclsr3stdE7declvalIT_EEEES7_, symObjAddr: 0x1EF59C, symBinAddr: 0x1001F06D8, symSize: 0x2EC }
  - { offsetInCU: 0xBC19E, offset: 0xBC19E, size: 0x8, addend: 0x0, symName: __ZNSt3__19make_pairB8ue170006INS_16reverse_iteratorIPmEES3_EENS_4pairINS_18__unwrap_ref_decayIT_E4typeENS5_IT0_E4typeEEEOS6_OS9_, symObjAddr: 0x1EF888, symBinAddr: 0x1001F09C4, symSize: 0x38 }
  - { offsetInCU: 0xBC1EE, offset: 0xBC1EE, size: 0x8, addend: 0x0, symName: __ZNSt3__114__rewrap_rangeB8ue170006INS_16reverse_iteratorIPmEES3_S3_EET0_S4_T1_, symObjAddr: 0x1EF8C0, symBinAddr: 0x1001F09FC, symSize: 0x3D4 }
  - { offsetInCU: 0xBC24E, offset: 0xBC24E, size: 0x8, addend: 0x0, symName: __ZNSt3__113__rewrap_iterB8ue170006INS_16reverse_iteratorIPmEES3_NS_18__unwrap_iter_implIS3_Lb0EEEEET_S6_T0_, symObjAddr: 0x1EFC94, symBinAddr: 0x1001F0DD0, symSize: 0x3E8 }
  - { offsetInCU: 0xBC301, offset: 0xBC301, size: 0x8, addend: 0x0, symName: __ZNSt3__1neB8ue170006IPmS1_EEbRKNS_16reverse_iteratorIT_EERKNS2_IT0_EE, symObjAddr: 0x1F0554, symBinAddr: 0x1001F1690, symSize: 0x48 }
  - { offsetInCU: 0xBC3C3, offset: 0xBC3C3, size: 0x8, addend: 0x0, symName: __ZNSt3__112construct_atB8ue170006IN5Catch8TestSpec6FilterEJRKS3_EPS3_EEPT_S8_DpOT0_, symObjAddr: 0x1F1B90, symBinAddr: 0x1001F2CCC, symSize: 0x3C }
  - { offsetInCU: 0xBC43A, offset: 0xBC43A, size: 0x8, addend: 0x0, symName: __ZNSt3__142__uninitialized_allocator_move_if_noexceptB8ue170006INS_9allocatorIN5Catch8TestSpec6FilterEEENS_16reverse_iteratorIPS4_EES8_S8_EET2_RT_T0_T1_S9_, symObjAddr: 0x1F2C4C, symBinAddr: 0x1001F3D88, symSize: 0x53C }
  - { offsetInCU: 0xBC4F0, offset: 0xBC4F0, size: 0x8, addend: 0x0, symName: __ZNSt3__14swapB8ue170006IPN5Catch8TestSpec6FilterEEENS_9enable_ifIXaasr21is_move_constructibleIT_EE5valuesr18is_move_assignableIS6_EE5valueEvE4typeERS6_S9_, symObjAddr: 0x1F3188, symBinAddr: 0x1001F42C4, symSize: 0x134 }
  - { offsetInCU: 0xBC545, offset: 0xBC545, size: 0x8, addend: 0x0, symName: __ZNSt3__122__make_exception_guardB8ue170006INS_29_AllocatorDestroyRangeReverseINS_9allocatorIN5Catch8TestSpec6FilterEEENS_16reverse_iteratorIPS5_EEEEEENS_28__exception_guard_exceptionsIT_EESC_, symObjAddr: 0x1F32BC, symBinAddr: 0x1001F43F8, symSize: 0x1F8 }
  - { offsetInCU: 0xBC57E, offset: 0xBC57E, size: 0x8, addend: 0x0, symName: __ZNSt3__112construct_atB8ue170006IN5Catch8TestSpec6FilterEJS3_EPS3_EEPT_S6_DpOT0_, symObjAddr: 0x1F3830, symBinAddr: 0x1001F496C, symSize: 0x3C }
  - { offsetInCU: 0xBC5F5, offset: 0xBC5F5, size: 0x8, addend: 0x0, symName: __ZNSt3__119__allocator_destroyB8ue170006INS_9allocatorIN5Catch8TestSpec6FilterEEENS_16reverse_iteratorINS6_IPS4_EEEES9_EEvRT_T0_T1_, symObjAddr: 0x1F4260, symBinAddr: 0x1001F539C, symSize: 0x70 }
  - { offsetInCU: 0xBC65B, offset: 0xBC65B, size: 0x8, addend: 0x0, symName: __ZNSt3__1neB8ue170006INS_16reverse_iteratorIPN5Catch8TestSpec6FilterEEES6_EEbRKNS1_IT_EERKNS1_IT0_EE, symObjAddr: 0x1F4518, symBinAddr: 0x1001F5654, symSize: 0x2CC }
  - { offsetInCU: 0xBC6AC, offset: 0xBC6AC, size: 0x8, addend: 0x0, symName: __ZNSt3__112__to_addressB8ue170006INS_16reverse_iteratorINS1_IPN5Catch8TestSpec6FilterEEEEEvEEu7__decayIDTclsr19__to_address_helperIT_EE6__callclsr3stdE7declvalIRKS8_EEEEESA_, symObjAddr: 0x1F47E4, symBinAddr: 0x1001F5920, symSize: 0x24 }
  - { offsetInCU: 0xBC70F, offset: 0xBC70F, size: 0x8, addend: 0x0, symName: __ZNSt3__14prevB8ue170006INS_16reverse_iteratorIPN5Catch8TestSpec6FilterEEEEENS_9enable_ifIXsr29__has_input_iterator_categoryIT_EE5valueES8_E4typeES8_NS_15iterator_traitsIS8_E15difference_typeE, symObjAddr: 0x1F4D28, symBinAddr: 0x1001F5E64, symSize: 0x294 }
  - { offsetInCU: 0xBC75A, offset: 0xBC75A, size: 0x8, addend: 0x0, symName: __ZNSt3__19__advanceB8ue170006INS_16reverse_iteratorIPN5Catch8TestSpec6FilterEEEEEvRT_NS_15iterator_traitsIS7_E15difference_typeENS_26random_access_iterator_tagE, symObjAddr: 0x1F4FF4, symBinAddr: 0x1001F6130, symSize: 0x2C }
  - { offsetInCU: 0xBC7A7, offset: 0xBC7A7, size: 0x8, addend: 0x0, symName: __ZNSt3__112construct_atB8ue170006INS_10shared_ptrIN5Catch8TestSpec7PatternEEEJRKS5_EPS5_EEPT_SA_DpOT0_, symObjAddr: 0x1F658C, symBinAddr: 0x1001F76C8, symSize: 0x3C }
  - { offsetInCU: 0xBC81E, offset: 0xBC81E, size: 0x8, addend: 0x0, symName: __ZNSt3__142__uninitialized_allocator_move_if_noexceptB8ue170006INS_9allocatorINS_10shared_ptrIN5Catch8TestSpec7PatternEEEEENS_16reverse_iteratorIPS6_EESA_SA_EET2_RT_T0_T1_SB_, symObjAddr: 0x1F7638, symBinAddr: 0x1001F8774, symSize: 0x53C }
  - { offsetInCU: 0xBC8D4, offset: 0xBC8D4, size: 0x8, addend: 0x0, symName: __ZNSt3__14swapB8ue170006IPNS_10shared_ptrIN5Catch8TestSpec7PatternEEEEENS_9enable_ifIXaasr21is_move_constructibleIT_EE5valuesr18is_move_assignableIS8_EE5valueEvE4typeERS8_SB_, symObjAddr: 0x1F7B74, symBinAddr: 0x1001F8CB0, symSize: 0x134 }
  - { offsetInCU: 0xBC929, offset: 0xBC929, size: 0x8, addend: 0x0, symName: __ZNSt3__122__make_exception_guardB8ue170006INS_29_AllocatorDestroyRangeReverseINS_9allocatorINS_10shared_ptrIN5Catch8TestSpec7PatternEEEEENS_16reverse_iteratorIPS7_EEEEEENS_28__exception_guard_exceptionsIT_EESE_, symObjAddr: 0x1F7CA8, symBinAddr: 0x1001F8DE4, symSize: 0x1F8 }
  - { offsetInCU: 0xBC962, offset: 0xBC962, size: 0x8, addend: 0x0, symName: __ZNSt3__112construct_atB8ue170006INS_10shared_ptrIN5Catch8TestSpec7PatternEEEJS5_EPS5_EEPT_S8_DpOT0_, symObjAddr: 0x1F821C, symBinAddr: 0x1001F9358, symSize: 0x3C }
  - { offsetInCU: 0xBC9D9, offset: 0xBC9D9, size: 0x8, addend: 0x0, symName: __ZNSt3__119__allocator_destroyB8ue170006INS_9allocatorINS_10shared_ptrIN5Catch8TestSpec7PatternEEEEENS_16reverse_iteratorINS8_IPS6_EEEESB_EEvRT_T0_T1_, symObjAddr: 0x1F88A8, symBinAddr: 0x1001F99E4, symSize: 0x70 }
  - { offsetInCU: 0xBCA3F, offset: 0xBCA3F, size: 0x8, addend: 0x0, symName: __ZNSt3__1neB8ue170006INS_16reverse_iteratorIPNS_10shared_ptrIN5Catch8TestSpec7PatternEEEEES8_EEbRKNS1_IT_EERKNS1_IT0_EE, symObjAddr: 0x1F8B60, symBinAddr: 0x1001F9C9C, symSize: 0x2CC }
  - { offsetInCU: 0xBCA90, offset: 0xBCA90, size: 0x8, addend: 0x0, symName: __ZNSt3__112__to_addressB8ue170006INS_16reverse_iteratorINS1_IPNS_10shared_ptrIN5Catch8TestSpec7PatternEEEEEEEvEEu7__decayIDTclsr19__to_address_helperIT_EE6__callclsr3stdE7declvalIRKSA_EEEEESC_, symObjAddr: 0x1F8E2C, symBinAddr: 0x1001F9F68, symSize: 0x24 }
  - { offsetInCU: 0xBCAF3, offset: 0xBCAF3, size: 0x8, addend: 0x0, symName: __ZNSt3__14prevB8ue170006INS_16reverse_iteratorIPNS_10shared_ptrIN5Catch8TestSpec7PatternEEEEEEENS_9enable_ifIXsr29__has_input_iterator_categoryIT_EE5valueESA_E4typeESA_NS_15iterator_traitsISA_E15difference_typeE, symObjAddr: 0x1F9370, symBinAddr: 0x1001FA4AC, symSize: 0x294 }
  - { offsetInCU: 0xBCB3E, offset: 0xBCB3E, size: 0x8, addend: 0x0, symName: __ZNSt3__19__advanceB8ue170006INS_16reverse_iteratorIPNS_10shared_ptrIN5Catch8TestSpec7PatternEEEEEEEvRT_NS_15iterator_traitsIS9_E15difference_typeENS_26random_access_iterator_tagE, symObjAddr: 0x1F963C, symBinAddr: 0x1001FA778, symSize: 0x2C }
  - { offsetInCU: 0xBCB8B, offset: 0xBCB8B, size: 0x8, addend: 0x0, symName: __ZNSt3__1miB8ue170006IPKcPcEEDTmicldtfp_4baseEcldtfp0_4baseEERKNS_11__wrap_iterIT_EERKNS5_IT0_EE, symObjAddr: 0x1F9D30, symBinAddr: 0x1001FAE6C, symSize: 0x40 }
  - { offsetInCU: 0xBCC50, offset: 0xBCC50, size: 0x8, addend: 0x0, symName: __ZNSt3__1eqB8ue170006IPKcEEbRKNS_11__wrap_iterIT_EES7_, symObjAddr: 0x1FA3F8, symBinAddr: 0x1001FB534, symSize: 0x48 }
  - { offsetInCU: 0xBCCCC, offset: 0xBCCCC, size: 0x8, addend: 0x0, symName: __ZNSt3__1eqB8ue170006IPKwEEbRKNS_11__wrap_iterIT_EES7_, symObjAddr: 0x1FAC44, symBinAddr: 0x1001FBD80, symSize: 0x48 }
  - { offsetInCU: 0xBCD12, offset: 0xBCD12, size: 0x8, addend: 0x0, symName: __ZNSt3__118__constexpr_wcslenB8ue170006EPKw, symObjAddr: 0x1FB374, symBinAddr: 0x1001FC4B0, symSize: 0x24 }
  - { offsetInCU: 0xBCD40, offset: 0xBCD40, size: 0x8, addend: 0x0, symName: __ZNSt3__1lsB8ue170006INS_11char_traitsIcEEEERNS_13basic_ostreamIcT_EES6_RKNS_8__iom_t4IcEE, symObjAddr: 0x1FB424, symBinAddr: 0x1001FC560, symSize: 0x11C }
  - { offsetInCU: 0xBCD85, offset: 0xBCD85, size: 0x8, addend: 0x0, symName: __ZNSt3__19uppercaseB8ue170006ERNS_8ios_baseE, symObjAddr: 0x1FB540, symBinAddr: 0x1001FC67C, symSize: 0x2C }
  - { offsetInCU: 0xBCDB4, offset: 0xBCDB4, size: 0x8, addend: 0x0, symName: __ZNSt3__19use_facetB8ue170006INS_5ctypeIcEEEERKT_RKNS_6localeE, symObjAddr: 0x1FBB4C, symBinAddr: 0x1001FCC88, symSize: 0x2C }
  - { offsetInCU: 0xBCDEB, offset: 0xBCDEB, size: 0x8, addend: 0x0, symName: __ZNSt3__1eqB8ue170006IPKN5Catch11MessageInfoEPS2_EEbRKNS_11__wrap_iterIT_EERKNS6_IT0_EE, symObjAddr: 0x1FDD94, symBinAddr: 0x1001FEED0, symSize: 0x48 }
  - { offsetInCU: 0xBCE3A, offset: 0xBCE3A, size: 0x8, addend: 0x0, symName: __ZNSt3__18distanceB8ue170006INS_11__wrap_iterIPKN5Catch11MessageInfoEEEEENS_15iterator_traitsIT_E15difference_typeES8_S8_, symObjAddr: 0x1FE010, symBinAddr: 0x1001FF14C, symSize: 0x350 }
  - { offsetInCU: 0xBCE88, offset: 0xBCE88, size: 0x8, addend: 0x0, symName: __ZNSt3__110__distanceB8ue170006INS_11__wrap_iterIPKN5Catch11MessageInfoEEEEENS_15iterator_traitsIT_E15difference_typeES8_S8_NS_26random_access_iterator_tagE, symObjAddr: 0x1FE3C4, symBinAddr: 0x1001FF500, symSize: 0x274 }
  - { offsetInCU: 0xBCEE2, offset: 0xBCEE2, size: 0x8, addend: 0x0, symName: __ZNSt3__112__to_addressB8ue170006IKN5Catch11MessageInfoEEEPT_S5_, symObjAddr: 0x1FE638, symBinAddr: 0x1001FF774, symSize: 0x14 }
  - { offsetInCU: 0xBCF19, offset: 0xBCF19, size: 0x8, addend: 0x0, symName: __ZNSt3__1neB8ue170006IPKN5Catch11MessageInfoEPS2_EEbRKNS_11__wrap_iterIT_EERKNS6_IT0_EE, symObjAddr: 0x1FE64C, symBinAddr: 0x1001FF788, symSize: 0x34 }
  - { offsetInCU: 0xBCF68, offset: 0xBCF68, size: 0x8, addend: 0x0, symName: __ZNSt3__112__to_addressB8ue170006IN5Catch11SectionInfoEEEPT_S4_, symObjAddr: 0x1FF0AC, symBinAddr: 0x1002001E8, symSize: 0x14 }
  - { offsetInCU: 0xBCF9F, offset: 0xBCF9F, size: 0x8, addend: 0x0, symName: __ZNSt3__110destroy_atB8ue170006IN5Catch11SectionInfoELi0EEEvPT_, symObjAddr: 0x1FF0C0, symBinAddr: 0x1002001FC, symSize: 0x24 }
  - { offsetInCU: 0xBCFD9, offset: 0xBCFD9, size: 0x8, addend: 0x0, symName: __ZNSt3__112__destroy_atB8ue170006IN5Catch11SectionInfoELi0EEEvPT_, symObjAddr: 0x1FF0E4, symBinAddr: 0x100200220, symSize: 0x24 }
  - { offsetInCU: 0xBD013, offset: 0xBD013, size: 0x8, addend: 0x0, symName: __ZNSt3__122__make_exception_guardB8ue170006INS_6vectorIN5Catch12_GLOBAL__N_110ColumnInfoENS_9allocatorIS4_EEE16__destroy_vectorEEENS_28__exception_guard_exceptionsIT_EESA_, symObjAddr: 0x200034, symBinAddr: 0x100201170, symSize: 0x278 }
  - { offsetInCU: 0xBD04E, offset: 0xBD04E, size: 0x8, addend: 0x0, symName: __ZNSt3__119__allocate_at_leastB8ue170006INS_9allocatorIN5Catch12_GLOBAL__N_110ColumnInfoEEEEENS_19__allocation_resultINS_16allocator_traitsIT_E7pointerEEERS8_m, symObjAddr: 0x2015DC, symBinAddr: 0x100202718, symSize: 0x28C }
  - { offsetInCU: 0xBD096, offset: 0xBD096, size: 0x8, addend: 0x0, symName: __ZNSt3__112__to_addressB8ue170006IN5Catch12_GLOBAL__N_110ColumnInfoEEEPT_S5_, symObjAddr: 0x201C44, symBinAddr: 0x100202D80, symSize: 0x14 }
  - { offsetInCU: 0xBD0CC, offset: 0xBD0CC, size: 0x8, addend: 0x0, symName: __ZNSt3__130__uninitialized_allocator_copyB8ue170006INS_9allocatorIN5Catch12_GLOBAL__N_110ColumnInfoEEEPKS4_S7_PS4_EET2_RT_T0_T1_S9_, symObjAddr: 0x201CF4, symBinAddr: 0x100202E30, symSize: 0x2DC }
  - { offsetInCU: 0xBD173, offset: 0xBD173, size: 0x8, addend: 0x0, symName: __ZNSt3__114__unwrap_rangeB8ue170006IPKN5Catch12_GLOBAL__N_110ColumnInfoES5_EEDaT_T0_, symObjAddr: 0x202354, symBinAddr: 0x100203490, symSize: 0x224 }
  - { offsetInCU: 0xBD1C3, offset: 0xBD1C3, size: 0x8, addend: 0x0, symName: __ZNSt3__135__uninitialized_allocator_copy_implB8ue170006INS_9allocatorIN5Catch12_GLOBAL__N_110ColumnInfoEEEPKS4_S7_PS4_EET2_RT_T0_T1_S9_, symObjAddr: 0x202578, symBinAddr: 0x1002036B4, symSize: 0x520 }
  - { offsetInCU: 0xBD270, offset: 0xBD270, size: 0x8, addend: 0x0, symName: __ZNSt3__113__unwrap_iterB8ue170006IPN5Catch12_GLOBAL__N_110ColumnInfoENS_18__unwrap_iter_implIS4_Lb1EEELi0EEEDTclsrT0_8__unwrapclsr3stdE7declvalIT_EEEES8_, symObjAddr: 0x202A98, symBinAddr: 0x100203BD4, symSize: 0x24 }
  - { offsetInCU: 0xBD2B7, offset: 0xBD2B7, size: 0x8, addend: 0x0, symName: __ZNSt3__113__rewrap_iterB8ue170006IPN5Catch12_GLOBAL__N_110ColumnInfoES4_NS_18__unwrap_iter_implIS4_Lb1EEEEET_S7_T0_, symObjAddr: 0x202ABC, symBinAddr: 0x100203BF8, symSize: 0x48 }
  - { offsetInCU: 0xBD41C, offset: 0xBD41C, size: 0x8, addend: 0x0, symName: __ZNSt3__113__unwrap_iterB8ue170006IPKN5Catch12_GLOBAL__N_110ColumnInfoENS_18__unwrap_iter_implIS5_Lb1EEELi0EEEDTclsrT0_8__unwrapclsr3stdE7declvalIT_EEEES9_, symObjAddr: 0x202E10, symBinAddr: 0x100203F4C, symSize: 0x24 }
  - { offsetInCU: 0xBD4BB, offset: 0xBD4BB, size: 0x8, addend: 0x0, symName: __ZNSt3__112__to_addressB8ue170006IKN5Catch12_GLOBAL__N_110ColumnInfoEEEPT_S6_, symObjAddr: 0x202E94, symBinAddr: 0x100203FD0, symSize: 0x14 }
  - { offsetInCU: 0xBD4F2, offset: 0xBD4F2, size: 0x8, addend: 0x0, symName: __ZNSt3__122__make_exception_guardB8ue170006INS_29_AllocatorDestroyRangeReverseINS_9allocatorIN5Catch12_GLOBAL__N_110ColumnInfoEEEPS5_EEEENS_28__exception_guard_exceptionsIT_EESA_, symObjAddr: 0x202FE0, symBinAddr: 0x10020411C, symSize: 0x1F8 }
  - { offsetInCU: 0xBD552, offset: 0xBD552, size: 0x8, addend: 0x0, symName: __ZNSt3__112construct_atB8ue170006IN5Catch12_GLOBAL__N_110ColumnInfoEJRKS3_EPS3_EEPT_S8_DpOT0_, symObjAddr: 0x2034E0, symBinAddr: 0x10020461C, symSize: 0x3C }
  - { offsetInCU: 0xBD5C9, offset: 0xBD5C9, size: 0x8, addend: 0x0, symName: __ZNSt3__119__allocator_destroyB8ue170006INS_9allocatorIN5Catch12_GLOBAL__N_110ColumnInfoEEENS_16reverse_iteratorIPS4_EES8_EEvRT_T0_T1_, symObjAddr: 0x2039F4, symBinAddr: 0x100204B30, symSize: 0x2B8 }
  - { offsetInCU: 0xBD636, offset: 0xBD636, size: 0x8, addend: 0x0, symName: __ZNSt3__1neB8ue170006IPN5Catch12_GLOBAL__N_110ColumnInfoES4_EEbRKNS_16reverse_iteratorIT_EERKNS5_IT0_EE, symObjAddr: 0x203CE0, symBinAddr: 0x100204E1C, symSize: 0x48 }
  - { offsetInCU: 0xBD685, offset: 0xBD685, size: 0x8, addend: 0x0, symName: __ZNSt3__112__to_addressB8ue170006INS_16reverse_iteratorIPN5Catch12_GLOBAL__N_110ColumnInfoEEEvEEu7__decayIDTclsr19__to_address_helperIT_EE6__callclsr3stdE7declvalIRKS7_EEEEES9_, symObjAddr: 0x203D50, symBinAddr: 0x100204E8C, symSize: 0x24 }
  - { offsetInCU: 0xBD6BD, offset: 0xBD6BD, size: 0x8, addend: 0x0, symName: __ZNSt3__110destroy_atB8ue170006IN5Catch12_GLOBAL__N_110ColumnInfoELi0EEEvPT_, symObjAddr: 0x203E44, symBinAddr: 0x100204F80, symSize: 0x24 }
  - { offsetInCU: 0xBD6F7, offset: 0xBD6F7, size: 0x8, addend: 0x0, symName: __ZNSt3__112__destroy_atB8ue170006IN5Catch12_GLOBAL__N_110ColumnInfoELi0EEEvPT_, symObjAddr: 0x203E68, symBinAddr: 0x100204FA4, symSize: 0x24 }
  - { offsetInCU: 0xBD75C, offset: 0xBD75C, size: 0x8, addend: 0x0, symName: __ZNSt3__14prevB8ue170006IPN5Catch12_GLOBAL__N_110ColumnInfoEEENS_9enable_ifIXsr29__has_input_iterator_categoryIT_EE5valueES6_E4typeES6_NS_15iterator_traitsIS6_E15difference_typeE, symObjAddr: 0x203F3C, symBinAddr: 0x100205078, symSize: 0x240 }
  - { offsetInCU: 0xBD7A7, offset: 0xBD7A7, size: 0x8, addend: 0x0, symName: __ZNSt3__19__advanceB8ue170006IPN5Catch12_GLOBAL__N_110ColumnInfoEEEvRT_NS_15iterator_traitsIS5_E15difference_typeENS_26random_access_iterator_tagE, symObjAddr: 0x2041B4, symBinAddr: 0x1002052F0, symSize: 0x78 }
  - { offsetInCU: 0xBD84C, offset: 0xBD84C, size: 0x8, addend: 0x0, symName: __ZNSt3__1eqB8ue170006IPN5Catch11SectionInfoEEEbRKNS_11__wrap_iterIT_EES8_, symObjAddr: 0x207C28, symBinAddr: 0x100208D64, symSize: 0x48 }
  - { offsetInCU: 0xBD892, offset: 0xBD892, size: 0x8, addend: 0x0, symName: __ZNSt3__112__to_addressB8ue170006IN5Catch13SummaryColumnEEEPT_S4_, symObjAddr: 0x208924, symBinAddr: 0x100209A60, symSize: 0x14 }
  - { offsetInCU: 0xBD8F0, offset: 0xBD8F0, size: 0x8, addend: 0x0, symName: __ZNSt3__112construct_atB8ue170006IN5Catch13SummaryColumnEJS2_EPS2_EEPT_S5_DpOT0_, symObjAddr: 0x208EBC, symBinAddr: 0x100209FF8, symSize: 0x3C }
  - { offsetInCU: 0xBD968, offset: 0xBD968, size: 0x8, addend: 0x0, symName: __ZNSt3__119__allocate_at_leastB8ue170006INS_9allocatorIN5Catch13SummaryColumnEEEEENS_19__allocation_resultINS_16allocator_traitsIT_E7pointerEEERS7_m, symObjAddr: 0x20A660, symBinAddr: 0x10020B79C, symSize: 0x28C }
  - { offsetInCU: 0xBD9AF, offset: 0xBD9AF, size: 0x8, addend: 0x0, symName: __ZNSt3__142__uninitialized_allocator_move_if_noexceptB8ue170006INS_9allocatorIN5Catch13SummaryColumnEEENS_16reverse_iteratorIPS3_EES7_S7_EET2_RT_T0_T1_S8_, symObjAddr: 0x20ABE8, symBinAddr: 0x10020BD24, symSize: 0x544 }
  - { offsetInCU: 0xBDA65, offset: 0xBDA65, size: 0x8, addend: 0x0, symName: __ZNSt3__14swapB8ue170006IPN5Catch13SummaryColumnEEENS_9enable_ifIXaasr21is_move_constructibleIT_EE5valuesr18is_move_assignableIS5_EE5valueEvE4typeERS5_S8_, symObjAddr: 0x20B1C4, symBinAddr: 0x10020C300, symSize: 0x134 }
  - { offsetInCU: 0xBDABA, offset: 0xBDABA, size: 0x8, addend: 0x0, symName: __ZNSt3__122__make_exception_guardB8ue170006INS_29_AllocatorDestroyRangeReverseINS_9allocatorIN5Catch13SummaryColumnEEENS_16reverse_iteratorIPS4_EEEEEENS_28__exception_guard_exceptionsIT_EESB_, symObjAddr: 0x20B3D4, symBinAddr: 0x10020C510, symSize: 0x1F8 }
  - { offsetInCU: 0xBDAF3, offset: 0xBDAF3, size: 0x8, addend: 0x0, symName: __ZNSt3__1neB8ue170006IPN5Catch13SummaryColumnES3_EEbRKNS_16reverse_iteratorIT_EERKNS4_IT0_EE, symObjAddr: 0x20B610, symBinAddr: 0x10020C74C, symSize: 0x48 }
  - { offsetInCU: 0xBDB42, offset: 0xBDB42, size: 0x8, addend: 0x0, symName: __ZNSt3__112__to_addressB8ue170006INS_16reverse_iteratorIPN5Catch13SummaryColumnEEEvEEu7__decayIDTclsr19__to_address_helperIT_EE6__callclsr3stdE7declvalIRKS6_EEEEES8_, symObjAddr: 0x20B658, symBinAddr: 0x10020C794, symSize: 0x24 }
  - { offsetInCU: 0xBDBA5, offset: 0xBDBA5, size: 0x8, addend: 0x0, symName: __ZNSt3__14prevB8ue170006IPN5Catch13SummaryColumnEEENS_9enable_ifIXsr29__has_input_iterator_categoryIT_EE5valueES5_E4typeES5_NS_15iterator_traitsIS5_E15difference_typeE, symObjAddr: 0x20BAA0, symBinAddr: 0x10020CBDC, symSize: 0x240 }
  - { offsetInCU: 0xBDBF0, offset: 0xBDBF0, size: 0x8, addend: 0x0, symName: __ZNSt3__19__advanceB8ue170006IPN5Catch13SummaryColumnEEEvRT_NS_15iterator_traitsIS4_E15difference_typeENS_26random_access_iterator_tagE, symObjAddr: 0x20BD18, symBinAddr: 0x10020CE54, symSize: 0x80 }
  - { offsetInCU: 0xBDC3C, offset: 0xBDC3C, size: 0x8, addend: 0x0, symName: __ZNSt3__119__allocator_destroyB8ue170006INS_9allocatorIN5Catch13SummaryColumnEEENS_16reverse_iteratorINS5_IPS3_EEEES8_EEvRT_T0_T1_, symObjAddr: 0x20C1FC, symBinAddr: 0x10020D338, symSize: 0x70 }
  - { offsetInCU: 0xBDCA2, offset: 0xBDCA2, size: 0x8, addend: 0x0, symName: __ZNSt3__1neB8ue170006INS_16reverse_iteratorIPN5Catch13SummaryColumnEEES5_EEbRKNS1_IT_EERKNS1_IT0_EE, symObjAddr: 0x20C4B4, symBinAddr: 0x10020D5F0, symSize: 0x2CC }
  - { offsetInCU: 0xBDCF3, offset: 0xBDCF3, size: 0x8, addend: 0x0, symName: __ZNSt3__112__to_addressB8ue170006INS_16reverse_iteratorINS1_IPN5Catch13SummaryColumnEEEEEvEEu7__decayIDTclsr19__to_address_helperIT_EE6__callclsr3stdE7declvalIRKS7_EEEEES9_, symObjAddr: 0x20C7A8, symBinAddr: 0x10020D8E4, symSize: 0x24 }
  - { offsetInCU: 0xBDD2B, offset: 0xBDD2B, size: 0x8, addend: 0x0, symName: __ZNSt3__110destroy_atB8ue170006IN5Catch13SummaryColumnELi0EEEvPT_, symObjAddr: 0x20CA08, symBinAddr: 0x10020DB44, symSize: 0x24 }
  - { offsetInCU: 0xBDD65, offset: 0xBDD65, size: 0x8, addend: 0x0, symName: __ZNSt3__112__destroy_atB8ue170006IN5Catch13SummaryColumnELi0EEEvPT_, symObjAddr: 0x20CA2C, symBinAddr: 0x10020DB68, symSize: 0x24 }
  - { offsetInCU: 0xBDDCA, offset: 0xBDDCA, size: 0x8, addend: 0x0, symName: __ZNSt3__14prevB8ue170006INS_16reverse_iteratorIPN5Catch13SummaryColumnEEEEENS_9enable_ifIXsr29__has_input_iterator_categoryIT_EE5valueES7_E4typeES7_NS_15iterator_traitsIS7_E15difference_typeE, symObjAddr: 0x20CD34, symBinAddr: 0x10020DE70, symSize: 0x294 }
  - { offsetInCU: 0xBDE15, offset: 0xBDE15, size: 0x8, addend: 0x0, symName: __ZNSt3__19__advanceB8ue170006INS_16reverse_iteratorIPN5Catch13SummaryColumnEEEEEvRT_NS_15iterator_traitsIS6_E15difference_typeENS_26random_access_iterator_tagE, symObjAddr: 0x20D000, symBinAddr: 0x10020E13C, symSize: 0x2C }
  - { offsetInCU: 0xBDE62, offset: 0xBDE62, size: 0x8, addend: 0x0, symName: __ZNSt3__1eqB8ue170006IPKN5Catch13SummaryColumnEEEbRKNS_11__wrap_iterIT_EES9_, symObjAddr: 0x20E204, symBinAddr: 0x10020F340, symSize: 0x48 }
  - { offsetInCU: 0xBDEA8, offset: 0xBDEA8, size: 0x8, addend: 0x0, symName: __ZNSt3__112__to_addressB8ue170006INS_10shared_ptrIN5Catch22CumulativeReporterBaseINS2_13JunitReporterEE11SectionNodeEEEEEPT_S9_, symObjAddr: 0x20EFD0, symBinAddr: 0x10021010C, symSize: 0x14 }
  - { offsetInCU: 0xBDEDF, offset: 0xBDEDF, size: 0x8, addend: 0x0, symName: __ZNSt3__110destroy_atB8ue170006INS_10shared_ptrIN5Catch22CumulativeReporterBaseINS2_13JunitReporterEE11SectionNodeEEELi0EEEvPT_, symObjAddr: 0x20EFE4, symBinAddr: 0x100210120, symSize: 0x24 }
  - { offsetInCU: 0xBDF19, offset: 0xBDF19, size: 0x8, addend: 0x0, symName: __ZNSt3__112__destroy_atB8ue170006INS_10shared_ptrIN5Catch22CumulativeReporterBaseINS2_13JunitReporterEE11SectionNodeEEELi0EEEvPT_, symObjAddr: 0x20F008, symBinAddr: 0x100210144, symSize: 0x24 }
  - { offsetInCU: 0xBDF53, offset: 0xBDF53, size: 0x8, addend: 0x0, symName: __ZNSt3__112__to_addressB8ue170006INS_10shared_ptrIN5Catch22CumulativeReporterBaseINS2_13JunitReporterEE4NodeINS2_12TestRunStatsENS6_INS2_14TestGroupStatsENS6_INS2_13TestCaseStatsENS5_11SectionNodeEEEEEEEEEEEPT_SG_, symObjAddr: 0x20FADC, symBinAddr: 0x100210C18, symSize: 0x14 }
  - { offsetInCU: 0xBDF8A, offset: 0xBDF8A, size: 0x8, addend: 0x0, symName: __ZNSt3__110destroy_atB8ue170006INS_10shared_ptrIN5Catch22CumulativeReporterBaseINS2_13JunitReporterEE4NodeINS2_12TestRunStatsENS6_INS2_14TestGroupStatsENS6_INS2_13TestCaseStatsENS5_11SectionNodeEEEEEEEEELi0EEEvPT_, symObjAddr: 0x20FAF0, symBinAddr: 0x100210C2C, symSize: 0x24 }
  - { offsetInCU: 0xBDFC4, offset: 0xBDFC4, size: 0x8, addend: 0x0, symName: __ZNSt3__112__destroy_atB8ue170006INS_10shared_ptrIN5Catch22CumulativeReporterBaseINS2_13JunitReporterEE4NodeINS2_12TestRunStatsENS6_INS2_14TestGroupStatsENS6_INS2_13TestCaseStatsENS5_11SectionNodeEEEEEEEEELi0EEEvPT_, symObjAddr: 0x20FB14, symBinAddr: 0x100210C50, symSize: 0x24 }
  - { offsetInCU: 0xBDFFE, offset: 0xBDFFE, size: 0x8, addend: 0x0, symName: __ZNSt3__112__to_addressB8ue170006INS_10shared_ptrIN5Catch22CumulativeReporterBaseINS2_13JunitReporterEE4NodeINS2_14TestGroupStatsENS6_INS2_13TestCaseStatsENS5_11SectionNodeEEEEEEEEEPT_SE_, symObjAddr: 0x2106C4, symBinAddr: 0x100211800, symSize: 0x14 }
  - { offsetInCU: 0xBE035, offset: 0xBE035, size: 0x8, addend: 0x0, symName: __ZNSt3__110destroy_atB8ue170006INS_10shared_ptrIN5Catch22CumulativeReporterBaseINS2_13JunitReporterEE4NodeINS2_14TestGroupStatsENS6_INS2_13TestCaseStatsENS5_11SectionNodeEEEEEEELi0EEEvPT_, symObjAddr: 0x2106D8, symBinAddr: 0x100211814, symSize: 0x24 }
  - { offsetInCU: 0xBE06F, offset: 0xBE06F, size: 0x8, addend: 0x0, symName: __ZNSt3__112__destroy_atB8ue170006INS_10shared_ptrIN5Catch22CumulativeReporterBaseINS2_13JunitReporterEE4NodeINS2_14TestGroupStatsENS6_INS2_13TestCaseStatsENS5_11SectionNodeEEEEEEELi0EEEvPT_, symObjAddr: 0x2106FC, symBinAddr: 0x100211838, symSize: 0x24 }
  - { offsetInCU: 0xBE0A9, offset: 0xBE0A9, size: 0x8, addend: 0x0, symName: __ZNSt3__112__to_addressB8ue170006INS_10shared_ptrIN5Catch22CumulativeReporterBaseINS2_13JunitReporterEE4NodeINS2_13TestCaseStatsENS5_11SectionNodeEEEEEEEPT_SC_, symObjAddr: 0x2112AC, symBinAddr: 0x1002123E8, symSize: 0x14 }
  - { offsetInCU: 0xBE0E0, offset: 0xBE0E0, size: 0x8, addend: 0x0, symName: __ZNSt3__110destroy_atB8ue170006INS_10shared_ptrIN5Catch22CumulativeReporterBaseINS2_13JunitReporterEE4NodeINS2_13TestCaseStatsENS5_11SectionNodeEEEEELi0EEEvPT_, symObjAddr: 0x2112C0, symBinAddr: 0x1002123FC, symSize: 0x24 }
  - { offsetInCU: 0xBE11A, offset: 0xBE11A, size: 0x8, addend: 0x0, symName: __ZNSt3__112__destroy_atB8ue170006INS_10shared_ptrIN5Catch22CumulativeReporterBaseINS2_13JunitReporterEE4NodeINS2_13TestCaseStatsENS5_11SectionNodeEEEEELi0EEEvPT_, symObjAddr: 0x2112E4, symBinAddr: 0x100212420, symSize: 0x24 }
  - { offsetInCU: 0xBE154, offset: 0xBE154, size: 0x8, addend: 0x0, symName: __ZNSt3__112__to_addressB8ue170006INS_6vectorINS_10shared_ptrIN5Catch22CumulativeReporterBaseINS3_13JunitReporterEE11SectionNodeEEENS_9allocatorIS8_EEEEEEPT_SD_, symObjAddr: 0x211EB0, symBinAddr: 0x100212FEC, symSize: 0x14 }
  - { offsetInCU: 0xBE18B, offset: 0xBE18B, size: 0x8, addend: 0x0, symName: __ZNSt3__110destroy_atB8ue170006INS_6vectorINS_10shared_ptrIN5Catch22CumulativeReporterBaseINS3_13JunitReporterEE11SectionNodeEEENS_9allocatorIS8_EEEELi0EEEvPT_, symObjAddr: 0x211EC4, symBinAddr: 0x100213000, symSize: 0x24 }
  - { offsetInCU: 0xBE1C5, offset: 0xBE1C5, size: 0x8, addend: 0x0, symName: __ZNSt3__112__destroy_atB8ue170006INS_6vectorINS_10shared_ptrIN5Catch22CumulativeReporterBaseINS3_13JunitReporterEE11SectionNodeEEENS_9allocatorIS8_EEEELi0EEEvPT_, symObjAddr: 0x211EE8, symBinAddr: 0x100213024, symSize: 0x24 }
  - { offsetInCU: 0xBE1FF, offset: 0xBE1FF, size: 0x8, addend: 0x0, symName: __ZNSt3__112__to_addressB8ue170006IN5Catch14AssertionStatsEEEPT_S4_, symObjAddr: 0x2129C4, symBinAddr: 0x100213B00, symSize: 0x14 }
  - { offsetInCU: 0xBE236, offset: 0xBE236, size: 0x8, addend: 0x0, symName: __ZNSt3__110destroy_atB8ue170006IN5Catch14AssertionStatsELi0EEEvPT_, symObjAddr: 0x2129D8, symBinAddr: 0x100213B14, symSize: 0x24 }
  - { offsetInCU: 0xBE270, offset: 0xBE270, size: 0x8, addend: 0x0, symName: __ZNSt3__112__destroy_atB8ue170006IN5Catch14AssertionStatsELi0EEEvPT_, symObjAddr: 0x2129FC, symBinAddr: 0x100213B38, symSize: 0xA4 }
  - { offsetInCU: 0xBE2A9, offset: 0xBE2A9, size: 0x8, addend: 0x0, symName: __ZNSt3__15fixedB8ue170006ERNS_8ios_baseE, symObjAddr: 0x212CF4, symBinAddr: 0x100213E30, symSize: 0x30 }
  - { offsetInCU: 0xBE2D8, offset: 0xBE2D8, size: 0x8, addend: 0x0, symName: __ZNSt3__112setprecisionB8ue170006Ei, symObjAddr: 0x212D98, symBinAddr: 0x100213ED4, symSize: 0x220 }
  - { offsetInCU: 0xBE307, offset: 0xBE307, size: 0x8, addend: 0x0, symName: __ZNSt3__1lsB8ue170006IcNS_11char_traitsIcEEEERNS_13basic_ostreamIT_T0_EES7_RKNS_8__iom_t5E, symObjAddr: 0x212FB8, symBinAddr: 0x1002140F4, symSize: 0x120 }
  - { offsetInCU: 0xBE356, offset: 0xBE356, size: 0x8, addend: 0x0, symName: __ZNSt3__1eqB8ue170006IPKNS_10shared_ptrIN5Catch22CumulativeReporterBaseINS2_13JunitReporterEE4NodeINS2_13TestCaseStatsENS5_11SectionNodeEEEEEEEbRKNS_11__wrap_iterIT_EESH_, symObjAddr: 0x2134FC, symBinAddr: 0x100214638, symSize: 0x48 }
  - { offsetInCU: 0xBE39C, offset: 0xBE39C, size: 0x8, addend: 0x0, symName: '__ZNSt3__17find_ifB8ue170006INS_11__wrap_iterIPKNS_12basic_stringIcNS_11char_traitsIcEENS_9allocatorIcEEEEEEZN5Catch12_GLOBAL__N_111fileNameTagERKNS_6vectorIS7_NS5_IS7_EEEEE4$_22EET_SJ_SJ_T0_', symObjAddr: 0x2135A4, symBinAddr: 0x1002146E0, symSize: 0x340 }
  - { offsetInCU: 0xBE407, offset: 0xBE407, size: 0x8, addend: 0x0, symName: __ZNSt3__1eqB8ue170006IPKNS_10shared_ptrIN5Catch22CumulativeReporterBaseINS2_13JunitReporterEE11SectionNodeEEEEEbRKNS_11__wrap_iterIT_EESE_, symObjAddr: 0x213C48, symBinAddr: 0x100214D84, symSize: 0x48 }
  - { offsetInCU: 0xBE44D, offset: 0xBE44D, size: 0x8, addend: 0x0, symName: __ZNSt3__1eqB8ue170006IPKN5Catch14AssertionStatsEEEbRKNS_11__wrap_iterIT_EES9_, symObjAddr: 0x213F90, symBinAddr: 0x1002150CC, symSize: 0x48 }
  - { offsetInCU: 0xBE493, offset: 0xBE493, size: 0x8, addend: 0x0, symName: __ZNSt3__1eqB8ue170006IPKN5Catch11MessageInfoEEEbRKNS_11__wrap_iterIT_EES9_, symObjAddr: 0x2142D8, symBinAddr: 0x100215414, symSize: 0x48 }
  - { offsetInCU: 0xBE4D9, offset: 0xBE4D9, size: 0x8, addend: 0x0, symName: __ZNSt3__112__to_addressB8ue170006INS_10unique_ptrIN5Catch18IStreamingReporterENS_14default_deleteIS3_EEEEEEPT_S8_, symObjAddr: 0x215058, symBinAddr: 0x100216194, symSize: 0x14 }
  - { offsetInCU: 0xBE537, offset: 0xBE537, size: 0x8, addend: 0x0, symName: __ZNSt3__112construct_atB8ue170006INS_10unique_ptrIN5Catch18IStreamingReporterENS_14default_deleteIS3_EEEEJS6_EPS6_EEPT_S9_DpOT0_, symObjAddr: 0x2155C8, symBinAddr: 0x100216704, symSize: 0x3C }
  - { offsetInCU: 0xBE5AF, offset: 0xBE5AF, size: 0x8, addend: 0x0, symName: __ZNSt3__119__allocate_at_leastB8ue170006INS_9allocatorINS_10unique_ptrIN5Catch18IStreamingReporterENS_14default_deleteIS4_EEEEEEEENS_19__allocation_resultINS_16allocator_traitsIT_E7pointerEEERSB_m, symObjAddr: 0x216BDC, symBinAddr: 0x100217D18, symSize: 0x28C }
  - { offsetInCU: 0xBE5F6, offset: 0xBE5F6, size: 0x8, addend: 0x0, symName: __ZNSt3__142__uninitialized_allocator_move_if_noexceptB8ue170006INS_9allocatorINS_10unique_ptrIN5Catch18IStreamingReporterENS_14default_deleteIS4_EEEEEENS_16reverse_iteratorIPS7_EESB_SB_EET2_RT_T0_T1_SC_, symObjAddr: 0x217144, symBinAddr: 0x100218280, symSize: 0x544 }
  - { offsetInCU: 0xBE6AC, offset: 0xBE6AC, size: 0x8, addend: 0x0, symName: __ZNSt3__14swapB8ue170006IPNS_10unique_ptrIN5Catch18IStreamingReporterENS_14default_deleteIS3_EEEEEENS_9enable_ifIXaasr21is_move_constructibleIT_EE5valuesr18is_move_assignableIS9_EE5valueEvE4typeERS9_SC_, symObjAddr: 0x217720, symBinAddr: 0x10021885C, symSize: 0x134 }
  - { offsetInCU: 0xBE701, offset: 0xBE701, size: 0x8, addend: 0x0, symName: __ZNSt3__122__make_exception_guardB8ue170006INS_29_AllocatorDestroyRangeReverseINS_9allocatorINS_10unique_ptrIN5Catch18IStreamingReporterENS_14default_deleteIS5_EEEEEENS_16reverse_iteratorIPS8_EEEEEENS_28__exception_guard_exceptionsIT_EESF_, symObjAddr: 0x217914, symBinAddr: 0x100218A50, symSize: 0x1F8 }
  - { offsetInCU: 0xBE73A, offset: 0xBE73A, size: 0x8, addend: 0x0, symName: __ZNSt3__1neB8ue170006IPNS_10unique_ptrIN5Catch18IStreamingReporterENS_14default_deleteIS3_EEEES7_EEbRKNS_16reverse_iteratorIT_EERKNS8_IT0_EE, symObjAddr: 0x217B50, symBinAddr: 0x100218C8C, symSize: 0x48 }
  - { offsetInCU: 0xBE789, offset: 0xBE789, size: 0x8, addend: 0x0, symName: __ZNSt3__112__to_addressB8ue170006INS_16reverse_iteratorIPNS_10unique_ptrIN5Catch18IStreamingReporterENS_14default_deleteIS4_EEEEEEvEEu7__decayIDTclsr19__to_address_helperIT_EE6__callclsr3stdE7declvalIRKSA_EEEEESC_, symObjAddr: 0x217B98, symBinAddr: 0x100218CD4, symSize: 0x24 }
  - { offsetInCU: 0xBE7EC, offset: 0xBE7EC, size: 0x8, addend: 0x0, symName: __ZNSt3__14prevB8ue170006IPNS_10unique_ptrIN5Catch18IStreamingReporterENS_14default_deleteIS3_EEEEEENS_9enable_ifIXsr29__has_input_iterator_categoryIT_EE5valueES9_E4typeES9_NS_15iterator_traitsIS9_E15difference_typeE, symObjAddr: 0x217FE0, symBinAddr: 0x10021911C, symSize: 0x240 }
  - { offsetInCU: 0xBE837, offset: 0xBE837, size: 0x8, addend: 0x0, symName: __ZNSt3__19__advanceB8ue170006IPNS_10unique_ptrIN5Catch18IStreamingReporterENS_14default_deleteIS3_EEEEEEvRT_NS_15iterator_traitsIS8_E15difference_typeENS_26random_access_iterator_tagE, symObjAddr: 0x218258, symBinAddr: 0x100219394, symSize: 0x78 }
  - { offsetInCU: 0xBE883, offset: 0xBE883, size: 0x8, addend: 0x0, symName: __ZNSt3__119__allocator_destroyB8ue170006INS_9allocatorINS_10unique_ptrIN5Catch18IStreamingReporterENS_14default_deleteIS4_EEEEEENS_16reverse_iteratorINS9_IPS7_EEEESC_EEvRT_T0_T1_, symObjAddr: 0x218734, symBinAddr: 0x100219870, symSize: 0x70 }
  - { offsetInCU: 0xBE8E9, offset: 0xBE8E9, size: 0x8, addend: 0x0, symName: __ZNSt3__1neB8ue170006INS_16reverse_iteratorIPNS_10unique_ptrIN5Catch18IStreamingReporterENS_14default_deleteIS4_EEEEEES9_EEbRKNS1_IT_EERKNS1_IT0_EE, symObjAddr: 0x2189EC, symBinAddr: 0x100219B28, symSize: 0x2CC }
  - { offsetInCU: 0xBE93A, offset: 0xBE93A, size: 0x8, addend: 0x0, symName: __ZNSt3__112__to_addressB8ue170006INS_16reverse_iteratorINS1_IPNS_10unique_ptrIN5Catch18IStreamingReporterENS_14default_deleteIS4_EEEEEEEEvEEu7__decayIDTclsr19__to_address_helperIT_EE6__callclsr3stdE7declvalIRKSB_EEEEESD_, symObjAddr: 0x218CE0, symBinAddr: 0x100219E1C, symSize: 0x24 }
  - { offsetInCU: 0xBE972, offset: 0xBE972, size: 0x8, addend: 0x0, symName: __ZNSt3__110destroy_atB8ue170006INS_10unique_ptrIN5Catch18IStreamingReporterENS_14default_deleteIS3_EEEELi0EEEvPT_, symObjAddr: 0x218F40, symBinAddr: 0x10021A07C, symSize: 0x24 }
  - { offsetInCU: 0xBE9AC, offset: 0xBE9AC, size: 0x8, addend: 0x0, symName: __ZNSt3__112__destroy_atB8ue170006INS_10unique_ptrIN5Catch18IStreamingReporterENS_14default_deleteIS3_EEEELi0EEEvPT_, symObjAddr: 0x218F64, symBinAddr: 0x10021A0A0, symSize: 0x24 }
  - { offsetInCU: 0xBEA11, offset: 0xBEA11, size: 0x8, addend: 0x0, symName: __ZNSt3__14prevB8ue170006INS_16reverse_iteratorIPNS_10unique_ptrIN5Catch18IStreamingReporterENS_14default_deleteIS4_EEEEEEEENS_9enable_ifIXsr29__has_input_iterator_categoryIT_EE5valueESB_E4typeESB_NS_15iterator_traitsISB_E15difference_typeE, symObjAddr: 0x21926C, symBinAddr: 0x10021A3A8, symSize: 0x294 }
  - { offsetInCU: 0xBEA5C, offset: 0xBEA5C, size: 0x8, addend: 0x0, symName: __ZNSt3__19__advanceB8ue170006INS_16reverse_iteratorIPNS_10unique_ptrIN5Catch18IStreamingReporterENS_14default_deleteIS4_EEEEEEEEvRT_NS_15iterator_traitsISA_E15difference_typeENS_26random_access_iterator_tagE, symObjAddr: 0x219538, symBinAddr: 0x10021A674, symSize: 0x2C }
  - { offsetInCU: 0xBEAA9, offset: 0xBEAA9, size: 0x8, addend: 0x0, symName: __ZNSt3__1eqB8ue170006IPNS_10unique_ptrIN5Catch18IStreamingReporterENS_14default_deleteIS3_EEEEEEbRKNS_11__wrap_iterIT_EESC_, symObjAddr: 0x21A004, symBinAddr: 0x10021B140, symSize: 0x48 }
  - { offsetInCU: 0xBEAEF, offset: 0xBEAEF, size: 0x8, addend: 0x0, symName: __ZNSt3__14swapB8ue170006IPKN5Catch7IConfigEEENS_9enable_ifIXaasr21is_move_constructibleIT_EE5valuesr18is_move_assignableIS6_EE5valueEvE4typeERS6_S9_, symObjAddr: 0x21A4B8, symBinAddr: 0x10021B5F4, symSize: 0x134 }
  - { offsetInCU: 0xBEB44, offset: 0xBEB44, size: 0x8, addend: 0x0, symName: __ZNSt3__17find_ifB8ue170006INS_11__wrap_iterIPNS_10shared_ptrIN5Catch16TestCaseTracking8ITrackerEEEEEZZNS3_10Generators16GeneratorTracker5closeEvENKUlvE_clEvEUlS6_E_EET_SD_SD_T0_, symObjAddr: 0x21BAB8, symBinAddr: 0x10021CBF4, symSize: 0x43C }
  - { offsetInCU: 0xBEBAE, offset: 0xBEBAE, size: 0x8, addend: 0x0, symName: __ZNSt3__116__pad_and_outputB8ue170006IcNS_11char_traitsIcEEEENS_19ostreambuf_iteratorIT_T0_EES6_PKS4_S8_S8_RNS_8ios_baseES4_, symObjAddr: 0x21D704, symBinAddr: 0x10021E840, symSize: 0x760 }
  - { offsetInCU: 0xBEC8C, offset: 0xBEC8C, size: 0x8, addend: 0x0, symName: __ZNSt3__110to_addressB8ue170006IcEEDaPT_, symObjAddr: 0x21F714, symBinAddr: 0x100220850, symSize: 0x24 }
  - { offsetInCU: 0xBECC2, offset: 0xBECC2, size: 0x8, addend: 0x0, symName: __ZNSt3__1neB8ue170006ERKNS_21__tree_const_iteratorINS_12__value_typeINS_12basic_stringIcNS_11char_traitsIcEENS_9allocatorIcEEEENS_10shared_ptrIN5Catch16IReporterFactoryEEEEEPNS_11__tree_nodeISC_PvEElEESJ_, symObjAddr: 0x2203E8, symBinAddr: 0x100221524, symSize: 0x34 }
  - { offsetInCU: 0xBECFF, offset: 0xBECFF, size: 0x8, addend: 0x0, symName: __ZNSt3__17launderB8ue170006IKNS_4pairIKNS_12basic_stringIcNS_11char_traitsIcEENS_9allocatorIcEEEENS_10shared_ptrIN5Catch16IReporterFactoryEEEEEEEPT_SG_, symObjAddr: 0x220A0C, symBinAddr: 0x100221B48, symSize: 0x24 }
  - { offsetInCU: 0xBED36, offset: 0xBED36, size: 0x8, addend: 0x0, symName: __ZNSt3__19__launderB8ue170006IKNS_4pairIKNS_12basic_stringIcNS_11char_traitsIcEENS_9allocatorIcEEEENS_10shared_ptrIN5Catch16IReporterFactoryEEEEEEEPT_SG_, symObjAddr: 0x220A30, symBinAddr: 0x100221B6C, symSize: 0x14 }
  - { offsetInCU: 0xBED6D, offset: 0xBED6D, size: 0x8, addend: 0x0, symName: __ZNSt3__1eqB8ue170006ERKNS_21__tree_const_iteratorINS_12__value_typeINS_12basic_stringIcNS_11char_traitsIcEENS_9allocatorIcEEEENS_10shared_ptrIN5Catch16IReporterFactoryEEEEEPNS_11__tree_nodeISC_PvEElEESJ_, symObjAddr: 0x220AD8, symBinAddr: 0x100221C14, symSize: 0xB8 }
  - { offsetInCU: 0xBEDAB, offset: 0xBEDAB, size: 0x8, addend: 0x0, symName: __ZNSt3__122__make_exception_guardB8ue170006INS_6vectorIN5Catch5clara6detail3OptENS_9allocatorIS5_EEE16__destroy_vectorEEENS_28__exception_guard_exceptionsIT_EESB_, symObjAddr: 0x221F88, symBinAddr: 0x1002230C4, symSize: 0x278 }
  - { offsetInCU: 0xBEDE6, offset: 0xBEDE6, size: 0x8, addend: 0x0, symName: __ZNSt3__122__make_exception_guardB8ue170006INS_6vectorIN5Catch5clara6detail3ArgENS_9allocatorIS5_EEE16__destroy_vectorEEENS_28__exception_guard_exceptionsIT_EESB_, symObjAddr: 0x222F88, symBinAddr: 0x1002240C4, symSize: 0x278 }
  - { offsetInCU: 0xBEE21, offset: 0xBEE21, size: 0x8, addend: 0x0, symName: __ZNSt3__112construct_atB8ue170006IN5Catch5clara6detail3OptEJRKS4_EPS4_EEPT_S9_DpOT0_, symObjAddr: 0x224070, symBinAddr: 0x1002251AC, symSize: 0x3C }
  - { offsetInCU: 0xBEE98, offset: 0xBEE98, size: 0x8, addend: 0x0, symName: __ZNSt3__142__uninitialized_allocator_move_if_noexceptB8ue170006INS_9allocatorIN5Catch5clara6detail3OptEEENS_16reverse_iteratorIPS5_EES9_S9_EET2_RT_T0_T1_SA_, symObjAddr: 0x224DA8, symBinAddr: 0x100225EE4, symSize: 0x53C }
  - { offsetInCU: 0xBEF4E, offset: 0xBEF4E, size: 0x8, addend: 0x0, symName: __ZNSt3__14swapB8ue170006IPN5Catch5clara6detail3OptEEENS_9enable_ifIXaasr21is_move_constructibleIT_EE5valuesr18is_move_assignableIS7_EE5valueEvE4typeERS7_SA_, symObjAddr: 0x2252E4, symBinAddr: 0x100226420, symSize: 0x134 }
  - { offsetInCU: 0xBEFA3, offset: 0xBEFA3, size: 0x8, addend: 0x0, symName: __ZNSt3__122__make_exception_guardB8ue170006INS_29_AllocatorDestroyRangeReverseINS_9allocatorIN5Catch5clara6detail3OptEEENS_16reverse_iteratorIPS6_EEEEEENS_28__exception_guard_exceptionsIT_EESD_, symObjAddr: 0x225418, symBinAddr: 0x100226554, symSize: 0x1F8 }
  - { offsetInCU: 0xBEFDC, offset: 0xBEFDC, size: 0x8, addend: 0x0, symName: __ZNSt3__112construct_atB8ue170006IN5Catch5clara6detail3OptEJS4_EPS4_EEPT_S7_DpOT0_, symObjAddr: 0x22598C, symBinAddr: 0x100226AC8, symSize: 0x3C }
  - { offsetInCU: 0xBF053, offset: 0xBF053, size: 0x8, addend: 0x0, symName: __ZNSt3__119__allocator_destroyB8ue170006INS_9allocatorIN5Catch5clara6detail3OptEEENS_16reverse_iteratorINS7_IPS5_EEEESA_EEvRT_T0_T1_, symObjAddr: 0x226318, symBinAddr: 0x100227454, symSize: 0x70 }
  - { offsetInCU: 0xBF0B9, offset: 0xBF0B9, size: 0x8, addend: 0x0, symName: __ZNSt3__1neB8ue170006INS_16reverse_iteratorIPN5Catch5clara6detail3OptEEES7_EEbRKNS1_IT_EERKNS1_IT0_EE, symObjAddr: 0x2265D0, symBinAddr: 0x10022770C, symSize: 0x2CC }
  - { offsetInCU: 0xBF10A, offset: 0xBF10A, size: 0x8, addend: 0x0, symName: __ZNSt3__112__to_addressB8ue170006INS_16reverse_iteratorINS1_IPN5Catch5clara6detail3OptEEEEEvEEu7__decayIDTclsr19__to_address_helperIT_EE6__callclsr3stdE7declvalIRKS9_EEEEESB_, symObjAddr: 0x22689C, symBinAddr: 0x1002279D8, symSize: 0x24 }
  - { offsetInCU: 0xBF16D, offset: 0xBF16D, size: 0x8, addend: 0x0, symName: __ZNSt3__14prevB8ue170006INS_16reverse_iteratorIPN5Catch5clara6detail3OptEEEEENS_9enable_ifIXsr29__has_input_iterator_categoryIT_EE5valueES9_E4typeES9_NS_15iterator_traitsIS9_E15difference_typeE, symObjAddr: 0x226DE0, symBinAddr: 0x100227F1C, symSize: 0x294 }
  - { offsetInCU: 0xBF1B8, offset: 0xBF1B8, size: 0x8, addend: 0x0, symName: __ZNSt3__19__advanceB8ue170006INS_16reverse_iteratorIPN5Catch5clara6detail3OptEEEEEvRT_NS_15iterator_traitsIS8_E15difference_typeENS_26random_access_iterator_tagE, symObjAddr: 0x2270AC, symBinAddr: 0x1002281E8, symSize: 0x2C }
  - { offsetInCU: 0xBF204, offset: 0xBF204, size: 0x8, addend: 0x0, symName: '__ZNSt3__111make_sharedB8ue170006IN5Catch5clara6detail11BoundLambdaIZNS1_21makeCommandLineParserERNS1_10ConfigDataEE3$_1EEJRKS7_EvEENS_10shared_ptrIT_EEDpOT0_', symObjAddr: 0x2281F4, symBinAddr: 0x100229330, symSize: 0x1E8 }
  - { offsetInCU: 0xBF46B, offset: 0xBF46B, size: 0x8, addend: 0x0, symName: '__ZNSt3__115allocate_sharedB8ue170006IN5Catch5clara6detail11BoundLambdaIZNS1_21makeCommandLineParserERNS1_10ConfigDataEE3$_1EENS_9allocatorIS8_EEJRKS7_EvEENS_10shared_ptrIT_EERKT0_DpOT1_', symObjAddr: 0x22843C, symBinAddr: 0x100229578, symSize: 0x300 }
  - { offsetInCU: 0xBF843, offset: 0xBF843, size: 0x8, addend: 0x0, symName: '__ZNSt3__112construct_atB8ue170006IN5Catch5clara6detail11BoundLambdaIZNS1_21makeCommandLineParserERNS1_10ConfigDataEE3$_1EEJRKS7_EPS8_EEPT_SD_DpOT0_', symObjAddr: 0x229738, symBinAddr: 0x10022A874, symSize: 0x3C }
  - { offsetInCU: 0xBF8BB, offset: 0xBF8BB, size: 0x8, addend: 0x0, symName: '__ZNSt3__110destroy_atB8ue170006IN5Catch5clara6detail11BoundLambdaIZNS1_21makeCommandLineParserERNS1_10ConfigDataEE3$_1EELi0EEEvPT_', symObjAddr: 0x22AB24, symBinAddr: 0x10022BC60, symSize: 0x24 }
  - { offsetInCU: 0xBF8F5, offset: 0xBF8F5, size: 0x8, addend: 0x0, symName: '__ZNSt3__112__destroy_atB8ue170006IN5Catch5clara6detail11BoundLambdaIZNS1_21makeCommandLineParserERNS1_10ConfigDataEE3$_1EELi0EEEvPT_', symObjAddr: 0x22AB48, symBinAddr: 0x10022BC84, symSize: 0xA4 }
  - { offsetInCU: 0xBF964, offset: 0xBF964, size: 0x8, addend: 0x0, symName: '__ZNSt3__111make_sharedB8ue170006IN5Catch5clara6detail15BoundFlagLambdaIZNS1_21makeCommandLineParserERNS1_10ConfigDataEE3$_2EEJRKS7_EvEENS_10shared_ptrIT_EEDpOT0_', symObjAddr: 0x22B430, symBinAddr: 0x10022C56C, symSize: 0x1E8 }
  - { offsetInCU: 0xBFBCB, offset: 0xBFBCB, size: 0x8, addend: 0x0, symName: '__ZNSt3__115allocate_sharedB8ue170006IN5Catch5clara6detail15BoundFlagLambdaIZNS1_21makeCommandLineParserERNS1_10ConfigDataEE3$_2EENS_9allocatorIS8_EEJRKS7_EvEENS_10shared_ptrIT_EERKT0_DpOT1_', symObjAddr: 0x22B678, symBinAddr: 0x10022C7B4, symSize: 0x300 }
  - { offsetInCU: 0xBFFA3, offset: 0xBFFA3, size: 0x8, addend: 0x0, symName: '__ZNSt3__112construct_atB8ue170006IN5Catch5clara6detail15BoundFlagLambdaIZNS1_21makeCommandLineParserERNS1_10ConfigDataEE3$_2EEJRKS7_EPS8_EEPT_SD_DpOT0_', symObjAddr: 0x22C974, symBinAddr: 0x10022DAB0, symSize: 0x3C }
  - { offsetInCU: 0xC001B, offset: 0xC001B, size: 0x8, addend: 0x0, symName: '__ZNSt3__110destroy_atB8ue170006IN5Catch5clara6detail15BoundFlagLambdaIZNS1_21makeCommandLineParserERNS1_10ConfigDataEE3$_2EELi0EEEvPT_', symObjAddr: 0x22D1A4, symBinAddr: 0x10022E2E0, symSize: 0x24 }
  - { offsetInCU: 0xC0055, offset: 0xC0055, size: 0x8, addend: 0x0, symName: '__ZNSt3__112__destroy_atB8ue170006IN5Catch5clara6detail15BoundFlagLambdaIZNS1_21makeCommandLineParserERNS1_10ConfigDataEE3$_2EELi0EEEvPT_', symObjAddr: 0x22D1C8, symBinAddr: 0x10022E304, symSize: 0xA4 }
  - { offsetInCU: 0xC00C4, offset: 0xC00C4, size: 0x8, addend: 0x0, symName: '__ZNSt3__111make_sharedB8ue170006IN5Catch5clara6detail11BoundLambdaIZNS1_21makeCommandLineParserERNS1_10ConfigDataEE3$_3EEJRKS7_EvEENS_10shared_ptrIT_EEDpOT0_', symObjAddr: 0x22DC48, symBinAddr: 0x10022ED84, symSize: 0x1E8 }
  - { offsetInCU: 0xC032B, offset: 0xC032B, size: 0x8, addend: 0x0, symName: '__ZNSt3__115allocate_sharedB8ue170006IN5Catch5clara6detail11BoundLambdaIZNS1_21makeCommandLineParserERNS1_10ConfigDataEE3$_3EENS_9allocatorIS8_EEJRKS7_EvEENS_10shared_ptrIT_EERKT0_DpOT1_', symObjAddr: 0x22DE90, symBinAddr: 0x10022EFCC, symSize: 0x300 }
  - { offsetInCU: 0xC0703, offset: 0xC0703, size: 0x8, addend: 0x0, symName: '__ZNSt3__112construct_atB8ue170006IN5Catch5clara6detail11BoundLambdaIZNS1_21makeCommandLineParserERNS1_10ConfigDataEE3$_3EEJRKS7_EPS8_EEPT_SD_DpOT0_', symObjAddr: 0x22F18C, symBinAddr: 0x1002302C8, symSize: 0x3C }
  - { offsetInCU: 0xC077B, offset: 0xC077B, size: 0x8, addend: 0x0, symName: '__ZNSt3__110destroy_atB8ue170006IN5Catch5clara6detail11BoundLambdaIZNS1_21makeCommandLineParserERNS1_10ConfigDataEE3$_3EELi0EEEvPT_', symObjAddr: 0x230178, symBinAddr: 0x1002312B4, symSize: 0x24 }
  - { offsetInCU: 0xC07B5, offset: 0xC07B5, size: 0x8, addend: 0x0, symName: '__ZNSt3__112__destroy_atB8ue170006IN5Catch5clara6detail11BoundLambdaIZNS1_21makeCommandLineParserERNS1_10ConfigDataEE3$_3EELi0EEEvPT_', symObjAddr: 0x23019C, symBinAddr: 0x1002312D8, symSize: 0xA4 }
  - { offsetInCU: 0xC0824, offset: 0xC0824, size: 0x8, addend: 0x0, symName: '__ZNSt3__111make_sharedB8ue170006IN5Catch5clara6detail11BoundLambdaIZNS1_21makeCommandLineParserERNS1_10ConfigDataEE3$_4EEJRKS7_EvEENS_10shared_ptrIT_EEDpOT0_', symObjAddr: 0x230C1C, symBinAddr: 0x100231D58, symSize: 0x1E8 }
  - { offsetInCU: 0xC0A8B, offset: 0xC0A8B, size: 0x8, addend: 0x0, symName: '__ZNSt3__115allocate_sharedB8ue170006IN5Catch5clara6detail11BoundLambdaIZNS1_21makeCommandLineParserERNS1_10ConfigDataEE3$_4EENS_9allocatorIS8_EEJRKS7_EvEENS_10shared_ptrIT_EERKT0_DpOT1_', symObjAddr: 0x230E64, symBinAddr: 0x100231FA0, symSize: 0x300 }
  - { offsetInCU: 0xC0E63, offset: 0xC0E63, size: 0x8, addend: 0x0, symName: '__ZNSt3__112construct_atB8ue170006IN5Catch5clara6detail11BoundLambdaIZNS1_21makeCommandLineParserERNS1_10ConfigDataEE3$_4EEJRKS7_EPS8_EEPT_SD_DpOT0_', symObjAddr: 0x232160, symBinAddr: 0x10023329C, symSize: 0x3C }
  - { offsetInCU: 0xC0EDB, offset: 0xC0EDB, size: 0x8, addend: 0x0, symName: '__ZNSt3__110destroy_atB8ue170006IN5Catch5clara6detail11BoundLambdaIZNS1_21makeCommandLineParserERNS1_10ConfigDataEE3$_4EELi0EEEvPT_', symObjAddr: 0x232F44, symBinAddr: 0x100234080, symSize: 0x24 }
  - { offsetInCU: 0xC0F15, offset: 0xC0F15, size: 0x8, addend: 0x0, symName: '__ZNSt3__112__destroy_atB8ue170006IN5Catch5clara6detail11BoundLambdaIZNS1_21makeCommandLineParserERNS1_10ConfigDataEE3$_4EELi0EEEvPT_', symObjAddr: 0x232F68, symBinAddr: 0x1002340A4, symSize: 0xA4 }
  - { offsetInCU: 0xC0F84, offset: 0xC0F84, size: 0x8, addend: 0x0, symName: '__ZNSt3__111make_sharedB8ue170006IN5Catch5clara6detail11BoundLambdaIZNS1_21makeCommandLineParserERNS1_10ConfigDataEE3$_5EEJRKS7_EvEENS_10shared_ptrIT_EEDpOT0_', symObjAddr: 0x2339E8, symBinAddr: 0x100234B24, symSize: 0x1E8 }
  - { offsetInCU: 0xC11EB, offset: 0xC11EB, size: 0x8, addend: 0x0, symName: '__ZNSt3__115allocate_sharedB8ue170006IN5Catch5clara6detail11BoundLambdaIZNS1_21makeCommandLineParserERNS1_10ConfigDataEE3$_5EENS_9allocatorIS8_EEJRKS7_EvEENS_10shared_ptrIT_EERKT0_DpOT1_', symObjAddr: 0x233C30, symBinAddr: 0x100234D6C, symSize: 0x300 }
  - { offsetInCU: 0xC15C3, offset: 0xC15C3, size: 0x8, addend: 0x0, symName: '__ZNSt3__112construct_atB8ue170006IN5Catch5clara6detail11BoundLambdaIZNS1_21makeCommandLineParserERNS1_10ConfigDataEE3$_5EEJRKS7_EPS8_EEPT_SD_DpOT0_', symObjAddr: 0x234F2C, symBinAddr: 0x100236068, symSize: 0x3C }
  - { offsetInCU: 0xC163B, offset: 0xC163B, size: 0x8, addend: 0x0, symName: __ZNSt3__19transformB8ue170006INS_11__wrap_iterIPcEES3_ZN5Catch5clara6detail11convertIntoERKNS_12basic_stringIcNS_11char_traitsIcEENS_9allocatorIcEEEERbEUlhE_EET0_T_SI_SH_T1_, symObjAddr: 0x236068, symBinAddr: 0x1002371A4, symSize: 0x464 }
  - { offsetInCU: 0xC16C3, offset: 0xC16C3, size: 0x8, addend: 0x0, symName: '__ZNSt3__110destroy_atB8ue170006IN5Catch5clara6detail11BoundLambdaIZNS1_21makeCommandLineParserERNS1_10ConfigDataEE3$_5EELi0EEEvPT_', symObjAddr: 0x2366C4, symBinAddr: 0x100237800, symSize: 0x24 }
  - { offsetInCU: 0xC16FD, offset: 0xC16FD, size: 0x8, addend: 0x0, symName: '__ZNSt3__112__destroy_atB8ue170006IN5Catch5clara6detail11BoundLambdaIZNS1_21makeCommandLineParserERNS1_10ConfigDataEE3$_5EELi0EEEvPT_', symObjAddr: 0x2366E8, symBinAddr: 0x100237824, symSize: 0xA4 }
  - { offsetInCU: 0xC176C, offset: 0xC176C, size: 0x8, addend: 0x0, symName: __ZNSt3__111make_sharedB8ue170006IN5Catch5clara6detail13BoundValueRefIdEEJRdEvEENS_10shared_ptrIT_EEDpOT0_, symObjAddr: 0x237168, symBinAddr: 0x1002382A4, symSize: 0x1E8 }
  - { offsetInCU: 0xC19D2, offset: 0xC19D2, size: 0x8, addend: 0x0, symName: __ZNSt3__115allocate_sharedB8ue170006IN5Catch5clara6detail13BoundValueRefIdEENS_9allocatorIS5_EEJRdEvEENS_10shared_ptrIT_EERKT0_DpOT1_, symObjAddr: 0x2373B0, symBinAddr: 0x1002384EC, symSize: 0x300 }
  - { offsetInCU: 0xC1DAA, offset: 0xC1DAA, size: 0x8, addend: 0x0, symName: __ZNSt3__112construct_atB8ue170006IN5Catch5clara6detail13BoundValueRefIdEEJRdEPS5_EEPT_S9_DpOT0_, symObjAddr: 0x2386AC, symBinAddr: 0x1002397E8, symSize: 0x3C }
  - { offsetInCU: 0xC1E22, offset: 0xC1E22, size: 0x8, addend: 0x0, symName: __ZNSt3__110destroy_atB8ue170006IN5Catch5clara6detail13BoundValueRefIdEELi0EEEvPT_, symObjAddr: 0x238FF8, symBinAddr: 0x10023A134, symSize: 0x24 }
  - { offsetInCU: 0xC1E5C, offset: 0xC1E5C, size: 0x8, addend: 0x0, symName: __ZNSt3__112__destroy_atB8ue170006IN5Catch5clara6detail13BoundValueRefIdEELi0EEEvPT_, symObjAddr: 0x23901C, symBinAddr: 0x10023A158, symSize: 0xA4 }
  - { offsetInCU: 0xC1ECB, offset: 0xC1ECB, size: 0x8, addend: 0x0, symName: '__ZNSt3__111make_sharedB8ue170006IN5Catch5clara6detail11BoundLambdaIZNS1_21makeCommandLineParserERNS1_10ConfigDataEE3$_6EEJRKS7_EvEENS_10shared_ptrIT_EEDpOT0_', symObjAddr: 0x239A9C, symBinAddr: 0x10023ABD8, symSize: 0x1E8 }
  - { offsetInCU: 0xC2132, offset: 0xC2132, size: 0x8, addend: 0x0, symName: '__ZNSt3__115allocate_sharedB8ue170006IN5Catch5clara6detail11BoundLambdaIZNS1_21makeCommandLineParserERNS1_10ConfigDataEE3$_6EENS_9allocatorIS8_EEJRKS7_EvEENS_10shared_ptrIT_EERKT0_DpOT1_', symObjAddr: 0x239CE4, symBinAddr: 0x10023AE20, symSize: 0x300 }
  - { offsetInCU: 0xC250A, offset: 0xC250A, size: 0x8, addend: 0x0, symName: '__ZNSt3__112construct_atB8ue170006IN5Catch5clara6detail11BoundLambdaIZNS1_21makeCommandLineParserERNS1_10ConfigDataEE3$_6EEJRKS7_EPS8_EEPT_SD_DpOT0_', symObjAddr: 0x23AFE0, symBinAddr: 0x10023C11C, symSize: 0x3C }
  - { offsetInCU: 0xC2722, offset: 0xC2722, size: 0x8, addend: 0x0, symName: __ZNSt3__17getlineB8ue170006IcNS_11char_traitsIcEENS_9allocatorIcEEEERNS_13basic_istreamIT_T0_EES9_RNS_12basic_stringIS6_S7_T1_EE, symObjAddr: 0x23C404, symBinAddr: 0x10023D540, symSize: 0xD8 }
  - { offsetInCU: 0xC2786, offset: 0xC2786, size: 0x8, addend: 0x0, symName: __ZNSt3__17getlineB8ue170006IcNS_11char_traitsIcEENS_9allocatorIcEEEERNS_13basic_istreamIT_T0_EES9_RNS_12basic_stringIS6_S7_T1_EES6_, symObjAddr: 0x23CEE8, symBinAddr: 0x10023E024, symSize: 0x688 }
  - { offsetInCU: 0xC2858, offset: 0xC2858, size: 0x8, addend: 0x0, symName: __ZNSt3__112construct_atB8ue170006INS_12basic_stringIcNS_11char_traitsIcEENS_9allocatorIcEEEEJRA2_KcEPS6_EEPT_SC_DpOT0_, symObjAddr: 0x23E180, symBinAddr: 0x10023F2BC, symSize: 0x3C }
  - { offsetInCU: 0xC28D0, offset: 0xC28D0, size: 0x8, addend: 0x0, symName: '__ZNSt3__110destroy_atB8ue170006IN5Catch5clara6detail11BoundLambdaIZNS1_21makeCommandLineParserERNS1_10ConfigDataEE3$_6EELi0EEEvPT_', symObjAddr: 0x23E9A0, symBinAddr: 0x10023FADC, symSize: 0x24 }
  - { offsetInCU: 0xC290A, offset: 0xC290A, size: 0x8, addend: 0x0, symName: '__ZNSt3__112__destroy_atB8ue170006IN5Catch5clara6detail11BoundLambdaIZNS1_21makeCommandLineParserERNS1_10ConfigDataEE3$_6EELi0EEEvPT_', symObjAddr: 0x23E9C4, symBinAddr: 0x10023FB00, symSize: 0xA4 }
  - { offsetInCU: 0xC2979, offset: 0xC2979, size: 0x8, addend: 0x0, symName: '__ZNSt3__111make_sharedB8ue170006IN5Catch5clara6detail11BoundLambdaIZNS1_21makeCommandLineParserERNS1_10ConfigDataEE3$_7EEJRKS7_EvEENS_10shared_ptrIT_EEDpOT0_', symObjAddr: 0x23F878, symBinAddr: 0x1002409B4, symSize: 0x1E8 }
  - { offsetInCU: 0xC2BE0, offset: 0xC2BE0, size: 0x8, addend: 0x0, symName: '__ZNSt3__115allocate_sharedB8ue170006IN5Catch5clara6detail11BoundLambdaIZNS1_21makeCommandLineParserERNS1_10ConfigDataEE3$_7EENS_9allocatorIS8_EEJRKS7_EvEENS_10shared_ptrIT_EERKT0_DpOT1_', symObjAddr: 0x23FAC0, symBinAddr: 0x100240BFC, symSize: 0x300 }
  - { offsetInCU: 0xC2FB8, offset: 0xC2FB8, size: 0x8, addend: 0x0, symName: '__ZNSt3__112construct_atB8ue170006IN5Catch5clara6detail11BoundLambdaIZNS1_21makeCommandLineParserERNS1_10ConfigDataEE3$_7EEJRKS7_EPS8_EEPT_SD_DpOT0_', symObjAddr: 0x240DBC, symBinAddr: 0x100241EF8, symSize: 0x3C }
  - { offsetInCU: 0xC3030, offset: 0xC3030, size: 0x8, addend: 0x0, symName: '__ZNSt3__110destroy_atB8ue170006IN5Catch5clara6detail11BoundLambdaIZNS1_21makeCommandLineParserERNS1_10ConfigDataEE3$_7EELi0EEEvPT_', symObjAddr: 0x241BE0, symBinAddr: 0x100242D1C, symSize: 0x24 }
  - { offsetInCU: 0xC306A, offset: 0xC306A, size: 0x8, addend: 0x0, symName: '__ZNSt3__112__destroy_atB8ue170006IN5Catch5clara6detail11BoundLambdaIZNS1_21makeCommandLineParserERNS1_10ConfigDataEE3$_7EELi0EEEvPT_', symObjAddr: 0x241C04, symBinAddr: 0x100242D40, symSize: 0xA4 }
  - { offsetInCU: 0xC30D9, offset: 0xC30D9, size: 0x8, addend: 0x0, symName: '__ZNSt3__111make_sharedB8ue170006IN5Catch5clara6detail11BoundLambdaIZNS1_21makeCommandLineParserERNS1_10ConfigDataEE3$_8EEJRKS7_EvEENS_10shared_ptrIT_EEDpOT0_', symObjAddr: 0x242684, symBinAddr: 0x1002437C0, symSize: 0x1E8 }
  - { offsetInCU: 0xC3340, offset: 0xC3340, size: 0x8, addend: 0x0, symName: '__ZNSt3__115allocate_sharedB8ue170006IN5Catch5clara6detail11BoundLambdaIZNS1_21makeCommandLineParserERNS1_10ConfigDataEE3$_8EENS_9allocatorIS8_EEJRKS7_EvEENS_10shared_ptrIT_EERKT0_DpOT1_', symObjAddr: 0x2428CC, symBinAddr: 0x100243A08, symSize: 0x300 }
  - { offsetInCU: 0xC3718, offset: 0xC3718, size: 0x8, addend: 0x0, symName: '__ZNSt3__112construct_atB8ue170006IN5Catch5clara6detail11BoundLambdaIZNS1_21makeCommandLineParserERNS1_10ConfigDataEE3$_8EEJRKS7_EPS8_EEPT_SD_DpOT0_', symObjAddr: 0x243BC8, symBinAddr: 0x100244D04, symSize: 0x3C }
  - { offsetInCU: 0xC3790, offset: 0xC3790, size: 0x8, addend: 0x0, symName: '__ZNSt3__110destroy_atB8ue170006IN5Catch5clara6detail11BoundLambdaIZNS1_21makeCommandLineParserERNS1_10ConfigDataEE3$_8EELi0EEEvPT_', symObjAddr: 0x244AC8, symBinAddr: 0x100245C04, symSize: 0x24 }
  - { offsetInCU: 0xC37CA, offset: 0xC37CA, size: 0x8, addend: 0x0, symName: '__ZNSt3__112__destroy_atB8ue170006IN5Catch5clara6detail11BoundLambdaIZNS1_21makeCommandLineParserERNS1_10ConfigDataEE3$_8EELi0EEEvPT_', symObjAddr: 0x244AEC, symBinAddr: 0x100245C28, symSize: 0xA4 }
  - { offsetInCU: 0xC3839, offset: 0xC3839, size: 0x8, addend: 0x0, symName: '__ZNSt3__111make_sharedB8ue170006IN5Catch5clara6detail11BoundLambdaIZNS1_21makeCommandLineParserERNS1_10ConfigDataEE3$_9EEJRKS7_EvEENS_10shared_ptrIT_EEDpOT0_', symObjAddr: 0x24556C, symBinAddr: 0x1002466A8, symSize: 0x1E8 }
  - { offsetInCU: 0xC3AA0, offset: 0xC3AA0, size: 0x8, addend: 0x0, symName: '__ZNSt3__115allocate_sharedB8ue170006IN5Catch5clara6detail11BoundLambdaIZNS1_21makeCommandLineParserERNS1_10ConfigDataEE3$_9EENS_9allocatorIS8_EEJRKS7_EvEENS_10shared_ptrIT_EERKT0_DpOT1_', symObjAddr: 0x2457B4, symBinAddr: 0x1002468F0, symSize: 0x300 }
  - { offsetInCU: 0xC3E78, offset: 0xC3E78, size: 0x8, addend: 0x0, symName: '__ZNSt3__112construct_atB8ue170006IN5Catch5clara6detail11BoundLambdaIZNS1_21makeCommandLineParserERNS1_10ConfigDataEE3$_9EEJRKS7_EPS8_EEPT_SD_DpOT0_', symObjAddr: 0x246AB0, symBinAddr: 0x100247BEC, symSize: 0x3C }
  - { offsetInCU: 0xC3EF0, offset: 0xC3EF0, size: 0x8, addend: 0x0, symName: '__ZNSt3__110destroy_atB8ue170006IN5Catch5clara6detail11BoundLambdaIZNS1_21makeCommandLineParserERNS1_10ConfigDataEE3$_9EELi0EEEvPT_', symObjAddr: 0x247AF8, symBinAddr: 0x100248C34, symSize: 0x24 }
  - { offsetInCU: 0xC3F2A, offset: 0xC3F2A, size: 0x8, addend: 0x0, symName: '__ZNSt3__112__destroy_atB8ue170006IN5Catch5clara6detail11BoundLambdaIZNS1_21makeCommandLineParserERNS1_10ConfigDataEE3$_9EELi0EEEvPT_', symObjAddr: 0x247B1C, symBinAddr: 0x100248C58, symSize: 0xA4 }
  - { offsetInCU: 0xC3F99, offset: 0xC3F99, size: 0x8, addend: 0x0, symName: '__ZNSt3__111make_sharedB8ue170006IN5Catch5clara6detail11BoundLambdaIZNS1_21makeCommandLineParserERNS1_10ConfigDataEE4$_10EEJRKS7_EvEENS_10shared_ptrIT_EEDpOT0_', symObjAddr: 0x24859C, symBinAddr: 0x1002496D8, symSize: 0x1E8 }
  - { offsetInCU: 0xC4200, offset: 0xC4200, size: 0x8, addend: 0x0, symName: '__ZNSt3__115allocate_sharedB8ue170006IN5Catch5clara6detail11BoundLambdaIZNS1_21makeCommandLineParserERNS1_10ConfigDataEE4$_10EENS_9allocatorIS8_EEJRKS7_EvEENS_10shared_ptrIT_EERKT0_DpOT1_', symObjAddr: 0x2487E4, symBinAddr: 0x100249920, symSize: 0x300 }
  - { offsetInCU: 0xC45D8, offset: 0xC45D8, size: 0x8, addend: 0x0, symName: '__ZNSt3__112construct_atB8ue170006IN5Catch5clara6detail11BoundLambdaIZNS1_21makeCommandLineParserERNS1_10ConfigDataEE4$_10EEJRKS7_EPS8_EEPT_SD_DpOT0_', symObjAddr: 0x249AE0, symBinAddr: 0x10024AC1C, symSize: 0x3C }
  - { offsetInCU: 0xC4650, offset: 0xC4650, size: 0x8, addend: 0x0, symName: '__ZNSt3__110destroy_atB8ue170006IN5Catch5clara6detail11BoundLambdaIZNS1_21makeCommandLineParserERNS1_10ConfigDataEE4$_10EELi0EEEvPT_', symObjAddr: 0x24A904, symBinAddr: 0x10024BA40, symSize: 0x24 }
  - { offsetInCU: 0xC468A, offset: 0xC468A, size: 0x8, addend: 0x0, symName: '__ZNSt3__112__destroy_atB8ue170006IN5Catch5clara6detail11BoundLambdaIZNS1_21makeCommandLineParserERNS1_10ConfigDataEE4$_10EELi0EEEvPT_', symObjAddr: 0x24A928, symBinAddr: 0x10024BA64, symSize: 0xA4 }
  - { offsetInCU: 0xC46F9, offset: 0xC46F9, size: 0x8, addend: 0x0, symName: '__ZNSt3__111make_sharedB8ue170006IN5Catch5clara6detail11BoundLambdaIZNS1_21makeCommandLineParserERNS1_10ConfigDataEE4$_11EEJRKS7_EvEENS_10shared_ptrIT_EEDpOT0_', symObjAddr: 0x24B3A8, symBinAddr: 0x10024C4E4, symSize: 0x1E8 }
  - { offsetInCU: 0xC4960, offset: 0xC4960, size: 0x8, addend: 0x0, symName: '__ZNSt3__115allocate_sharedB8ue170006IN5Catch5clara6detail11BoundLambdaIZNS1_21makeCommandLineParserERNS1_10ConfigDataEE4$_11EENS_9allocatorIS8_EEJRKS7_EvEENS_10shared_ptrIT_EERKT0_DpOT1_', symObjAddr: 0x24B5F0, symBinAddr: 0x10024C72C, symSize: 0x300 }
  - { offsetInCU: 0xC4D38, offset: 0xC4D38, size: 0x8, addend: 0x0, symName: '__ZNSt3__112construct_atB8ue170006IN5Catch5clara6detail11BoundLambdaIZNS1_21makeCommandLineParserERNS1_10ConfigDataEE4$_11EEJRKS7_EPS8_EEPT_SD_DpOT0_', symObjAddr: 0x24C8EC, symBinAddr: 0x10024DA28, symSize: 0x3C }
  - { offsetInCU: 0xC4DB0, offset: 0xC4DB0, size: 0x8, addend: 0x0, symName: '__ZNSt3__110destroy_atB8ue170006IN5Catch5clara6detail11BoundLambdaIZNS1_21makeCommandLineParserERNS1_10ConfigDataEE4$_11EELi0EEEvPT_', symObjAddr: 0x24D7D0, symBinAddr: 0x10024E90C, symSize: 0x24 }
  - { offsetInCU: 0xC4DEA, offset: 0xC4DEA, size: 0x8, addend: 0x0, symName: '__ZNSt3__112__destroy_atB8ue170006IN5Catch5clara6detail11BoundLambdaIZNS1_21makeCommandLineParserERNS1_10ConfigDataEE4$_11EELi0EEEvPT_', symObjAddr: 0x24D7F4, symBinAddr: 0x10024E930, symSize: 0xA4 }
  - { offsetInCU: 0xC4E59, offset: 0xC4E59, size: 0x8, addend: 0x0, symName: __ZNSt3__111make_sharedB8ue170006IN5Catch5clara6detail13BoundValueRefIjEEJRjEvEENS_10shared_ptrIT_EEDpOT0_, symObjAddr: 0x24E274, symBinAddr: 0x10024F3B0, symSize: 0x1E8 }
  - { offsetInCU: 0xC50BF, offset: 0xC50BF, size: 0x8, addend: 0x0, symName: __ZNSt3__115allocate_sharedB8ue170006IN5Catch5clara6detail13BoundValueRefIjEENS_9allocatorIS5_EEJRjEvEENS_10shared_ptrIT_EERKT0_DpOT1_, symObjAddr: 0x24E4BC, symBinAddr: 0x10024F5F8, symSize: 0x300 }
  - { offsetInCU: 0xC5497, offset: 0xC5497, size: 0x8, addend: 0x0, symName: __ZNSt3__112construct_atB8ue170006IN5Catch5clara6detail13BoundValueRefIjEEJRjEPS5_EEPT_S9_DpOT0_, symObjAddr: 0x24F7B8, symBinAddr: 0x1002508F4, symSize: 0x3C }
  - { offsetInCU: 0xC550F, offset: 0xC550F, size: 0x8, addend: 0x0, symName: __ZNSt3__110destroy_atB8ue170006IN5Catch5clara6detail13BoundValueRefIjEELi0EEEvPT_, symObjAddr: 0x24FAE0, symBinAddr: 0x100250C1C, symSize: 0x24 }
  - { offsetInCU: 0xC5549, offset: 0xC5549, size: 0x8, addend: 0x0, symName: __ZNSt3__112__destroy_atB8ue170006IN5Catch5clara6detail13BoundValueRefIjEELi0EEEvPT_, symObjAddr: 0x24FB04, symBinAddr: 0x100250C40, symSize: 0xA4 }
  - { offsetInCU: 0xC55B8, offset: 0xC55B8, size: 0x8, addend: 0x0, symName: __ZNSt3__111make_sharedB8ue170006IN5Catch5clara6detail13BoundValueRefIxEEJRxEvEENS_10shared_ptrIT_EEDpOT0_, symObjAddr: 0x250584, symBinAddr: 0x1002516C0, symSize: 0x1E8 }
  - { offsetInCU: 0xC581E, offset: 0xC581E, size: 0x8, addend: 0x0, symName: __ZNSt3__115allocate_sharedB8ue170006IN5Catch5clara6detail13BoundValueRefIxEENS_9allocatorIS5_EEJRxEvEENS_10shared_ptrIT_EERKT0_DpOT1_, symObjAddr: 0x2507CC, symBinAddr: 0x100251908, symSize: 0x300 }
  - { offsetInCU: 0xC5BF6, offset: 0xC5BF6, size: 0x8, addend: 0x0, symName: __ZNSt3__112construct_atB8ue170006IN5Catch5clara6detail13BoundValueRefIxEEJRxEPS5_EEPT_S9_DpOT0_, symObjAddr: 0x251AC8, symBinAddr: 0x100252C04, symSize: 0x3C }
  - { offsetInCU: 0xC5C6E, offset: 0xC5C6E, size: 0x8, addend: 0x0, symName: __ZNSt3__110destroy_atB8ue170006IN5Catch5clara6detail13BoundValueRefIxEELi0EEEvPT_, symObjAddr: 0x252414, symBinAddr: 0x100253550, symSize: 0x24 }
  - { offsetInCU: 0xC5CA8, offset: 0xC5CA8, size: 0x8, addend: 0x0, symName: __ZNSt3__112__destroy_atB8ue170006IN5Catch5clara6detail13BoundValueRefIxEELi0EEEvPT_, symObjAddr: 0x252438, symBinAddr: 0x100253574, symSize: 0xA4 }
  - { offsetInCU: 0xC5D18, offset: 0xC5D18, size: 0x8, addend: 0x0, symName: __ZNSt3__112construct_atB8ue170006IN5Catch5clara6detail3ArgEJRKS4_EPS4_EEPT_S9_DpOT0_, symObjAddr: 0x2532F8, symBinAddr: 0x100254434, symSize: 0x3C }
  - { offsetInCU: 0xC5D8F, offset: 0xC5D8F, size: 0x8, addend: 0x0, symName: __ZNSt3__142__uninitialized_allocator_move_if_noexceptB8ue170006INS_9allocatorIN5Catch5clara6detail3ArgEEENS_16reverse_iteratorIPS5_EES9_S9_EET2_RT_T0_T1_SA_, symObjAddr: 0x254030, symBinAddr: 0x10025516C, symSize: 0x53C }
  - { offsetInCU: 0xC5E45, offset: 0xC5E45, size: 0x8, addend: 0x0, symName: __ZNSt3__14swapB8ue170006IPN5Catch5clara6detail3ArgEEENS_9enable_ifIXaasr21is_move_constructibleIT_EE5valuesr18is_move_assignableIS7_EE5valueEvE4typeERS7_SA_, symObjAddr: 0x25456C, symBinAddr: 0x1002556A8, symSize: 0x134 }
  - { offsetInCU: 0xC5E9A, offset: 0xC5E9A, size: 0x8, addend: 0x0, symName: __ZNSt3__122__make_exception_guardB8ue170006INS_29_AllocatorDestroyRangeReverseINS_9allocatorIN5Catch5clara6detail3ArgEEENS_16reverse_iteratorIPS6_EEEEEENS_28__exception_guard_exceptionsIT_EESD_, symObjAddr: 0x2546A0, symBinAddr: 0x1002557DC, symSize: 0x1F8 }
  - { offsetInCU: 0xC5ED3, offset: 0xC5ED3, size: 0x8, addend: 0x0, symName: __ZNSt3__112construct_atB8ue170006IN5Catch5clara6detail3ArgEJS4_EPS4_EEPT_S7_DpOT0_, symObjAddr: 0x254C14, symBinAddr: 0x100255D50, symSize: 0x3C }
  - { offsetInCU: 0xC5F4A, offset: 0xC5F4A, size: 0x8, addend: 0x0, symName: __ZNSt3__119__allocator_destroyB8ue170006INS_9allocatorIN5Catch5clara6detail3ArgEEENS_16reverse_iteratorINS7_IPS5_EEEESA_EEvRT_T0_T1_, symObjAddr: 0x2553A0, symBinAddr: 0x1002564DC, symSize: 0x70 }
  - { offsetInCU: 0xC5FB0, offset: 0xC5FB0, size: 0x8, addend: 0x0, symName: __ZNSt3__1neB8ue170006INS_16reverse_iteratorIPN5Catch5clara6detail3ArgEEES7_EEbRKNS1_IT_EERKNS1_IT0_EE, symObjAddr: 0x255658, symBinAddr: 0x100256794, symSize: 0x2CC }
  - { offsetInCU: 0xC6001, offset: 0xC6001, size: 0x8, addend: 0x0, symName: __ZNSt3__112__to_addressB8ue170006INS_16reverse_iteratorINS1_IPN5Catch5clara6detail3ArgEEEEEvEEu7__decayIDTclsr19__to_address_helperIT_EE6__callclsr3stdE7declvalIRKS9_EEEEESB_, symObjAddr: 0x255924, symBinAddr: 0x100256A60, symSize: 0x24 }
  - { offsetInCU: 0xC6064, offset: 0xC6064, size: 0x8, addend: 0x0, symName: __ZNSt3__14prevB8ue170006INS_16reverse_iteratorIPN5Catch5clara6detail3ArgEEEEENS_9enable_ifIXsr29__has_input_iterator_categoryIT_EE5valueES9_E4typeES9_NS_15iterator_traitsIS9_E15difference_typeE, symObjAddr: 0x255E68, symBinAddr: 0x100256FA4, symSize: 0x294 }
  - { offsetInCU: 0xC60AF, offset: 0xC60AF, size: 0x8, addend: 0x0, symName: __ZNSt3__19__advanceB8ue170006INS_16reverse_iteratorIPN5Catch5clara6detail3ArgEEEEEvRT_NS_15iterator_traitsIS8_E15difference_typeENS_26random_access_iterator_tagE, symObjAddr: 0x256134, symBinAddr: 0x100257270, symSize: 0x2C }
  - { offsetInCU: 0xC6142, offset: 0xC6142, size: 0x8, addend: 0x0, symName: __ZNSt3__1eqB8ue170006ERKNS_21__tree_const_iteratorINS_12basic_stringIcNS_11char_traitsIcEENS_9allocatorIcEEEEPNS_11__tree_nodeIS6_PvEElEESD_, symObjAddr: 0x25AF00, symBinAddr: 0x10025C03C, symSize: 0xB8 }
  - { offsetInCU: 0xC6180, offset: 0xC6180, size: 0x8, addend: 0x0, symName: __ZNSt3__110destroy_atB8ue170006INS_4pairIKNS_12basic_stringIcNS_11char_traitsIcEENS_9allocatorIcEEEEN5Catch7TagInfoEEELi0EEEvPT_, symObjAddr: 0x25BA18, symBinAddr: 0x10025CB54, symSize: 0x24 }
  - { offsetInCU: 0xC61BA, offset: 0xC61BA, size: 0x8, addend: 0x0, symName: __ZNSt3__112__destroy_atB8ue170006INS_4pairIKNS_12basic_stringIcNS_11char_traitsIcEENS_9allocatorIcEEEEN5Catch7TagInfoEEELi0EEEvPT_, symObjAddr: 0x25BA3C, symBinAddr: 0x10025CB78, symSize: 0x24 }
  - { offsetInCU: 0xC61F3, offset: 0xC61F3, size: 0x8, addend: 0x0, symName: __ZNSt3__17launderB8ue170006INS_4pairIKNS_12basic_stringIcNS_11char_traitsIcEENS_9allocatorIcEEEEN5Catch7TagInfoEEEEEPT_SD_, symObjAddr: 0x25BAE8, symBinAddr: 0x10025CC24, symSize: 0x24 }
  - { offsetInCU: 0xC622A, offset: 0xC622A, size: 0x8, addend: 0x0, symName: __ZNSt3__19__launderB8ue170006INS_4pairIKNS_12basic_stringIcNS_11char_traitsIcEENS_9allocatorIcEEEEN5Catch7TagInfoEEEEEPT_SD_, symObjAddr: 0x25BB0C, symBinAddr: 0x10025CC48, symSize: 0x14 }
  - { offsetInCU: 0xC6261, offset: 0xC6261, size: 0x8, addend: 0x0, symName: __ZNSt3__1neB8ue170006ERKNS_15__tree_iteratorINS_12__value_typeINS_12basic_stringIcNS_11char_traitsIcEENS_9allocatorIcEEEEN5Catch7TagInfoEEEPNS_11__tree_nodeISA_PvEElEESH_, symObjAddr: 0x25C4D4, symBinAddr: 0x10025D610, symSize: 0x34 }
  - { offsetInCU: 0xC629E, offset: 0xC629E, size: 0x8, addend: 0x0, symName: __ZNSt3__17launderB8ue170006IKNS_4pairIKNS_12basic_stringIcNS_11char_traitsIcEENS_9allocatorIcEEEEN5Catch7TagInfoEEEEEPT_SE_, symObjAddr: 0x25C84C, symBinAddr: 0x10025D988, symSize: 0x24 }
  - { offsetInCU: 0xC62D5, offset: 0xC62D5, size: 0x8, addend: 0x0, symName: __ZNSt3__19__launderB8ue170006IKNS_4pairIKNS_12basic_stringIcNS_11char_traitsIcEENS_9allocatorIcEEEEN5Catch7TagInfoEEEEEPT_SE_, symObjAddr: 0x25C870, symBinAddr: 0x10025D9AC, symSize: 0x14 }
  - { offsetInCU: 0xC630C, offset: 0xC630C, size: 0x8, addend: 0x0, symName: __ZNSt3__1eqB8ue170006ERKNS_15__tree_iteratorINS_12__value_typeINS_12basic_stringIcNS_11char_traitsIcEENS_9allocatorIcEEEEN5Catch7TagInfoEEEPNS_11__tree_nodeISA_PvEElEESH_, symObjAddr: 0x25C8F4, symBinAddr: 0x10025DA30, symSize: 0xB8 }
  - { offsetInCU: 0xC639B, offset: 0xC639B, size: 0x8, addend: 0x0, symName: __ZNSt3__112construct_atB8ue170006INS_4pairIKNS_12basic_stringIcNS_11char_traitsIcEENS_9allocatorIcEEEEN5Catch7TagInfoEEEJNS1_IS7_SA_EEEPSB_EEPT_SF_DpOT0_, symObjAddr: 0x25EB64, symBinAddr: 0x10025FCA0, symSize: 0x3C }
  - { offsetInCU: 0xC64B4, offset: 0xC64B4, size: 0x8, addend: 0x0, symName: __ZNSt3__110scientificB8ue170006ERNS_8ios_baseE, symObjAddr: 0x260780, symBinAddr: 0x1002618BC, symSize: 0x30 }
  - { offsetInCU: 0xC64E3, offset: 0xC64E3, size: 0x8, addend: 0x0, symName: __ZNSt3__19use_facetB8ue170006INS_7collateIcEEEERKT_RKNS_6localeE, symObjAddr: 0x261394, symBinAddr: 0x1002624D0, symSize: 0x2C }
  - { offsetInCU: 0xC6519, offset: 0xC6519, size: 0x8, addend: 0x0, symName: __ZNSt3__119__throw_regex_errorB8ue170006ILNS_15regex_constants10error_typeE17EEEvv, symObjAddr: 0x2620CC, symBinAddr: 0x100263208, symSize: 0x64 }
  - { offsetInCU: 0xC69D0, offset: 0xC69D0, size: 0x8, addend: 0x0, symName: __ZNSt3__119__throw_regex_errorB8ue170006ILNS_15regex_constants10error_typeE14EEEvv, symObjAddr: 0x264E04, symBinAddr: 0x100265F40, symSize: 0x64 }
  - { offsetInCU: 0xC7483, offset: 0xC7483, size: 0x8, addend: 0x0, symName: __ZNSt3__14swapB8ue170006IPNS_13__empty_stateIcEEEENS_9enable_ifIXaasr21is_move_constructibleIT_EE5valuesr18is_move_assignableIS5_EE5valueEvE4typeERS5_S8_, symObjAddr: 0x266CF4, symBinAddr: 0x100267E30, symSize: 0x134 }
  - { offsetInCU: 0xC74D8, offset: 0xC74D8, size: 0x8, addend: 0x0, symName: __ZNSt3__14nextB8ue170006INS_11__wrap_iterIPKcEEEENS_9enable_ifIXsr29__has_input_iterator_categoryIT_EE5valueES6_E4typeES6_NS_15iterator_traitsIS6_E15difference_typeE, symObjAddr: 0x26C420, symBinAddr: 0x10026D55C, symSize: 0x288 }
  - { offsetInCU: 0xC7522, offset: 0xC7522, size: 0x8, addend: 0x0, symName: __ZNSt3__119__throw_regex_errorB8ue170006ILNS_15regex_constants10error_typeE6EEEvv, symObjAddr: 0x26CB68, symBinAddr: 0x10026DCA4, symSize: 0x64 }
  - { offsetInCU: 0xC75CE, offset: 0xC75CE, size: 0x8, addend: 0x0, symName: __ZNSt3__18__is_eolB8ue170006IcEEbT_, symObjAddr: 0x26D480, symBinAddr: 0x10026E5BC, symSize: 0x48 }
  - { offsetInCU: 0xC7606, offset: 0xC7606, size: 0x8, addend: 0x0, symName: __ZNSt3__14prevB8ue170006IPKcEENS_9enable_ifIXsr29__has_input_iterator_categoryIT_EE5valueES4_E4typeES4_NS_15iterator_traitsIS4_E15difference_typeE, symObjAddr: 0x26D4C8, symBinAddr: 0x10026E604, symSize: 0x240 }
  - { offsetInCU: 0xC7651, offset: 0xC7651, size: 0x8, addend: 0x0, symName: __ZNSt3__19__advanceB8ue170006IPKcEEvRT_NS_15iterator_traitsIS3_E15difference_typeENS_26random_access_iterator_tagE, symObjAddr: 0x26D740, symBinAddr: 0x10026E87C, symSize: 0x78 }
  - { offsetInCU: 0xC7724, offset: 0xC7724, size: 0x8, addend: 0x0, symName: __ZNSt3__19__advanceB8ue170006INS_11__wrap_iterIPKcEEEEvRT_NS_15iterator_traitsIS5_E15difference_typeENS_26random_access_iterator_tagE, symObjAddr: 0x26DE54, symBinAddr: 0x10026EF90, symSize: 0x2C }
  - { offsetInCU: 0xC7BDA, offset: 0xC7BDA, size: 0x8, addend: 0x0, symName: __ZNSt3__112__to_addressB8ue170006INS_9sub_matchIPKcEEEEPT_S6_, symObjAddr: 0x272694, symBinAddr: 0x1002737D0, symSize: 0x14 }
  - { offsetInCU: 0xC7C11, offset: 0xC7C11, size: 0x8, addend: 0x0, symName: __ZNSt3__110destroy_atB8ue170006INS_9sub_matchIPKcEELi0EEEvPT_, symObjAddr: 0x2726A8, symBinAddr: 0x1002737E4, symSize: 0x24 }
  - { offsetInCU: 0xC7C4B, offset: 0xC7C4B, size: 0x8, addend: 0x0, symName: __ZNSt3__112__destroy_atB8ue170006INS_9sub_matchIPKcEELi0EEEvPT_, symObjAddr: 0x2726CC, symBinAddr: 0x100273808, symSize: 0x10 }
  - { offsetInCU: 0xC7C85, offset: 0xC7C85, size: 0x8, addend: 0x0, symName: __ZNSt3__16fill_nB8ue170006IPNS_9sub_matchIPKcEEmS4_EET_S6_T0_RKT1_, symObjAddr: 0x272EE4, symBinAddr: 0x100274020, symSize: 0x44 }
  - { offsetInCU: 0xC7CEC, offset: 0xC7CEC, size: 0x8, addend: 0x0, symName: __ZNSt3__18__fill_nB8ue170006IPNS_9sub_matchIPKcEEmS4_EET_S6_T0_RKT1_, symObjAddr: 0x273CA0, symBinAddr: 0x100274DDC, symSize: 0x6C }
  - { offsetInCU: 0xC7D7A, offset: 0xC7D7A, size: 0x8, addend: 0x0, symName: __ZNSt3__112construct_atB8ue170006INS_9sub_matchIPKcEEJRKS4_EPS4_EEPT_S9_DpOT0_, symObjAddr: 0x274074, symBinAddr: 0x1002751B0, symSize: 0x40 }
  - { offsetInCU: 0xC7DF2, offset: 0xC7DF2, size: 0x8, addend: 0x0, symName: __ZNSt3__119__allocate_at_leastB8ue170006INS_9allocatorINS_9sub_matchIPKcEEEEEENS_19__allocation_resultINS_16allocator_traitsIT_E7pointerEEERS9_m, symObjAddr: 0x2747D0, symBinAddr: 0x10027590C, symSize: 0x28C }
  - { offsetInCU: 0xC7E39, offset: 0xC7E39, size: 0x8, addend: 0x0, symName: __ZNSt3__119__throw_regex_errorB8ue170006ILNS_15regex_constants10error_typeE12EEEvv, symObjAddr: 0x275030, symBinAddr: 0x10027616C, symSize: 0x64 }
  - { offsetInCU: 0xC7E60, offset: 0xC7E60, size: 0x8, addend: 0x0, symName: __ZNSt3__14nextB8ue170006IPKcEENS_9enable_ifIXsr29__has_input_iterator_categoryIT_EE5valueES4_E4typeES4_NS_15iterator_traitsIS4_E15difference_typeE, symObjAddr: 0x275100, symBinAddr: 0x10027623C, symSize: 0x238 }
  - { offsetInCU: 0xC7EAA, offset: 0xC7EAA, size: 0x8, addend: 0x0, symName: __ZNSt3__119__throw_regex_errorB8ue170006ILNS_15regex_constants10error_typeE16EEEvv, symObjAddr: 0x27536C, symBinAddr: 0x1002764A8, symSize: 0x64 }
  - { offsetInCU: 0xC7ED1, offset: 0xC7ED1, size: 0x8, addend: 0x0, symName: __ZNSt3__112__to_addressB8ue170006INS_7__stateIcEEEEPT_S4_, symObjAddr: 0x276100, symBinAddr: 0x10027723C, symSize: 0x14 }
  - { offsetInCU: 0xC7F2F, offset: 0xC7F2F, size: 0x8, addend: 0x0, symName: __ZNSt3__112construct_atB8ue170006INS_7__stateIcEEJS2_EPS2_EEPT_S5_DpOT0_, symObjAddr: 0x276698, symBinAddr: 0x1002777D4, symSize: 0x3C }
  - { offsetInCU: 0xC7FA7, offset: 0xC7FA7, size: 0x8, addend: 0x0, symName: __ZNSt3__119__allocate_at_leastB8ue170006INS_9allocatorINS_7__stateIcEEEEEENS_19__allocation_resultINS_16allocator_traitsIT_E7pointerEEERS7_m, symObjAddr: 0x278A28, symBinAddr: 0x100279B64, symSize: 0x28C }
  - { offsetInCU: 0xC7FEE, offset: 0xC7FEE, size: 0x8, addend: 0x0, symName: __ZNSt3__142__uninitialized_allocator_move_if_noexceptB8ue170006INS_9allocatorINS_7__stateIcEEEENS_16reverse_iteratorIPS3_EES7_S7_EET2_RT_T0_T1_S8_, symObjAddr: 0x278FB0, symBinAddr: 0x10027A0EC, symSize: 0x544 }
  - { offsetInCU: 0xC80A4, offset: 0xC80A4, size: 0x8, addend: 0x0, symName: __ZNSt3__14swapB8ue170006IPNS_7__stateIcEEEENS_9enable_ifIXaasr21is_move_constructibleIT_EE5valuesr18is_move_assignableIS5_EE5valueEvE4typeERS5_S8_, symObjAddr: 0x27958C, symBinAddr: 0x10027A6C8, symSize: 0x134 }
  - { offsetInCU: 0xC80F9, offset: 0xC80F9, size: 0x8, addend: 0x0, symName: __ZNSt3__122__make_exception_guardB8ue170006INS_29_AllocatorDestroyRangeReverseINS_9allocatorINS_7__stateIcEEEENS_16reverse_iteratorIPS4_EEEEEENS_28__exception_guard_exceptionsIT_EESB_, symObjAddr: 0x27979C, symBinAddr: 0x10027A8D8, symSize: 0x1F8 }
  - { offsetInCU: 0xC8132, offset: 0xC8132, size: 0x8, addend: 0x0, symName: __ZNSt3__1neB8ue170006IPNS_7__stateIcEES3_EEbRKNS_16reverse_iteratorIT_EERKNS4_IT0_EE, symObjAddr: 0x2799D8, symBinAddr: 0x10027AB14, symSize: 0x48 }
  - { offsetInCU: 0xC8181, offset: 0xC8181, size: 0x8, addend: 0x0, symName: __ZNSt3__112__to_addressB8ue170006INS_16reverse_iteratorIPNS_7__stateIcEEEEvEEu7__decayIDTclsr19__to_address_helperIT_EE6__callclsr3stdE7declvalIRKS6_EEEEES8_, symObjAddr: 0x279A20, symBinAddr: 0x10027AB5C, symSize: 0x24 }
  - { offsetInCU: 0xC81E4, offset: 0xC81E4, size: 0x8, addend: 0x0, symName: __ZNSt3__14prevB8ue170006IPNS_7__stateIcEEEENS_9enable_ifIXsr29__has_input_iterator_categoryIT_EE5valueES5_E4typeES5_NS_15iterator_traitsIS5_E15difference_typeE, symObjAddr: 0x279E68, symBinAddr: 0x10027AFA4, symSize: 0x240 }
  - { offsetInCU: 0xC822F, offset: 0xC822F, size: 0x8, addend: 0x0, symName: __ZNSt3__19__advanceB8ue170006IPNS_7__stateIcEEEEvRT_NS_15iterator_traitsIS4_E15difference_typeENS_26random_access_iterator_tagE, symObjAddr: 0x27A0E0, symBinAddr: 0x10027B21C, symSize: 0x80 }
  - { offsetInCU: 0xC827B, offset: 0xC827B, size: 0x8, addend: 0x0, symName: __ZNSt3__119__allocator_destroyB8ue170006INS_9allocatorINS_7__stateIcEEEENS_16reverse_iteratorINS5_IPS3_EEEES8_EEvRT_T0_T1_, symObjAddr: 0x27A5C4, symBinAddr: 0x10027B700, symSize: 0x70 }
  - { offsetInCU: 0xC82E1, offset: 0xC82E1, size: 0x8, addend: 0x0, symName: __ZNSt3__1neB8ue170006INS_16reverse_iteratorIPNS_7__stateIcEEEES5_EEbRKNS1_IT_EERKNS1_IT0_EE, symObjAddr: 0x27A87C, symBinAddr: 0x10027B9B8, symSize: 0x2CC }
  - { offsetInCU: 0xC8332, offset: 0xC8332, size: 0x8, addend: 0x0, symName: __ZNSt3__112__to_addressB8ue170006INS_16reverse_iteratorINS1_IPNS_7__stateIcEEEEEEvEEu7__decayIDTclsr19__to_address_helperIT_EE6__callclsr3stdE7declvalIRKS7_EEEEES9_, symObjAddr: 0x27AB70, symBinAddr: 0x10027BCAC, symSize: 0x24 }
  - { offsetInCU: 0xC836A, offset: 0xC836A, size: 0x8, addend: 0x0, symName: __ZNSt3__110destroy_atB8ue170006INS_7__stateIcEELi0EEEvPT_, symObjAddr: 0x27ADD0, symBinAddr: 0x10027BF0C, symSize: 0x24 }
  - { offsetInCU: 0xC83A4, offset: 0xC83A4, size: 0x8, addend: 0x0, symName: __ZNSt3__112__destroy_atB8ue170006INS_7__stateIcEELi0EEEvPT_, symObjAddr: 0x27ADF4, symBinAddr: 0x10027BF30, symSize: 0x24 }
  - { offsetInCU: 0xC8409, offset: 0xC8409, size: 0x8, addend: 0x0, symName: __ZNSt3__14prevB8ue170006INS_16reverse_iteratorIPNS_7__stateIcEEEEEENS_9enable_ifIXsr29__has_input_iterator_categoryIT_EE5valueES7_E4typeES7_NS_15iterator_traitsIS7_E15difference_typeE, symObjAddr: 0x27B0FC, symBinAddr: 0x10027C238, symSize: 0x294 }
  - { offsetInCU: 0xC8454, offset: 0xC8454, size: 0x8, addend: 0x0, symName: __ZNSt3__19__advanceB8ue170006INS_16reverse_iteratorIPNS_7__stateIcEEEEEEvRT_NS_15iterator_traitsIS6_E15difference_typeENS_26random_access_iterator_tagE, symObjAddr: 0x27B3C8, symBinAddr: 0x10027C504, symSize: 0x2C }
  - { offsetInCU: 0xC84A1, offset: 0xC84A1, size: 0x8, addend: 0x0, symName: __ZNSt3__112__to_addressB8ue170006INS_4pairImPKcEEEEPT_S6_, symObjAddr: 0x27CE1C, symBinAddr: 0x10027DF58, symSize: 0x14 }
  - { offsetInCU: 0xC84D8, offset: 0xC84D8, size: 0x8, addend: 0x0, symName: __ZNSt3__110destroy_atB8ue170006INS_4pairImPKcEELi0EEEvPT_, symObjAddr: 0x27CE30, symBinAddr: 0x10027DF6C, symSize: 0x24 }
  - { offsetInCU: 0xC8512, offset: 0xC8512, size: 0x8, addend: 0x0, symName: __ZNSt3__112__destroy_atB8ue170006INS_4pairImPKcEELi0EEEvPT_, symObjAddr: 0x27CE54, symBinAddr: 0x10027DF90, symSize: 0x10 }
  - { offsetInCU: 0xC854B, offset: 0xC854B, size: 0x8, addend: 0x0, symName: __ZNSt3__142__uninitialized_allocator_move_if_noexceptB8ue170006INS_9allocatorINS_9sub_matchIPKcEEEENS_16reverse_iteratorIPS5_EES9_S9_EET2_RT_T0_T1_SA_, symObjAddr: 0x27E84C, symBinAddr: 0x10027F988, symSize: 0x544 }
  - { offsetInCU: 0xC8601, offset: 0xC8601, size: 0x8, addend: 0x0, symName: __ZNSt3__14swapB8ue170006IPNS_9sub_matchIPKcEEEENS_9enable_ifIXaasr21is_move_constructibleIT_EE5valuesr18is_move_assignableIS7_EE5valueEvE4typeERS7_SA_, symObjAddr: 0x27EE28, symBinAddr: 0x10027FF64, symSize: 0x134 }
  - { offsetInCU: 0xC8656, offset: 0xC8656, size: 0x8, addend: 0x0, symName: __ZNSt3__122__make_exception_guardB8ue170006INS_29_AllocatorDestroyRangeReverseINS_9allocatorINS_9sub_matchIPKcEEEENS_16reverse_iteratorIPS6_EEEEEENS_28__exception_guard_exceptionsIT_EESD_, symObjAddr: 0x27EF5C, symBinAddr: 0x100280098, symSize: 0x1F8 }
  - { offsetInCU: 0xC868F, offset: 0xC868F, size: 0x8, addend: 0x0, symName: __ZNSt3__1neB8ue170006IPNS_9sub_matchIPKcEES5_EEbRKNS_16reverse_iteratorIT_EERKNS6_IT0_EE, symObjAddr: 0x27F198, symBinAddr: 0x1002802D4, symSize: 0x48 }
  - { offsetInCU: 0xC86DE, offset: 0xC86DE, size: 0x8, addend: 0x0, symName: __ZNSt3__112__to_addressB8ue170006INS_16reverse_iteratorIPNS_9sub_matchIPKcEEEEvEEu7__decayIDTclsr19__to_address_helperIT_EE6__callclsr3stdE7declvalIRKS8_EEEEESA_, symObjAddr: 0x27F210, symBinAddr: 0x10028034C, symSize: 0x24 }
  - { offsetInCU: 0xC8716, offset: 0xC8716, size: 0x8, addend: 0x0, symName: __ZNSt3__112construct_atB8ue170006INS_9sub_matchIPKcEEJS4_EPS4_EEPT_S7_DpOT0_, symObjAddr: 0x27F5A8, symBinAddr: 0x1002806E4, symSize: 0x40 }
  - { offsetInCU: 0xC87B9, offset: 0xC87B9, size: 0x8, addend: 0x0, symName: __ZNSt3__14prevB8ue170006IPNS_9sub_matchIPKcEEEENS_9enable_ifIXsr29__has_input_iterator_categoryIT_EE5valueES7_E4typeES7_NS_15iterator_traitsIS7_E15difference_typeE, symObjAddr: 0x27F698, symBinAddr: 0x1002807D4, symSize: 0x240 }
  - { offsetInCU: 0xC8804, offset: 0xC8804, size: 0x8, addend: 0x0, symName: __ZNSt3__19__advanceB8ue170006IPNS_9sub_matchIPKcEEEEvRT_NS_15iterator_traitsIS6_E15difference_typeENS_26random_access_iterator_tagE, symObjAddr: 0x27F910, symBinAddr: 0x100280A4C, symSize: 0x80 }
  - { offsetInCU: 0xC8850, offset: 0xC8850, size: 0x8, addend: 0x0, symName: __ZNSt3__119__allocator_destroyB8ue170006INS_9allocatorINS_9sub_matchIPKcEEEENS_16reverse_iteratorINS7_IPS5_EEEESA_EEvRT_T0_T1_, symObjAddr: 0x27FDF4, symBinAddr: 0x100280F30, symSize: 0x70 }
  - { offsetInCU: 0xC88B6, offset: 0xC88B6, size: 0x8, addend: 0x0, symName: __ZNSt3__1neB8ue170006INS_16reverse_iteratorIPNS_9sub_matchIPKcEEEES7_EEbRKNS1_IT_EERKNS1_IT0_EE, symObjAddr: 0x2800AC, symBinAddr: 0x1002811E8, symSize: 0x2CC }
  - { offsetInCU: 0xC8907, offset: 0xC8907, size: 0x8, addend: 0x0, symName: __ZNSt3__112__to_addressB8ue170006INS_16reverse_iteratorINS1_IPNS_9sub_matchIPKcEEEEEEvEEu7__decayIDTclsr19__to_address_helperIT_EE6__callclsr3stdE7declvalIRKS9_EEEEESB_, symObjAddr: 0x280378, symBinAddr: 0x1002814B4, symSize: 0x24 }
  - { offsetInCU: 0xC896A, offset: 0xC896A, size: 0x8, addend: 0x0, symName: __ZNSt3__14prevB8ue170006INS_16reverse_iteratorIPNS_9sub_matchIPKcEEEEEENS_9enable_ifIXsr29__has_input_iterator_categoryIT_EE5valueES9_E4typeES9_NS_15iterator_traitsIS9_E15difference_typeE, symObjAddr: 0x2808BC, symBinAddr: 0x1002819F8, symSize: 0x294 }
  - { offsetInCU: 0xC89B5, offset: 0xC89B5, size: 0x8, addend: 0x0, symName: __ZNSt3__19__advanceB8ue170006INS_16reverse_iteratorIPNS_9sub_matchIPKcEEEEEEvRT_NS_15iterator_traitsIS8_E15difference_typeENS_26random_access_iterator_tagE, symObjAddr: 0x280B88, symBinAddr: 0x100281CC4, symSize: 0x2C }
  - { offsetInCU: 0xC8A29, offset: 0xC8A29, size: 0x8, addend: 0x0, symName: __ZNSt3__112construct_atB8ue170006INS_4pairImPKcEEJEPS4_EEPT_S7_DpOT0_, symObjAddr: 0x282BE8, symBinAddr: 0x100283D24, symSize: 0x34 }
  - { offsetInCU: 0xC8A8B, offset: 0xC8A8B, size: 0x8, addend: 0x0, symName: __ZNSt3__119__allocate_at_leastB8ue170006INS_9allocatorINS_4pairImPKcEEEEEENS_19__allocation_resultINS_16allocator_traitsIT_E7pointerEEERS9_m, symObjAddr: 0x283924, symBinAddr: 0x100284A60, symSize: 0x28C }
  - { offsetInCU: 0xC8AD2, offset: 0xC8AD2, size: 0x8, addend: 0x0, symName: __ZNSt3__142__uninitialized_allocator_move_if_noexceptB8ue170006INS_9allocatorINS_4pairImPKcEEEENS_16reverse_iteratorIPS5_EES9_S9_EET2_RT_T0_T1_SA_, symObjAddr: 0x28408C, symBinAddr: 0x1002851C8, symSize: 0x544 }
  - { offsetInCU: 0xC8B88, offset: 0xC8B88, size: 0x8, addend: 0x0, symName: __ZNSt3__14swapB8ue170006IPNS_4pairImPKcEEEENS_9enable_ifIXaasr21is_move_constructibleIT_EE5valuesr18is_move_assignableIS7_EE5valueEvE4typeERS7_SA_, symObjAddr: 0x284668, symBinAddr: 0x1002857A4, symSize: 0x134 }
  - { offsetInCU: 0xC8BDD, offset: 0xC8BDD, size: 0x8, addend: 0x0, symName: __ZNSt3__122__make_exception_guardB8ue170006INS_29_AllocatorDestroyRangeReverseINS_9allocatorINS_4pairImPKcEEEENS_16reverse_iteratorIPS6_EEEEEENS_28__exception_guard_exceptionsIT_EESD_, symObjAddr: 0x28485C, symBinAddr: 0x100285998, symSize: 0x1F8 }
  - { offsetInCU: 0xC8C16, offset: 0xC8C16, size: 0x8, addend: 0x0, symName: __ZNSt3__1neB8ue170006IPNS_4pairImPKcEES5_EEbRKNS_16reverse_iteratorIT_EERKNS6_IT0_EE, symObjAddr: 0x284A98, symBinAddr: 0x100285BD4, symSize: 0x48 }
  - { offsetInCU: 0xC8C65, offset: 0xC8C65, size: 0x8, addend: 0x0, symName: __ZNSt3__112__to_addressB8ue170006INS_16reverse_iteratorIPNS_4pairImPKcEEEEvEEu7__decayIDTclsr19__to_address_helperIT_EE6__callclsr3stdE7declvalIRKS8_EEEEESA_, symObjAddr: 0x284B10, symBinAddr: 0x100285C4C, symSize: 0x24 }
  - { offsetInCU: 0xC8C9D, offset: 0xC8C9D, size: 0x8, addend: 0x0, symName: __ZNSt3__112construct_atB8ue170006INS_4pairImPKcEEJS4_EPS4_EEPT_S7_DpOT0_, symObjAddr: 0x284EA8, symBinAddr: 0x100285FE4, symSize: 0x40 }
  - { offsetInCU: 0xC8D40, offset: 0xC8D40, size: 0x8, addend: 0x0, symName: __ZNSt3__14prevB8ue170006IPNS_4pairImPKcEEEENS_9enable_ifIXsr29__has_input_iterator_categoryIT_EE5valueES7_E4typeES7_NS_15iterator_traitsIS7_E15difference_typeE, symObjAddr: 0x284F98, symBinAddr: 0x1002860D4, symSize: 0x240 }
  - { offsetInCU: 0xC8D8B, offset: 0xC8D8B, size: 0x8, addend: 0x0, symName: __ZNSt3__19__advanceB8ue170006IPNS_4pairImPKcEEEEvRT_NS_15iterator_traitsIS6_E15difference_typeENS_26random_access_iterator_tagE, symObjAddr: 0x285210, symBinAddr: 0x10028634C, symSize: 0x78 }
  - { offsetInCU: 0xC8DD7, offset: 0xC8DD7, size: 0x8, addend: 0x0, symName: __ZNSt3__119__allocator_destroyB8ue170006INS_9allocatorINS_4pairImPKcEEEENS_16reverse_iteratorINS7_IPS5_EEEESA_EEvRT_T0_T1_, symObjAddr: 0x2856EC, symBinAddr: 0x100286828, symSize: 0x70 }
  - { offsetInCU: 0xC8E3D, offset: 0xC8E3D, size: 0x8, addend: 0x0, symName: __ZNSt3__1neB8ue170006INS_16reverse_iteratorIPNS_4pairImPKcEEEES7_EEbRKNS1_IT_EERKNS1_IT0_EE, symObjAddr: 0x2859A4, symBinAddr: 0x100286AE0, symSize: 0x2CC }
  - { offsetInCU: 0xC8E8E, offset: 0xC8E8E, size: 0x8, addend: 0x0, symName: __ZNSt3__112__to_addressB8ue170006INS_16reverse_iteratorINS1_IPNS_4pairImPKcEEEEEEvEEu7__decayIDTclsr19__to_address_helperIT_EE6__callclsr3stdE7declvalIRKS9_EEEEESB_, symObjAddr: 0x285C70, symBinAddr: 0x100286DAC, symSize: 0x24 }
  - { offsetInCU: 0xC8EF1, offset: 0xC8EF1, size: 0x8, addend: 0x0, symName: __ZNSt3__14prevB8ue170006INS_16reverse_iteratorIPNS_4pairImPKcEEEEEENS_9enable_ifIXsr29__has_input_iterator_categoryIT_EE5valueES9_E4typeES9_NS_15iterator_traitsIS9_E15difference_typeE, symObjAddr: 0x2861B4, symBinAddr: 0x1002872F0, symSize: 0x294 }
  - { offsetInCU: 0xC8F3C, offset: 0xC8F3C, size: 0x8, addend: 0x0, symName: __ZNSt3__19__advanceB8ue170006INS_16reverse_iteratorIPNS_4pairImPKcEEEEEEvRT_NS_15iterator_traitsIS8_E15difference_typeENS_26random_access_iterator_tagE, symObjAddr: 0x286480, symBinAddr: 0x1002875BC, symSize: 0x2C }
  - { offsetInCU: 0xC8F89, offset: 0xC8F89, size: 0x8, addend: 0x0, symName: __ZNSt3__122__make_exception_guardB8ue170006INS_6vectorINS_9sub_matchIPKcEENS_9allocatorIS5_EEE16__destroy_vectorEEENS_28__exception_guard_exceptionsIT_EESB_, symObjAddr: 0x28758C, symBinAddr: 0x1002886C8, symSize: 0x278 }
  - { offsetInCU: 0xC8FC3, offset: 0xC8FC3, size: 0x8, addend: 0x0, symName: __ZNSt3__130__uninitialized_allocator_copyB8ue170006INS_9allocatorINS_9sub_matchIPKcEEEEPS5_S7_S7_EET2_RT_T0_T1_S8_, symObjAddr: 0x2880D8, symBinAddr: 0x100289214, symSize: 0x2DC }
  - { offsetInCU: 0xC906A, offset: 0xC906A, size: 0x8, addend: 0x0, symName: __ZNSt3__114__unwrap_rangeB8ue170006IPNS_9sub_matchIPKcEES5_EEDaT_T0_, symObjAddr: 0x2883B4, symBinAddr: 0x1002894F0, symSize: 0x224 }
  - { offsetInCU: 0xC90BA, offset: 0xC90BA, size: 0x8, addend: 0x0, symName: __ZNSt3__135__uninitialized_allocator_copy_implB8ue170006INS_9allocatorINS_9sub_matchIPKcEEEEPS5_S7_S7_EET2_RT_T0_T1_S8_, symObjAddr: 0x2885D8, symBinAddr: 0x100289714, symSize: 0x520 }
  - { offsetInCU: 0xC9167, offset: 0xC9167, size: 0x8, addend: 0x0, symName: __ZNSt3__113__unwrap_iterB8ue170006IPNS_9sub_matchIPKcEENS_18__unwrap_iter_implIS5_Lb1EEELi0EEEDTclsrT0_8__unwrapclsr3stdE7declvalIT_EEEES9_, symObjAddr: 0x288AF8, symBinAddr: 0x100289C34, symSize: 0x24 }
  - { offsetInCU: 0xC91AE, offset: 0xC91AE, size: 0x8, addend: 0x0, symName: __ZNSt3__113__rewrap_iterB8ue170006IPNS_9sub_matchIPKcEES5_NS_18__unwrap_iter_implIS5_Lb1EEEEET_S8_T0_, symObjAddr: 0x288B1C, symBinAddr: 0x100289C58, symSize: 0x48 }
  - { offsetInCU: 0xC932E, offset: 0xC932E, size: 0x8, addend: 0x0, symName: __ZNSt3__122__make_exception_guardB8ue170006INS_29_AllocatorDestroyRangeReverseINS_9allocatorINS_9sub_matchIPKcEEEEPS6_EEEENS_28__exception_guard_exceptionsIT_EESB_, symObjAddr: 0x288FE4, symBinAddr: 0x10028A120, symSize: 0x1F8 }
  - { offsetInCU: 0xC9367, offset: 0xC9367, size: 0x8, addend: 0x0, symName: __ZNSt3__112construct_atB8ue170006INS_9sub_matchIPKcEEJRS4_EPS4_EEPT_S8_DpOT0_, symObjAddr: 0x2894E4, symBinAddr: 0x10028A620, symSize: 0x40 }
  - { offsetInCU: 0xC93DE, offset: 0xC93DE, size: 0x8, addend: 0x0, symName: __ZNSt3__119__allocator_destroyB8ue170006INS_9allocatorINS_9sub_matchIPKcEEEENS_16reverse_iteratorIPS5_EES9_EEvRT_T0_T1_, symObjAddr: 0x28997C, symBinAddr: 0x10028AAB8, symSize: 0x2B8 }
  - { offsetInCU: 0xC94A3, offset: 0xC94A3, size: 0x8, addend: 0x0, symName: __ZNSt3__122__make_exception_guardB8ue170006INS_6vectorINS_4pairImPKcEENS_9allocatorIS5_EEE16__destroy_vectorEEENS_28__exception_guard_exceptionsIT_EESB_, symObjAddr: 0x28A44C, symBinAddr: 0x10028B588, symSize: 0x278 }
  - { offsetInCU: 0xC94DD, offset: 0xC94DD, size: 0x8, addend: 0x0, symName: __ZNSt3__130__uninitialized_allocator_copyB8ue170006INS_9allocatorINS_4pairImPKcEEEEPS5_S7_S7_EET2_RT_T0_T1_S8_, symObjAddr: 0x28B3B8, symBinAddr: 0x10028C4F4, symSize: 0x2DC }
  - { offsetInCU: 0xC9584, offset: 0xC9584, size: 0x8, addend: 0x0, symName: __ZNSt3__114__unwrap_rangeB8ue170006IPNS_4pairImPKcEES5_EEDaT_T0_, symObjAddr: 0x28B694, symBinAddr: 0x10028C7D0, symSize: 0x224 }
  - { offsetInCU: 0xC95D4, offset: 0xC95D4, size: 0x8, addend: 0x0, symName: __ZNSt3__135__uninitialized_allocator_copy_implB8ue170006INS_9allocatorINS_4pairImPKcEEEEPS5_S7_S7_EET2_RT_T0_T1_S8_, symObjAddr: 0x28B8B8, symBinAddr: 0x10028C9F4, symSize: 0x520 }
  - { offsetInCU: 0xC9681, offset: 0xC9681, size: 0x8, addend: 0x0, symName: __ZNSt3__113__unwrap_iterB8ue170006IPNS_4pairImPKcEENS_18__unwrap_iter_implIS5_Lb1EEELi0EEEDTclsrT0_8__unwrapclsr3stdE7declvalIT_EEEES9_, symObjAddr: 0x28BDD8, symBinAddr: 0x10028CF14, symSize: 0x24 }
  - { offsetInCU: 0xC96C8, offset: 0xC96C8, size: 0x8, addend: 0x0, symName: __ZNSt3__113__rewrap_iterB8ue170006IPNS_4pairImPKcEES5_NS_18__unwrap_iter_implIS5_Lb1EEEEET_S8_T0_, symObjAddr: 0x28BDFC, symBinAddr: 0x10028CF38, symSize: 0x48 }
  - { offsetInCU: 0xC9848, offset: 0xC9848, size: 0x8, addend: 0x0, symName: __ZNSt3__122__make_exception_guardB8ue170006INS_29_AllocatorDestroyRangeReverseINS_9allocatorINS_4pairImPKcEEEEPS6_EEEENS_28__exception_guard_exceptionsIT_EESB_, symObjAddr: 0x28C2C4, symBinAddr: 0x10028D400, symSize: 0x1F8 }
  - { offsetInCU: 0xC9881, offset: 0xC9881, size: 0x8, addend: 0x0, symName: __ZNSt3__112construct_atB8ue170006INS_4pairImPKcEEJRS4_EPS4_EEPT_S8_DpOT0_, symObjAddr: 0x28C7C4, symBinAddr: 0x10028D900, symSize: 0x40 }
  - { offsetInCU: 0xC98F8, offset: 0xC98F8, size: 0x8, addend: 0x0, symName: __ZNSt3__119__allocator_destroyB8ue170006INS_9allocatorINS_4pairImPKcEEEENS_16reverse_iteratorIPS5_EES9_EEvRT_T0_T1_, symObjAddr: 0x28CC5C, symBinAddr: 0x10028DD98, symSize: 0x2B8 }
  - { offsetInCU: 0xC99BC, offset: 0xC99BC, size: 0x8, addend: 0x0, symName: __ZNSt3__119__throw_regex_errorB8ue170006ILNS_15regex_constants10error_typeE11EEEvv, symObjAddr: 0x28EF18, symBinAddr: 0x100290054, symSize: 0x64 }
  - { offsetInCU: 0xC9A56, offset: 0xC9A56, size: 0x8, addend: 0x0, symName: __ZNSt3__119__throw_regex_errorB8ue170006ILNS_15regex_constants10error_typeE3EEEvv, symObjAddr: 0x28F63C, symBinAddr: 0x100290778, symSize: 0x64 }
  - { offsetInCU: 0xC9A7C, offset: 0xC9A7C, size: 0x8, addend: 0x0, symName: __ZNSt3__119__throw_regex_errorB8ue170006ILNS_15regex_constants10error_typeE4EEEvv, symObjAddr: 0x291860, symBinAddr: 0x10029299C, symSize: 0x64 }
  - { offsetInCU: 0xC9EBD, offset: 0xC9EBD, size: 0x8, addend: 0x0, symName: __ZNSt3__15equalB8ue170006IPKcS2_EEbT_S3_T0_, symObjAddr: 0x294B18, symBinAddr: 0x100295C54, symSize: 0x38 }
  - { offsetInCU: 0xC9F1B, offset: 0xC9F1B, size: 0x8, addend: 0x0, symName: __ZNSt3__15equalB8ue170006IPKcS2_NS_10__equal_toEEEbT_S4_T0_T1_, symObjAddr: 0x294B50, symBinAddr: 0x100295C8C, symSize: 0x1F8 }
  - { offsetInCU: 0xC9F98, offset: 0xC9F98, size: 0x8, addend: 0x0, symName: __ZNSt3__112__to_addressB8ue170006INS_4pairIccEEEEPT_S4_, symObjAddr: 0x29984C, symBinAddr: 0x10029A988, symSize: 0x14 }
  - { offsetInCU: 0xC9FCF, offset: 0xC9FCF, size: 0x8, addend: 0x0, symName: __ZNSt3__110destroy_atB8ue170006INS_4pairIccEELi0EEEvPT_, symObjAddr: 0x299860, symBinAddr: 0x10029A99C, symSize: 0x24 }
  - { offsetInCU: 0xCA009, offset: 0xCA009, size: 0x8, addend: 0x0, symName: __ZNSt3__112__destroy_atB8ue170006INS_4pairIccEELi0EEEvPT_, symObjAddr: 0x299884, symBinAddr: 0x10029A9C0, symSize: 0x10 }
  - { offsetInCU: 0xCA043, offset: 0xCA043, size: 0x8, addend: 0x0, symName: __ZNSt3__112__to_addressB8ue170006INS_4pairINS_12basic_stringIcNS_11char_traitsIcEENS_9allocatorIcEEEES7_EEEEPT_SA_, symObjAddr: 0x29A348, symBinAddr: 0x10029B484, symSize: 0x14 }
  - { offsetInCU: 0xCA07A, offset: 0xCA07A, size: 0x8, addend: 0x0, symName: __ZNSt3__110destroy_atB8ue170006INS_4pairINS_12basic_stringIcNS_11char_traitsIcEENS_9allocatorIcEEEES7_EELi0EEEvPT_, symObjAddr: 0x29A35C, symBinAddr: 0x10029B498, symSize: 0x24 }
  - { offsetInCU: 0xCA0B4, offset: 0xCA0B4, size: 0x8, addend: 0x0, symName: __ZNSt3__112__destroy_atB8ue170006INS_4pairINS_12basic_stringIcNS_11char_traitsIcEENS_9allocatorIcEEEES7_EELi0EEEvPT_, symObjAddr: 0x29A380, symBinAddr: 0x10029B4BC, symSize: 0x24 }
  - { offsetInCU: 0xCA0ED, offset: 0xCA0ED, size: 0x8, addend: 0x0, symName: __ZNSt3__1eqB8ue170006IccccEEbRKNS_4pairIT_T0_EERKNS1_IT1_T2_EE, symObjAddr: 0x29B168, symBinAddr: 0x10029C2A4, symSize: 0x1F4 }
  - { offsetInCU: 0xCA14E, offset: 0xCA14E, size: 0x8, addend: 0x0, symName: __ZNSt3__1leB8ue170006ENS_15strong_orderingENS_20_CmpUnspecifiedParamE, symObjAddr: 0x29B888, symBinAddr: 0x10029C9C4, symSize: 0x274 }
  - { offsetInCU: 0xCA18D, offset: 0xCA18D, size: 0x8, addend: 0x0, symName: __ZNSt3__14findB8ue170006INS_11__wrap_iterIPKcEEcEET_S5_S5_RKT0_, symObjAddr: 0x29BCCC, symBinAddr: 0x10029CE08, symSize: 0x4AC }
  - { offsetInCU: 0xCA208, offset: 0xCA208, size: 0x8, addend: 0x0, symName: __ZNSt3__18distanceB8ue170006IPcEENS_15iterator_traitsIT_E15difference_typeES3_S3_, symObjAddr: 0x29D10C, symBinAddr: 0x10029E248, symSize: 0x2C }
  - { offsetInCU: 0xCA24E, offset: 0xCA24E, size: 0x8, addend: 0x0, symName: __ZNSt3__110__distanceB8ue170006IPcEENS_15iterator_traitsIT_E15difference_typeES3_S3_NS_26random_access_iterator_tagE, symObjAddr: 0x29D5C4, symBinAddr: 0x10029E700, symSize: 0x20 }
  - { offsetInCU: 0xCA29F, offset: 0xCA29F, size: 0x8, addend: 0x0, symName: __ZNSt3__119__allocate_at_leastB8ue170006INS_9allocatorIcEEEENS_19__allocation_resultINS_16allocator_traitsIT_E7pointerEEERS5_m, symObjAddr: 0x29D5E4, symBinAddr: 0x10029E720, symSize: 0x28C }
  - { offsetInCU: 0xCA2E7, offset: 0xCA2E7, size: 0x8, addend: 0x0, symName: __ZNSt3__113__rewrap_iterB8ue170006INS_11__wrap_iterIPKcEES3_NS_18__unwrap_iter_implIS4_Lb1EEEEET_S7_T0_, symObjAddr: 0x29DDD8, symBinAddr: 0x10029EF14, symSize: 0x338 }
  - { offsetInCU: 0xCA344, offset: 0xCA344, size: 0x8, addend: 0x0, symName: __ZNSt3__111__find_implB8ue170006IKccNS_10__identityELi0EEEPT_S4_S4_RKT0_RT1_, symObjAddr: 0x29E110, symBinAddr: 0x10029F24C, symSize: 0x108 }
  - { offsetInCU: 0xCA3F9, offset: 0xCA3F9, size: 0x8, addend: 0x0, symName: __ZNSt3__112construct_atB8ue170006IcJcEPcEEPT_S3_DpOT0_, symObjAddr: 0x29F578, symBinAddr: 0x1002A06B4, symSize: 0x100 }
  - { offsetInCU: 0xCA470, offset: 0xCA470, size: 0x8, addend: 0x0, symName: __ZNSt3__142__uninitialized_allocator_move_if_noexceptB8ue170006INS_9allocatorIcEENS_16reverse_iteratorIPcEES5_cvEET1_RT_T0_S9_S6_, symObjAddr: 0x2A0D88, symBinAddr: 0x1002A1EC4, symSize: 0x4A8 }
  - { offsetInCU: 0xCA4FB, offset: 0xCA4FB, size: 0x8, addend: 0x0, symName: __ZNSt3__14swapB8ue170006IPcEENS_9enable_ifIXaasr21is_move_constructibleIT_EE5valuesr18is_move_assignableIS3_EE5valueEvE4typeERS3_S6_, symObjAddr: 0x2A12C8, symBinAddr: 0x1002A2404, symSize: 0x134 }
  - { offsetInCU: 0xCA550, offset: 0xCA550, size: 0x8, addend: 0x0, symName: __ZNSt3__14moveB8ue170006INS_16reverse_iteratorIPcEES3_EET0_T_S5_S4_, symObjAddr: 0x2A14BC, symBinAddr: 0x1002A25F8, symSize: 0x4B0 }
  - { offsetInCU: 0xCA5BB, offset: 0xCA5BB, size: 0x8, addend: 0x0, symName: __ZNSt3__16__moveB8ue170006INS_17_ClassicAlgPolicyENS_16reverse_iteratorIPcEES4_S4_EENS_4pairIT0_T2_EES6_T1_S7_, symObjAddr: 0x2A196C, symBinAddr: 0x1002A2AA8, symSize: 0x424 }
  - { offsetInCU: 0xCA637, offset: 0xCA637, size: 0x8, addend: 0x0, symName: __ZNSt3__123__dispatch_copy_or_moveB8ue170006INS_17_ClassicAlgPolicyENS_11__move_loopIS1_EENS_14__move_trivialENS_16reverse_iteratorIPcEES7_S7_EENS_4pairIT2_T4_EES9_T3_SA_, symObjAddr: 0x2A1D90, symBinAddr: 0x1002A2ECC, symSize: 0x424 }
  - { offsetInCU: 0xCA6C5, offset: 0xCA6C5, size: 0x8, addend: 0x0, symName: __ZNSt3__121__unwrap_and_dispatchB8ue170006INS_10__overloadINS_11__move_loopINS_17_ClassicAlgPolicyEEENS_14__move_trivialEEENS_16reverse_iteratorIPcEES9_S9_Li0EEENS_4pairIT0_T2_EESB_T1_SC_, symObjAddr: 0x2A21B4, symBinAddr: 0x1002A32F0, symSize: 0x880 }
  - { offsetInCU: 0xCA770, offset: 0xCA770, size: 0x8, addend: 0x0, symName: __ZNSt3__114__unwrap_rangeB8ue170006INS_16reverse_iteratorIPcEES3_EEDaT_T0_, symObjAddr: 0x2A2A34, symBinAddr: 0x1002A3B70, symSize: 0x35C }
  - { offsetInCU: 0xCA8A2, offset: 0xCA8A2, size: 0x8, addend: 0x0, symName: __ZNSt3__113__unwrap_iterB8ue170006INS_16reverse_iteratorIPcEENS_18__unwrap_iter_implIS3_Lb0EEELi0EEEDTclsrT0_8__unwrapclsr3stdE7declvalIT_EEEES7_, symObjAddr: 0x2A3180, symBinAddr: 0x1002A42BC, symSize: 0x2EC }
  - { offsetInCU: 0xCA8EC, offset: 0xCA8EC, size: 0x8, addend: 0x0, symName: __ZNSt3__19make_pairB8ue170006INS_16reverse_iteratorIPcEES3_EENS_4pairINS_18__unwrap_ref_decayIT_E4typeENS5_IT0_E4typeEEEOS6_OS9_, symObjAddr: 0x2A346C, symBinAddr: 0x1002A45A8, symSize: 0x38 }
  - { offsetInCU: 0xCA93C, offset: 0xCA93C, size: 0x8, addend: 0x0, symName: __ZNSt3__114__rewrap_rangeB8ue170006INS_16reverse_iteratorIPcEES3_S3_EET0_S4_T1_, symObjAddr: 0x2A34A4, symBinAddr: 0x1002A45E0, symSize: 0x3D4 }
  - { offsetInCU: 0xCA99C, offset: 0xCA99C, size: 0x8, addend: 0x0, symName: __ZNSt3__113__rewrap_iterB8ue170006INS_16reverse_iteratorIPcEES3_NS_18__unwrap_iter_implIS3_Lb0EEEEET_S6_T0_, symObjAddr: 0x2A3878, symBinAddr: 0x1002A49B4, symSize: 0x3E8 }
  - { offsetInCU: 0xCAA4F, offset: 0xCAA4F, size: 0x8, addend: 0x0, symName: __ZNSt3__1neB8ue170006IPcS1_EEbRKNS_16reverse_iteratorIT_EERKNS2_IT0_EE, symObjAddr: 0x2A4138, symBinAddr: 0x1002A5274, symSize: 0x48 }
  - { offsetInCU: 0xCAB11, offset: 0xCAB11, size: 0x8, addend: 0x0, symName: __ZNSt3__112construct_atB8ue170006IcJRKcEPcEEPT_S5_DpOT0_, symObjAddr: 0x2A576C, symBinAddr: 0x1002A68A8, symSize: 0x100 }
  - { offsetInCU: 0xCAB88, offset: 0xCAB88, size: 0x8, addend: 0x0, symName: __ZNSt3__17__is_07B8ue170006Eh, symObjAddr: 0x2A5A44, symBinAddr: 0x1002A6B80, symSize: 0x24 }
  - { offsetInCU: 0xCABB6, offset: 0xCABB6, size: 0x8, addend: 0x0, symName: __ZNSt3__17__is_89B8ue170006Eh, symObjAddr: 0x2A5A68, symBinAddr: 0x1002A6BA4, symSize: 0x24 }
  - { offsetInCU: 0xCABE4, offset: 0xCABE4, size: 0x8, addend: 0x0, symName: __ZNSt3__110__to_lowerB8ue170006Eh, symObjAddr: 0x2A5A8C, symBinAddr: 0x1002A6BC8, symSize: 0x1C }
  - { offsetInCU: 0xCAC12, offset: 0xCAC12, size: 0x8, addend: 0x0, symName: __ZNSt3__119__throw_regex_errorB8ue170006ILNS_15regex_constants10error_typeE5EEEvv, symObjAddr: 0x2A5AA8, symBinAddr: 0x1002A6BE4, symSize: 0x64 }
  - { offsetInCU: 0xCAC39, offset: 0xCAC39, size: 0x8, addend: 0x0, symName: __ZNSt3__16searchB8ue170006INS_11__wrap_iterIPKcEEPcEET_S6_S6_T0_S7_, symObjAddr: 0x2AC698, symBinAddr: 0x1002AD7D4, symSize: 0x414 }
  - { offsetInCU: 0xCACAF, offset: 0xCACAF, size: 0x8, addend: 0x0, symName: __ZNSt3__119__throw_regex_errorB8ue170006ILNS_15regex_constants10error_typeE1EEEvv, symObjAddr: 0x2ACE1C, symBinAddr: 0x1002ADF58, symSize: 0x64 }
  - { offsetInCU: 0xCACD6, offset: 0xCACD6, size: 0x8, addend: 0x0, symName: __ZNSt3__16searchB8ue170006INS_11__wrap_iterIPKcEEPcNS_10__equal_toEEET_S7_S7_T0_S8_T1_, symObjAddr: 0x2AD220, symBinAddr: 0x1002AE35C, symSize: 0x4C4 }
  - { offsetInCU: 0xCAD7E, offset: 0xCAD7E, size: 0x8, addend: 0x0, symName: __ZNSt3__113__search_implB8ue170006INS_11__wrap_iterIPKcEES4_PcS5_NS_10__equal_toENS_10__identityES7_EENS_4pairIT_S9_EES9_T0_T1_T2_RT3_RT4_RT5_PNS_9enable_ifIXaasr37__has_random_access_iterator_categoryIS9_EE5valuesr37__has_random_access_iterator_categoryISC_EE5valueEvE4typeE, symObjAddr: 0x2AD6E4, symBinAddr: 0x1002AE820, symSize: 0x5D0 }
  - { offsetInCU: 0xCAE7D, offset: 0xCAE7D, size: 0x8, addend: 0x0, symName: __ZNSt3__19make_pairB8ue170006IRNS_11__wrap_iterIPKcEES5_EENS_4pairINS_18__unwrap_ref_decayIT_E4typeENS7_IT0_E4typeEEEOS8_OSB_, symObjAddr: 0x2ADCB4, symBinAddr: 0x1002AEDF0, symSize: 0x20C }
  - { offsetInCU: 0xCAECF, offset: 0xCAECF, size: 0x8, addend: 0x0, symName: __ZNSt3__1miB8ue170006IPKcS2_EEDTmicldtfp_4baseEcldtfp0_4baseEERKNS_11__wrap_iterIT_EERKNS4_IT0_EE, symObjAddr: 0x2ADEC0, symBinAddr: 0x1002AEFFC, symSize: 0x40 }
  - { offsetInCU: 0xCAF1E, offset: 0xCAF1E, size: 0x8, addend: 0x0, symName: __ZNSt3__127__search_random_access_implB8ue170006INS_17_ClassicAlgPolicyENS_11__wrap_iterIPKcEES5_PcS6_NS_10__equal_toENS_10__identityES8_llEENS_4pairIT0_SA_EESA_T1_T2_T3_RT4_RT5_RT6_T7_T8_, symObjAddr: 0x2ADF00, symBinAddr: 0x1002AF03C, symSize: 0x72C }
  - { offsetInCU: 0xCB072, offset: 0xCB072, size: 0x8, addend: 0x0, symName: __ZNSt3__18__invokeB8ue170006IRNS_10__equal_toEJRKcRcEEEDTclclsr3stdE7declvalIT_EEspclsr3stdE7declvalIT0_EEEEOS6_DpOS7_, symObjAddr: 0x2AEAFC, symBinAddr: 0x1002AFC38, symSize: 0x38 }
  - { offsetInCU: 0xCB0DA, offset: 0xCB0DA, size: 0x8, addend: 0x0, symName: __ZNSt3__18__invokeB8ue170006IRNS_10__identityEJRcEEEDTclclsr3stdE7declvalIT_EEspclsr3stdE7declvalIT0_EEEEOS4_DpOS5_, symObjAddr: 0x2AEB34, symBinAddr: 0x1002AFC70, symSize: 0x2C }
  - { offsetInCU: 0xCB12D, offset: 0xCB12D, size: 0x8, addend: 0x0, symName: __ZNSt3__19make_pairB8ue170006IRNS_11__wrap_iterIPKcEES4_EENS_4pairINS_18__unwrap_ref_decayIT_E4typeENS7_IT0_E4typeEEEOS8_OSB_, symObjAddr: 0x2AEB60, symBinAddr: 0x1002AFC9C, symSize: 0x20C }
  - { offsetInCU: 0xCB17F, offset: 0xCB17F, size: 0x8, addend: 0x0, symName: __ZNSt3__18distanceB8ue170006INS_11__wrap_iterIPKcEEEENS_15iterator_traitsIT_E15difference_typeES6_S6_, symObjAddr: 0x2B00D4, symBinAddr: 0x1002B1210, symSize: 0x350 }
  - { offsetInCU: 0xCB1CD, offset: 0xCB1CD, size: 0x8, addend: 0x0, symName: __ZNSt3__110__distanceB8ue170006INS_11__wrap_iterIPKcEEEENS_15iterator_traitsIT_E15difference_typeES6_S6_NS_26random_access_iterator_tagE, symObjAddr: 0x2B098C, symBinAddr: 0x1002B1AC8, symSize: 0x274 }
  - { offsetInCU: 0xCB227, offset: 0xCB227, size: 0x8, addend: 0x0, symName: __ZNSt3__18distanceB8ue170006INS_11__wrap_iterIPcEEEENS_15iterator_traitsIT_E15difference_typeES5_S5_, symObjAddr: 0x2B1E34, symBinAddr: 0x1002B2F70, symSize: 0x350 }
  - { offsetInCU: 0xCB275, offset: 0xCB275, size: 0x8, addend: 0x0, symName: __ZNSt3__110__distanceB8ue170006INS_11__wrap_iterIPcEEEENS_15iterator_traitsIT_E15difference_typeES5_S5_NS_26random_access_iterator_tagE, symObjAddr: 0x2B26EC, symBinAddr: 0x1002B3828, symSize: 0x274 }
  - { offsetInCU: 0xCB2CF, offset: 0xCB2CF, size: 0x8, addend: 0x0, symName: __ZNSt3__1miB8ue170006IPcS1_EEDTmicldtfp_4baseEcldtfp0_4baseEERKNS_11__wrap_iterIT_EERKNS3_IT0_EE, symObjAddr: 0x2B2960, symBinAddr: 0x1002B3A9C, symSize: 0x40 }
  - { offsetInCU: 0xCB31D, offset: 0xCB31D, size: 0x8, addend: 0x0, symName: __ZNSt3__119__throw_regex_errorB8ue170006ILNS_15regex_constants10error_typeE2EEEvv, symObjAddr: 0x2B2D30, symBinAddr: 0x1002B3E6C, symSize: 0x64 }
  - { offsetInCU: 0xCB343, offset: 0xCB343, size: 0x8, addend: 0x0, symName: __ZNSt3__19make_pairB8ue170006INS_12basic_stringIcNS_11char_traitsIcEENS_9allocatorIcEEEES6_EENS_4pairINS_18__unwrap_ref_decayIT_E4typeENS8_IT0_E4typeEEEOS9_OSC_, symObjAddr: 0x2B3C98, symBinAddr: 0x1002B4DD4, symSize: 0x40 }
  - { offsetInCU: 0xCB392, offset: 0xCB392, size: 0x8, addend: 0x0, symName: __ZNSt3__119__throw_regex_errorB8ue170006ILNS_15regex_constants10error_typeE9EEEvv, symObjAddr: 0x2B42AC, symBinAddr: 0x1002B53E8, symSize: 0x64 }
  - { offsetInCU: 0xCB3E0, offset: 0xCB3E0, size: 0x8, addend: 0x0, symName: __ZNSt3__112construct_atB8ue170006INS_4pairINS_12basic_stringIcNS_11char_traitsIcEENS_9allocatorIcEEEES7_EEJS8_EPS8_EEPT_SB_DpOT0_, symObjAddr: 0x2B4E04, symBinAddr: 0x1002B5F40, symSize: 0x3C }
  - { offsetInCU: 0xCB458, offset: 0xCB458, size: 0x8, addend: 0x0, symName: __ZNSt3__119__allocate_at_leastB8ue170006INS_9allocatorINS_4pairINS_12basic_stringIcNS_11char_traitsIcEENS1_IcEEEES7_EEEEEENS_19__allocation_resultINS_16allocator_traitsIT_E7pointerEEERSC_m, symObjAddr: 0x2B6488, symBinAddr: 0x1002B75C4, symSize: 0x28C }
  - { offsetInCU: 0xCB49F, offset: 0xCB49F, size: 0x8, addend: 0x0, symName: __ZNSt3__142__uninitialized_allocator_move_if_noexceptB8ue170006INS_9allocatorINS_4pairINS_12basic_stringIcNS_11char_traitsIcEENS1_IcEEEES7_EEEENS_16reverse_iteratorIPS8_EESC_SC_EET2_RT_T0_T1_SD_, symObjAddr: 0x2B6928, symBinAddr: 0x1002B7A64, symSize: 0x544 }
  - { offsetInCU: 0xCB555, offset: 0xCB555, size: 0x8, addend: 0x0, symName: __ZNSt3__14swapB8ue170006IPNS_4pairINS_12basic_stringIcNS_11char_traitsIcEENS_9allocatorIcEEEES7_EEEENS_9enable_ifIXaasr21is_move_constructibleIT_EE5valuesr18is_move_assignableISB_EE5valueEvE4typeERSB_SE_, symObjAddr: 0x2B6F04, symBinAddr: 0x1002B8040, symSize: 0x134 }
  - { offsetInCU: 0xCB5AA, offset: 0xCB5AA, size: 0x8, addend: 0x0, symName: __ZNSt3__122__make_exception_guardB8ue170006INS_29_AllocatorDestroyRangeReverseINS_9allocatorINS_4pairINS_12basic_stringIcNS_11char_traitsIcEENS2_IcEEEES8_EEEENS_16reverse_iteratorIPS9_EEEEEENS_28__exception_guard_exceptionsIT_EESG_, symObjAddr: 0x2B7114, symBinAddr: 0x1002B8250, symSize: 0x1F8 }
  - { offsetInCU: 0xCB5E3, offset: 0xCB5E3, size: 0x8, addend: 0x0, symName: __ZNSt3__1neB8ue170006IPNS_4pairINS_12basic_stringIcNS_11char_traitsIcEENS_9allocatorIcEEEES7_EES9_EEbRKNS_16reverse_iteratorIT_EERKNSA_IT0_EE, symObjAddr: 0x2B7350, symBinAddr: 0x1002B848C, symSize: 0x48 }
  - { offsetInCU: 0xCB632, offset: 0xCB632, size: 0x8, addend: 0x0, symName: __ZNSt3__112__to_addressB8ue170006INS_16reverse_iteratorIPNS_4pairINS_12basic_stringIcNS_11char_traitsIcEENS_9allocatorIcEEEES8_EEEEvEEu7__decayIDTclsr19__to_address_helperIT_EE6__callclsr3stdE7declvalIRKSC_EEEEESE_, symObjAddr: 0x2B7398, symBinAddr: 0x1002B84D4, symSize: 0x24 }
  - { offsetInCU: 0xCB695, offset: 0xCB695, size: 0x8, addend: 0x0, symName: __ZNSt3__14prevB8ue170006IPNS_4pairINS_12basic_stringIcNS_11char_traitsIcEENS_9allocatorIcEEEES7_EEEENS_9enable_ifIXsr29__has_input_iterator_categoryIT_EE5valueESB_E4typeESB_NS_15iterator_traitsISB_E15difference_typeE, symObjAddr: 0x2B77E0, symBinAddr: 0x1002B891C, symSize: 0x240 }
  - { offsetInCU: 0xCB6E0, offset: 0xCB6E0, size: 0x8, addend: 0x0, symName: __ZNSt3__19__advanceB8ue170006IPNS_4pairINS_12basic_stringIcNS_11char_traitsIcEENS_9allocatorIcEEEES7_EEEEvRT_NS_15iterator_traitsISA_E15difference_typeENS_26random_access_iterator_tagE, symObjAddr: 0x2B7A58, symBinAddr: 0x1002B8B94, symSize: 0x80 }
  - { offsetInCU: 0xCB72C, offset: 0xCB72C, size: 0x8, addend: 0x0, symName: __ZNSt3__119__allocator_destroyB8ue170006INS_9allocatorINS_4pairINS_12basic_stringIcNS_11char_traitsIcEENS1_IcEEEES7_EEEENS_16reverse_iteratorINSA_IPS8_EEEESD_EEvRT_T0_T1_, symObjAddr: 0x2B7F3C, symBinAddr: 0x1002B9078, symSize: 0x70 }
  - { offsetInCU: 0xCB792, offset: 0xCB792, size: 0x8, addend: 0x0, symName: __ZNSt3__1neB8ue170006INS_16reverse_iteratorIPNS_4pairINS_12basic_stringIcNS_11char_traitsIcEENS_9allocatorIcEEEES8_EEEESB_EEbRKNS1_IT_EERKNS1_IT0_EE, symObjAddr: 0x2B81F4, symBinAddr: 0x1002B9330, symSize: 0x2CC }
  - { offsetInCU: 0xCB7E3, offset: 0xCB7E3, size: 0x8, addend: 0x0, symName: __ZNSt3__112__to_addressB8ue170006INS_16reverse_iteratorINS1_IPNS_4pairINS_12basic_stringIcNS_11char_traitsIcEENS_9allocatorIcEEEES8_EEEEEEvEEu7__decayIDTclsr19__to_address_helperIT_EE6__callclsr3stdE7declvalIRKSD_EEEEESF_, symObjAddr: 0x2B84C0, symBinAddr: 0x1002B95FC, symSize: 0x24 }
  - { offsetInCU: 0xCB846, offset: 0xCB846, size: 0x8, addend: 0x0, symName: __ZNSt3__14prevB8ue170006INS_16reverse_iteratorIPNS_4pairINS_12basic_stringIcNS_11char_traitsIcEENS_9allocatorIcEEEES8_EEEEEENS_9enable_ifIXsr29__has_input_iterator_categoryIT_EE5valueESD_E4typeESD_NS_15iterator_traitsISD_E15difference_typeE, symObjAddr: 0x2B8A04, symBinAddr: 0x1002B9B40, symSize: 0x294 }
  - { offsetInCU: 0xCB891, offset: 0xCB891, size: 0x8, addend: 0x0, symName: __ZNSt3__19__advanceB8ue170006INS_16reverse_iteratorIPNS_4pairINS_12basic_stringIcNS_11char_traitsIcEENS_9allocatorIcEEEES8_EEEEEEvRT_NS_15iterator_traitsISC_E15difference_typeENS_26random_access_iterator_tagE, symObjAddr: 0x2B8CD0, symBinAddr: 0x1002B9E0C, symSize: 0x2C }
  - { offsetInCU: 0xCB8DD, offset: 0xCB8DD, size: 0x8, addend: 0x0, symName: __ZNSt3__19make_pairB8ue170006IccEENS_4pairINS_18__unwrap_ref_decayIT_E4typeENS2_IT0_E4typeEEEOS3_OS6_, symObjAddr: 0x2B95E0, symBinAddr: 0x1002BA71C, symSize: 0x284 }
  - { offsetInCU: 0xCB92E, offset: 0xCB92E, size: 0x8, addend: 0x0, symName: __ZNSt3__19make_pairB8ue170006IRcS1_EENS_4pairINS_18__unwrap_ref_decayIT_E4typeENS3_IT0_E4typeEEEOS4_OS7_, symObjAddr: 0x2B9864, symBinAddr: 0x1002BA9A0, symSize: 0x284 }
  - { offsetInCU: 0xCB9A7, offset: 0xCB9A7, size: 0x8, addend: 0x0, symName: __ZNSt3__112construct_atB8ue170006INS_4pairIccEEJS2_EPS2_EEPT_S5_DpOT0_, symObjAddr: 0x2BA5B4, symBinAddr: 0x1002BB6F0, symSize: 0x40 }
  - { offsetInCU: 0xCBA1F, offset: 0xCBA1F, size: 0x8, addend: 0x0, symName: __ZNSt3__119__allocate_at_leastB8ue170006INS_9allocatorINS_4pairIccEEEEEENS_19__allocation_resultINS_16allocator_traitsIT_E7pointerEEERS7_m, symObjAddr: 0x2BBB94, symBinAddr: 0x1002BCCD0, symSize: 0x28C }
  - { offsetInCU: 0xCBA66, offset: 0xCBA66, size: 0x8, addend: 0x0, symName: __ZNSt3__142__uninitialized_allocator_move_if_noexceptB8ue170006INS_9allocatorINS_4pairIccEEEENS_16reverse_iteratorIPS3_EES7_S7_EET2_RT_T0_T1_S8_, symObjAddr: 0x2BC030, symBinAddr: 0x1002BD16C, symSize: 0x544 }
  - { offsetInCU: 0xCBB1C, offset: 0xCBB1C, size: 0x8, addend: 0x0, symName: __ZNSt3__14swapB8ue170006IPNS_4pairIccEEEENS_9enable_ifIXaasr21is_move_constructibleIT_EE5valuesr18is_move_assignableIS5_EE5valueEvE4typeERS5_S8_, symObjAddr: 0x2BC60C, symBinAddr: 0x1002BD748, symSize: 0x134 }
  - { offsetInCU: 0xCBB71, offset: 0xCBB71, size: 0x8, addend: 0x0, symName: __ZNSt3__122__make_exception_guardB8ue170006INS_29_AllocatorDestroyRangeReverseINS_9allocatorINS_4pairIccEEEENS_16reverse_iteratorIPS4_EEEEEENS_28__exception_guard_exceptionsIT_EESB_, symObjAddr: 0x2BC800, symBinAddr: 0x1002BD93C, symSize: 0x1F8 }
  - { offsetInCU: 0xCBBAA, offset: 0xCBBAA, size: 0x8, addend: 0x0, symName: __ZNSt3__1neB8ue170006IPNS_4pairIccEES3_EEbRKNS_16reverse_iteratorIT_EERKNS4_IT0_EE, symObjAddr: 0x2BCA3C, symBinAddr: 0x1002BDB78, symSize: 0x48 }
  - { offsetInCU: 0xCBBF9, offset: 0xCBBF9, size: 0x8, addend: 0x0, symName: __ZNSt3__112__to_addressB8ue170006INS_16reverse_iteratorIPNS_4pairIccEEEEvEEu7__decayIDTclsr19__to_address_helperIT_EE6__callclsr3stdE7declvalIRKS6_EEEEES8_, symObjAddr: 0x2BCA84, symBinAddr: 0x1002BDBC0, symSize: 0x24 }
  - { offsetInCU: 0xCBC5C, offset: 0xCBC5C, size: 0x8, addend: 0x0, symName: __ZNSt3__14prevB8ue170006IPNS_4pairIccEEEENS_9enable_ifIXsr29__has_input_iterator_categoryIT_EE5valueES5_E4typeES5_NS_15iterator_traitsIS5_E15difference_typeE, symObjAddr: 0x2BCECC, symBinAddr: 0x1002BE008, symSize: 0x240 }
  - { offsetInCU: 0xCBCA7, offset: 0xCBCA7, size: 0x8, addend: 0x0, symName: __ZNSt3__19__advanceB8ue170006IPNS_4pairIccEEEEvRT_NS_15iterator_traitsIS4_E15difference_typeENS_26random_access_iterator_tagE, symObjAddr: 0x2BD144, symBinAddr: 0x1002BE280, symSize: 0x78 }
  - { offsetInCU: 0xCBCF3, offset: 0xCBCF3, size: 0x8, addend: 0x0, symName: __ZNSt3__119__allocator_destroyB8ue170006INS_9allocatorINS_4pairIccEEEENS_16reverse_iteratorINS5_IPS3_EEEES8_EEvRT_T0_T1_, symObjAddr: 0x2BD620, symBinAddr: 0x1002BE75C, symSize: 0x70 }
  - { offsetInCU: 0xCBD59, offset: 0xCBD59, size: 0x8, addend: 0x0, symName: __ZNSt3__1neB8ue170006INS_16reverse_iteratorIPNS_4pairIccEEEES5_EEbRKNS1_IT_EERKNS1_IT0_EE, symObjAddr: 0x2BD8D8, symBinAddr: 0x1002BEA14, symSize: 0x2CC }
  - { offsetInCU: 0xCBDAA, offset: 0xCBDAA, size: 0x8, addend: 0x0, symName: __ZNSt3__112__to_addressB8ue170006INS_16reverse_iteratorINS1_IPNS_4pairIccEEEEEEvEEu7__decayIDTclsr19__to_address_helperIT_EE6__callclsr3stdE7declvalIRKS7_EEEEES9_, symObjAddr: 0x2BDBA4, symBinAddr: 0x1002BECE0, symSize: 0x24 }
  - { offsetInCU: 0xCBE0D, offset: 0xCBE0D, size: 0x8, addend: 0x0, symName: __ZNSt3__14prevB8ue170006INS_16reverse_iteratorIPNS_4pairIccEEEEEENS_9enable_ifIXsr29__has_input_iterator_categoryIT_EE5valueES7_E4typeES7_NS_15iterator_traitsIS7_E15difference_typeE, symObjAddr: 0x2BE0E8, symBinAddr: 0x1002BF224, symSize: 0x294 }
  - { offsetInCU: 0xCBE58, offset: 0xCBE58, size: 0x8, addend: 0x0, symName: __ZNSt3__19__advanceB8ue170006INS_16reverse_iteratorIPNS_4pairIccEEEEEEvRT_NS_15iterator_traitsIS6_E15difference_typeENS_26random_access_iterator_tagE, symObjAddr: 0x2BE3B4, symBinAddr: 0x1002BF4F0, symSize: 0x2C }
  - { offsetInCU: 0xCBFB0, offset: 0xCBFB0, size: 0x8, addend: 0x0, symName: __ZNSt3__119__throw_regex_errorB8ue170006ILNS_15regex_constants10error_typeE8EEEvv, symObjAddr: 0x2C06A4, symBinAddr: 0x1002C17E0, symSize: 0x64 }
  - { offsetInCU: 0xCBFD6, offset: 0xCBFD6, size: 0x8, addend: 0x0, symName: __ZNSt3__119__throw_regex_errorB8ue170006ILNS_15regex_constants10error_typeE7EEEvv, symObjAddr: 0x2C0708, symBinAddr: 0x1002C1844, symSize: 0x64 }
  - { offsetInCU: 0xCC947, offset: 0xCC947, size: 0x8, addend: 0x0, symName: __ZNSt3__119__throw_regex_errorB8ue170006ILNS_15regex_constants10error_typeE15EEEvv, symObjAddr: 0x2C3334, symBinAddr: 0x1002C4470, symSize: 0x64 }
  - { offsetInCU: 0xCC9E1, offset: 0xCC9E1, size: 0x8, addend: 0x0, symName: __ZNSt3__111regex_matchB8ue170006INS_11__wrap_iterIPKcEEcNS_12regex_traitsIcEEEEbT_S7_RKNS_11basic_regexIT0_T1_EENS_15regex_constants15match_flag_typeE, symObjAddr: 0x2CB094, symBinAddr: 0x1002CC1D0, symSize: 0x4E0 }
  - { offsetInCU: 0xCCD88, offset: 0xCCD88, size: 0x8, addend: 0x0, symName: __ZNSt3__111regex_matchB8ue170006INS_11__wrap_iterIPKcEENS_9allocatorINS_9sub_matchIS4_EEEEcNS_12regex_traitsIcEEEEbT_SB_RNS_13match_resultsISB_T0_EERKNS_11basic_regexIT1_T2_EENS_15regex_constants15match_flag_typeE, symObjAddr: 0x2CB75C, symBinAddr: 0x1002CC898, symSize: 0x45C }
  - { offsetInCU: 0xCCE3E, offset: 0xCCE3E, size: 0x8, addend: 0x0, symName: __ZNSt3__112__to_addressB8ue170006INS_9sub_matchINS_11__wrap_iterIPKcEEEEEEPT_S8_, symObjAddr: 0x2CCAE4, symBinAddr: 0x1002CDC20, symSize: 0x14 }
  - { offsetInCU: 0xCCE75, offset: 0xCCE75, size: 0x8, addend: 0x0, symName: __ZNSt3__110destroy_atB8ue170006INS_9sub_matchINS_11__wrap_iterIPKcEEEELi0EEEvPT_, symObjAddr: 0x2CCAF8, symBinAddr: 0x1002CDC34, symSize: 0x24 }
  - { offsetInCU: 0xCCEAF, offset: 0xCCEAF, size: 0x8, addend: 0x0, symName: __ZNSt3__112__destroy_atB8ue170006INS_9sub_matchINS_11__wrap_iterIPKcEEEELi0EEEvPT_, symObjAddr: 0x2CCB1C, symBinAddr: 0x1002CDC58, symSize: 0x10 }
  - { offsetInCU: 0xCCEE8, offset: 0xCCEE8, size: 0x8, addend: 0x0, symName: __ZNSt3__112regex_searchB8ue170006IPKcNS_9allocatorINS_9sub_matchINS_11__wrap_iterIS2_EEEEEEcNS_12regex_traitsIcEEEEbNS5_IT_EESC_RNS_13match_resultsISC_T0_EERKNS_11basic_regexIT1_T2_EENS_15regex_constants15match_flag_typeE, symObjAddr: 0x2CCD80, symBinAddr: 0x1002CDEBC, symSize: 0x554 }
  - { offsetInCU: 0xCCFA5, offset: 0xCCFA5, size: 0x8, addend: 0x0, symName: __ZNSt3__18distanceB8ue170006IPKcEENS_15iterator_traitsIT_E15difference_typeES4_S4_, symObjAddr: 0x2D1518, symBinAddr: 0x1002D2654, symSize: 0x2C }
  - { offsetInCU: 0xCCFEB, offset: 0xCCFEB, size: 0x8, addend: 0x0, symName: __ZNSt3__110__distanceB8ue170006IPKcEENS_15iterator_traitsIT_E15difference_typeES4_S4_NS_26random_access_iterator_tagE, symObjAddr: 0x2D3560, symBinAddr: 0x1002D469C, symSize: 0x20 }
  - { offsetInCU: 0xCD402, offset: 0xCD402, size: 0x8, addend: 0x0, symName: __ZNSt3__14swapB8ue170006IPPNS_7__stateIcEEEENS_9enable_ifIXaasr21is_move_constructibleIT_EE5valuesr18is_move_assignableIS6_EE5valueEvE4typeERS6_S9_, symObjAddr: 0x2D7F7C, symBinAddr: 0x1002D90B8, symSize: 0x134 }
  - { offsetInCU: 0xCD457, offset: 0xCD457, size: 0x8, addend: 0x0, symName: __ZNSt3__14moveB8ue170006IPPNS_7__stateIcEES4_EET0_T_S6_S5_, symObjAddr: 0x2D81F8, symBinAddr: 0x1002D9334, symSize: 0x26C }
  - { offsetInCU: 0xCD4B8, offset: 0xCD4B8, size: 0x8, addend: 0x0, symName: __ZNSt3__112__to_addressB8ue170006IPNS_7__stateIcEEEEPT_S5_, symObjAddr: 0x2D889C, symBinAddr: 0x1002D99D8, symSize: 0x14 }
  - { offsetInCU: 0xCD4EF, offset: 0xCD4EF, size: 0x8, addend: 0x0, symName: __ZNSt3__16__moveB8ue170006INS_17_ClassicAlgPolicyEPPNS_7__stateIcEES5_S5_EENS_4pairIT0_T2_EES7_T1_S8_, symObjAddr: 0x2D88B0, symBinAddr: 0x1002D99EC, symSize: 0x22C }
  - { offsetInCU: 0xCD562, offset: 0xCD562, size: 0x8, addend: 0x0, symName: __ZNSt3__123__dispatch_copy_or_moveB8ue170006INS_17_ClassicAlgPolicyENS_11__move_loopIS1_EENS_14__move_trivialEPPNS_7__stateIcEES8_S8_EENS_4pairIT2_T4_EESA_T3_SB_, symObjAddr: 0x2D8ADC, symBinAddr: 0x1002D9C18, symSize: 0x22C }
  - { offsetInCU: 0xCD5E7, offset: 0xCD5E7, size: 0x8, addend: 0x0, symName: __ZNSt3__121__unwrap_and_dispatchB8ue170006INS_10__overloadINS_11__move_loopINS_17_ClassicAlgPolicyEEENS_14__move_trivialEEEPPNS_7__stateIcEESA_SA_Li0EEENS_4pairIT0_T2_EESC_T1_SD_, symObjAddr: 0x2D8D08, symBinAddr: 0x1002D9E44, symSize: 0x5A4 }
  - { offsetInCU: 0xCD687, offset: 0xCD687, size: 0x8, addend: 0x0, symName: __ZNSt3__114__unwrap_rangeB8ue170006IPPNS_7__stateIcEES4_EEDaT_T0_, symObjAddr: 0x2D92AC, symBinAddr: 0x1002DA3E8, symSize: 0x224 }
  - { offsetInCU: 0xCD89C, offset: 0xCD89C, size: 0x8, addend: 0x0, symName: __ZNSt3__113__unwrap_iterB8ue170006IPPNS_7__stateIcEENS_18__unwrap_iter_implIS4_Lb1EEELi0EEEDTclsrT0_8__unwrapclsr3stdE7declvalIT_EEEES8_, symObjAddr: 0x2D9700, symBinAddr: 0x1002DA83C, symSize: 0x24 }
  - { offsetInCU: 0xCD8E2, offset: 0xCD8E2, size: 0x8, addend: 0x0, symName: __ZNSt3__19make_pairB8ue170006IPPNS_7__stateIcEES4_EENS_4pairINS_18__unwrap_ref_decayIT_E4typeENS6_IT0_E4typeEEEOS7_OSA_, symObjAddr: 0x2D9724, symBinAddr: 0x1002DA860, symSize: 0x20C }
  - { offsetInCU: 0xCD934, offset: 0xCD934, size: 0x8, addend: 0x0, symName: __ZNSt3__114__rewrap_rangeB8ue170006IPPNS_7__stateIcEES4_S4_EET0_S5_T1_, symObjAddr: 0x2D9930, symBinAddr: 0x1002DAA6C, symSize: 0x2C }
  - { offsetInCU: 0xCD98C, offset: 0xCD98C, size: 0x8, addend: 0x0, symName: __ZNSt3__113__rewrap_iterB8ue170006IPPNS_7__stateIcEES4_NS_18__unwrap_iter_implIS4_Lb1EEEEET_S7_T0_, symObjAddr: 0x2D995C, symBinAddr: 0x1002DAA98, symSize: 0x48 }
  - { offsetInCU: 0xCDA37, offset: 0xCDA37, size: 0x8, addend: 0x0, symName: __ZNSt3__119__copy_trivial_implB8ue170006IPNS_7__stateIcEES3_EENS_4pairIPT_PT0_EES6_S6_S8_, symObjAddr: 0x2D9E24, symBinAddr: 0x1002DAF60, symSize: 0x3B4 }
  - { offsetInCU: 0xCDAAB, offset: 0xCDAAB, size: 0x8, addend: 0x0, symName: __ZNSt3__119__constexpr_memmoveB8ue170006IPNS_7__stateIcEES3_Li0EEEPT_S5_PT0_NS_15__element_countE, symObjAddr: 0x2DA1D8, symBinAddr: 0x1002DB314, symSize: 0x64 }
  - { offsetInCU: 0xCDB1E, offset: 0xCDB1E, size: 0x8, addend: 0x0, symName: __ZNSt3__19make_pairB8ue170006IRPPNS_7__stateIcEES4_EENS_4pairINS_18__unwrap_ref_decayIT_E4typeENS7_IT0_E4typeEEEOS8_OSB_, symObjAddr: 0x2DA23C, symBinAddr: 0x1002DB378, symSize: 0x20C }
  - { offsetInCU: 0xCDBC8, offset: 0xCDBC8, size: 0x8, addend: 0x0, symName: __ZNSt3__18distanceB8ue170006INS_13move_iteratorIPPNS_7__stateIcEEEEEENS_15iterator_traitsIT_E15difference_typeES8_S8_, symObjAddr: 0x2DAAE0, symBinAddr: 0x1002DBC1C, symSize: 0x350 }
  - { offsetInCU: 0xCDC3D, offset: 0xCDC3D, size: 0x8, addend: 0x0, symName: __ZNSt3__112construct_atB8ue170006IPNS_7__stateIcEEJS3_EPS3_EEPT_S6_DpOT0_, symObjAddr: 0x2DB108, symBinAddr: 0x1002DC244, symSize: 0xB8 }
  - { offsetInCU: 0xCDCB5, offset: 0xCDCB5, size: 0x8, addend: 0x0, symName: __ZNSt3__110__distanceB8ue170006INS_13move_iteratorIPPNS_7__stateIcEEEEEENS_15iterator_traitsIT_E15difference_typeES8_S8_NS_26random_access_iterator_tagE, symObjAddr: 0x2DB38C, symBinAddr: 0x1002DC4C8, symSize: 0x274 }
  - { offsetInCU: 0xCDD0E, offset: 0xCDD0E, size: 0x8, addend: 0x0, symName: __ZNSt3__1miB8ue170006IPPNS_7__stateIcEES4_EEDTmicldtfp_4baseEcldtfp0_4baseEERKNS_13move_iteratorIT_EERKNS6_IT0_EE, symObjAddr: 0x2DB600, symBinAddr: 0x1002DC73C, symSize: 0xC4 }
  - { offsetInCU: 0xCDD5E, offset: 0xCDD5E, size: 0x8, addend: 0x0, symName: __ZNSt3__112construct_atB8ue170006IPNS_7__stateIcEEJRKS3_EPS3_EEPT_S8_DpOT0_, symObjAddr: 0x2DB748, symBinAddr: 0x1002DC884, symSize: 0xB8 }
  - { offsetInCU: 0xCDDD6, offset: 0xCDDD6, size: 0x8, addend: 0x0, symName: __ZNSt3__113move_backwardB8ue170006IPPNS_7__stateIcEES4_EET0_T_S6_S5_, symObjAddr: 0x2DB860, symBinAddr: 0x1002DC99C, symSize: 0x26C }
  - { offsetInCU: 0xCDE37, offset: 0xCDE37, size: 0x8, addend: 0x0, symName: __ZNSt3__115__move_backwardB8ue170006INS_17_ClassicAlgPolicyEPPNS_7__stateIcEES5_S5_EENS_4pairIT0_T2_EES7_T1_S8_, symObjAddr: 0x2DBACC, symBinAddr: 0x1002DCC08, symSize: 0x22C }
  - { offsetInCU: 0xCDEAA, offset: 0xCDEAA, size: 0x8, addend: 0x0, symName: __ZNSt3__123__dispatch_copy_or_moveB8ue170006INS_17_ClassicAlgPolicyENS_20__move_backward_loopIS1_EENS_23__move_backward_trivialEPPNS_7__stateIcEES8_S8_EENS_4pairIT2_T4_EESA_T3_SB_, symObjAddr: 0x2DBCF8, symBinAddr: 0x1002DCE34, symSize: 0x22C }
  - { offsetInCU: 0xCDF2F, offset: 0xCDF2F, size: 0x8, addend: 0x0, symName: __ZNSt3__121__unwrap_and_dispatchB8ue170006INS_10__overloadINS_20__move_backward_loopINS_17_ClassicAlgPolicyEEENS_23__move_backward_trivialEEEPPNS_7__stateIcEESA_SA_Li0EEENS_4pairIT0_T2_EESC_T1_SD_, symObjAddr: 0x2DBF24, symBinAddr: 0x1002DD060, symSize: 0x5A4 }
  - { offsetInCU: 0xCE056, offset: 0xCE056, size: 0x8, addend: 0x0, symName: __ZNSt3__128__copy_backward_trivial_implB8ue170006IPNS_7__stateIcEES3_EENS_4pairIPT_PT0_EES6_S6_S8_, symObjAddr: 0x2DC6F8, symBinAddr: 0x1002DD834, symSize: 0x3DC }
  - { offsetInCU: 0xCE0CC, offset: 0xCE0CC, size: 0x8, addend: 0x0, symName: __ZNSt3__19make_pairB8ue170006IRPPNS_7__stateIcEES5_EENS_4pairINS_18__unwrap_ref_decayIT_E4typeENS7_IT0_E4typeEEEOS8_OSB_, symObjAddr: 0x2DCAD4, symBinAddr: 0x1002DDC10, symSize: 0x20C }
  - { offsetInCU: 0xCE11E, offset: 0xCE11E, size: 0x8, addend: 0x0, symName: __ZNSt3__119__allocate_at_leastB8ue170006INS_9allocatorIPNS_7__stateIcEEEEEENS_19__allocation_resultINS_16allocator_traitsIT_E7pointerEEERS8_m, symObjAddr: 0x2DD42C, symBinAddr: 0x1002DE568, symSize: 0x28C }
  - { offsetInCU: 0xCE166, offset: 0xCE166, size: 0x8, addend: 0x0, symName: __ZNSt3__110destroy_atB8ue170006IPNS_7__stateIcEELi0EEEvPT_, symObjAddr: 0x2DE2A8, symBinAddr: 0x1002DF3E4, symSize: 0x24 }
  - { offsetInCU: 0xCE1A0, offset: 0xCE1A0, size: 0x8, addend: 0x0, symName: __ZNSt3__112__destroy_atB8ue170006IPNS_7__stateIcEELi0EEEvPT_, symObjAddr: 0x2DE2CC, symBinAddr: 0x1002DF408, symSize: 0x10 }
  - { offsetInCU: 0xCE1D9, offset: 0xCE1D9, size: 0x8, addend: 0x0, symName: __ZNSt3__1neB8ue170006ERKNS_16__deque_iteratorINS_7__stateIcEEPS2_RS2_PS3_lLl42EEES8_, symObjAddr: 0x2DED98, symBinAddr: 0x1002DFED4, symSize: 0x34 }
  - { offsetInCU: 0xCE216, offset: 0xCE216, size: 0x8, addend: 0x0, symName: __ZNSt3__1eqB8ue170006ERKNS_16__deque_iteratorINS_7__stateIcEEPS2_RS2_PS3_lLl42EEES8_, symObjAddr: 0x2DEFC4, symBinAddr: 0x1002E0100, symSize: 0xC0 }
  - { offsetInCU: 0xCE254, offset: 0xCE254, size: 0x8, addend: 0x0, symName: __ZNSt3__18distanceB8ue170006IPNS_9sub_matchIPKcEEEENS_15iterator_traitsIT_E15difference_typeES7_S7_, symObjAddr: 0x2E1D94, symBinAddr: 0x1002E2ED0, symSize: 0x2C }
  - { offsetInCU: 0xCE29A, offset: 0xCE29A, size: 0x8, addend: 0x0, symName: __ZNSt3__14nextB8ue170006IPNS_9sub_matchIPKcEEEENS_9enable_ifIXsr29__has_input_iterator_categoryIT_EE5valueES7_E4typeES7_NS_15iterator_traitsIS7_E15difference_typeE, symObjAddr: 0x2E1DC0, symBinAddr: 0x1002E2EFC, symSize: 0x238 }
  - { offsetInCU: 0xCE2E5, offset: 0xCE2E5, size: 0x8, addend: 0x0, symName: __ZNSt3__14copyB8ue170006IPNS_9sub_matchIPKcEES5_EET0_T_S7_S6_, symObjAddr: 0x2E1FF8, symBinAddr: 0x1002E3134, symSize: 0x26C }
  - { offsetInCU: 0xCE346, offset: 0xCE346, size: 0x8, addend: 0x0, symName: __ZNSt3__16__copyB8ue170006INS_17_ClassicAlgPolicyEPNS_9sub_matchIPKcEES6_S6_EENS_4pairIT0_T2_EES8_T1_S9_, symObjAddr: 0x2E2264, symBinAddr: 0x1002E33A0, symSize: 0x22C }
  - { offsetInCU: 0xCE3B9, offset: 0xCE3B9, size: 0x8, addend: 0x0, symName: __ZNSt3__123__dispatch_copy_or_moveB8ue170006INS_17_ClassicAlgPolicyENS_11__copy_loopIS1_EENS_14__copy_trivialEPNS_9sub_matchIPKcEES9_S9_EENS_4pairIT2_T4_EESB_T3_SC_, symObjAddr: 0x2E2490, symBinAddr: 0x1002E35CC, symSize: 0x22C }
  - { offsetInCU: 0xCE43E, offset: 0xCE43E, size: 0x8, addend: 0x0, symName: __ZNSt3__121__unwrap_and_dispatchB8ue170006INS_10__overloadINS_11__copy_loopINS_17_ClassicAlgPolicyEEENS_14__copy_trivialEEEPNS_9sub_matchIPKcEESB_SB_Li0EEENS_4pairIT0_T2_EESD_T1_SE_, symObjAddr: 0x2E26BC, symBinAddr: 0x1002E37F8, symSize: 0x5A4 }
  - { offsetInCU: 0xCE4DD, offset: 0xCE4DD, size: 0x8, addend: 0x0, symName: __ZNSt3__19make_pairB8ue170006IPNS_9sub_matchIPKcEES5_EENS_4pairINS_18__unwrap_ref_decayIT_E4typeENS7_IT0_E4typeEEEOS8_OSB_, symObjAddr: 0x2E30B8, symBinAddr: 0x1002E41F4, symSize: 0x20C }
  - { offsetInCU: 0xCE52F, offset: 0xCE52F, size: 0x8, addend: 0x0, symName: __ZNSt3__114__rewrap_rangeB8ue170006IPNS_9sub_matchIPKcEES5_S5_EET0_S6_T1_, symObjAddr: 0x2E32C4, symBinAddr: 0x1002E4400, symSize: 0x2C }
  - { offsetInCU: 0xCE587, offset: 0xCE587, size: 0x8, addend: 0x0, symName: __ZNSt3__110__distanceB8ue170006IPNS_9sub_matchIPKcEEEENS_15iterator_traitsIT_E15difference_typeES7_S7_NS_26random_access_iterator_tagE, symObjAddr: 0x2E331C, symBinAddr: 0x1002E4458, symSize: 0x28 }
  - { offsetInCU: 0xCE5D8, offset: 0xCE5D8, size: 0x8, addend: 0x0, symName: __ZNSt3__18distanceB8ue170006IPNS_4pairImPKcEEEENS_15iterator_traitsIT_E15difference_typeES7_S7_, symObjAddr: 0x2E37E8, symBinAddr: 0x1002E4924, symSize: 0x2C }
  - { offsetInCU: 0xCE61E, offset: 0xCE61E, size: 0x8, addend: 0x0, symName: __ZNSt3__14nextB8ue170006IPNS_4pairImPKcEEEENS_9enable_ifIXsr29__has_input_iterator_categoryIT_EE5valueES7_E4typeES7_NS_15iterator_traitsIS7_E15difference_typeE, symObjAddr: 0x2E3814, symBinAddr: 0x1002E4950, symSize: 0x238 }
  - { offsetInCU: 0xCE669, offset: 0xCE669, size: 0x8, addend: 0x0, symName: __ZNSt3__14copyB8ue170006IPNS_4pairImPKcEES5_EET0_T_S7_S6_, symObjAddr: 0x2E3A4C, symBinAddr: 0x1002E4B88, symSize: 0x26C }
  - { offsetInCU: 0xCE6CA, offset: 0xCE6CA, size: 0x8, addend: 0x0, symName: __ZNSt3__16__copyB8ue170006INS_17_ClassicAlgPolicyEPNS_4pairImPKcEES6_S6_EENS2_IT0_T2_EES7_T1_S8_, symObjAddr: 0x2E3CB8, symBinAddr: 0x1002E4DF4, symSize: 0x22C }
  - { offsetInCU: 0xCE73D, offset: 0xCE73D, size: 0x8, addend: 0x0, symName: __ZNSt3__123__dispatch_copy_or_moveB8ue170006INS_17_ClassicAlgPolicyENS_11__copy_loopIS1_EENS_14__copy_trivialEPNS_4pairImPKcEES9_S9_EENS5_IT2_T4_EESA_T3_SB_, symObjAddr: 0x2E4078, symBinAddr: 0x1002E51B4, symSize: 0x22C }
  - { offsetInCU: 0xCE7C2, offset: 0xCE7C2, size: 0x8, addend: 0x0, symName: __ZNSt3__121__unwrap_and_dispatchB8ue170006INS_10__overloadINS_11__copy_loopINS_17_ClassicAlgPolicyEEENS_14__copy_trivialEEEPNS_4pairImPKcEESB_SB_Li0EEENS7_IT0_T2_EESC_T1_SD_, symObjAddr: 0x2E42A4, symBinAddr: 0x1002E53E0, symSize: 0x5A4 }
  - { offsetInCU: 0xCE861, offset: 0xCE861, size: 0x8, addend: 0x0, symName: __ZNSt3__19make_pairB8ue170006IPNS_4pairImPKcEES5_EENS1_INS_18__unwrap_ref_decayIT_E4typeENS6_IT0_E4typeEEEOS7_OSA_, symObjAddr: 0x2E4CA0, symBinAddr: 0x1002E5DDC, symSize: 0x20C }
  - { offsetInCU: 0xCE8B3, offset: 0xCE8B3, size: 0x8, addend: 0x0, symName: __ZNSt3__114__rewrap_rangeB8ue170006IPNS_4pairImPKcEES5_S5_EET0_S6_T1_, symObjAddr: 0x2E4EAC, symBinAddr: 0x1002E5FE8, symSize: 0x2C }
  - { offsetInCU: 0xCE90B, offset: 0xCE90B, size: 0x8, addend: 0x0, symName: __ZNSt3__110__distanceB8ue170006IPNS_4pairImPKcEEEENS_15iterator_traitsIT_E15difference_typeES7_S7_NS_26random_access_iterator_tagE, symObjAddr: 0x2E507C, symBinAddr: 0x1002E61B8, symSize: 0x28 }
  - { offsetInCU: 0xCE983, offset: 0xCE983, size: 0x8, addend: 0x0, symName: __ZNSt3__112construct_atB8ue170006INS_9sub_matchINS_11__wrap_iterIPKcEEEEJEPS6_EEPT_S9_DpOT0_, symObjAddr: 0x2E6C60, symBinAddr: 0x1002E7D9C, symSize: 0x34 }
  - { offsetInCU: 0xCE9E5, offset: 0xCE9E5, size: 0x8, addend: 0x0, symName: __ZNSt3__119__allocate_at_leastB8ue170006INS_9allocatorINS_9sub_matchINS_11__wrap_iterIPKcEEEEEEEENS_19__allocation_resultINS_16allocator_traitsIT_E7pointerEEERSB_m, symObjAddr: 0x2E7900, symBinAddr: 0x1002E8A3C, symSize: 0x28C }
  - { offsetInCU: 0xCEA2C, offset: 0xCEA2C, size: 0x8, addend: 0x0, symName: __ZNSt3__142__uninitialized_allocator_move_if_noexceptB8ue170006INS_9allocatorINS_9sub_matchINS_11__wrap_iterIPKcEEEEEENS_16reverse_iteratorIPS7_EESB_SB_EET2_RT_T0_T1_SC_, symObjAddr: 0x2E8074, symBinAddr: 0x1002E91B0, symSize: 0x544 }
  - { offsetInCU: 0xCEAE2, offset: 0xCEAE2, size: 0x8, addend: 0x0, symName: __ZNSt3__14swapB8ue170006IPNS_9sub_matchINS_11__wrap_iterIPKcEEEEEENS_9enable_ifIXaasr21is_move_constructibleIT_EE5valuesr18is_move_assignableIS9_EE5valueEvE4typeERS9_SC_, symObjAddr: 0x2E8650, symBinAddr: 0x1002E978C, symSize: 0x134 }
  - { offsetInCU: 0xCEB37, offset: 0xCEB37, size: 0x8, addend: 0x0, symName: __ZNSt3__122__make_exception_guardB8ue170006INS_29_AllocatorDestroyRangeReverseINS_9allocatorINS_9sub_matchINS_11__wrap_iterIPKcEEEEEENS_16reverse_iteratorIPS8_EEEEEENS_28__exception_guard_exceptionsIT_EESF_, symObjAddr: 0x2E8860, symBinAddr: 0x1002E999C, symSize: 0x1F8 }
  - { offsetInCU: 0xCEB70, offset: 0xCEB70, size: 0x8, addend: 0x0, symName: __ZNSt3__1neB8ue170006IPNS_9sub_matchINS_11__wrap_iterIPKcEEEES7_EEbRKNS_16reverse_iteratorIT_EERKNS8_IT0_EE, symObjAddr: 0x2E8A9C, symBinAddr: 0x1002E9BD8, symSize: 0x48 }
  - { offsetInCU: 0xCEBBF, offset: 0xCEBBF, size: 0x8, addend: 0x0, symName: __ZNSt3__112__to_addressB8ue170006INS_16reverse_iteratorIPNS_9sub_matchINS_11__wrap_iterIPKcEEEEEEvEEu7__decayIDTclsr19__to_address_helperIT_EE6__callclsr3stdE7declvalIRKSA_EEEEESC_, symObjAddr: 0x2E8B14, symBinAddr: 0x1002E9C50, symSize: 0x24 }
  - { offsetInCU: 0xCEBF7, offset: 0xCEBF7, size: 0x8, addend: 0x0, symName: __ZNSt3__112construct_atB8ue170006INS_9sub_matchINS_11__wrap_iterIPKcEEEEJS6_EPS6_EEPT_S9_DpOT0_, symObjAddr: 0x2E8EAC, symBinAddr: 0x1002E9FE8, symSize: 0x40 }
  - { offsetInCU: 0xCEC9A, offset: 0xCEC9A, size: 0x8, addend: 0x0, symName: __ZNSt3__14prevB8ue170006IPNS_9sub_matchINS_11__wrap_iterIPKcEEEEEENS_9enable_ifIXsr29__has_input_iterator_categoryIT_EE5valueES9_E4typeES9_NS_15iterator_traitsIS9_E15difference_typeE, symObjAddr: 0x2E8F9C, symBinAddr: 0x1002EA0D8, symSize: 0x240 }
  - { offsetInCU: 0xCECE5, offset: 0xCECE5, size: 0x8, addend: 0x0, symName: __ZNSt3__19__advanceB8ue170006IPNS_9sub_matchINS_11__wrap_iterIPKcEEEEEEvRT_NS_15iterator_traitsIS8_E15difference_typeENS_26random_access_iterator_tagE, symObjAddr: 0x2E9214, symBinAddr: 0x1002EA350, symSize: 0x80 }
  - { offsetInCU: 0xCED31, offset: 0xCED31, size: 0x8, addend: 0x0, symName: __ZNSt3__119__allocator_destroyB8ue170006INS_9allocatorINS_9sub_matchINS_11__wrap_iterIPKcEEEEEENS_16reverse_iteratorINS9_IPS7_EEEESC_EEvRT_T0_T1_, symObjAddr: 0x2E96F8, symBinAddr: 0x1002EA834, symSize: 0x70 }
  - { offsetInCU: 0xCED97, offset: 0xCED97, size: 0x8, addend: 0x0, symName: __ZNSt3__1neB8ue170006INS_16reverse_iteratorIPNS_9sub_matchINS_11__wrap_iterIPKcEEEEEES9_EEbRKNS1_IT_EERKNS1_IT0_EE, symObjAddr: 0x2E99B0, symBinAddr: 0x1002EAAEC, symSize: 0x2CC }
  - { offsetInCU: 0xCEDE8, offset: 0xCEDE8, size: 0x8, addend: 0x0, symName: __ZNSt3__112__to_addressB8ue170006INS_16reverse_iteratorINS1_IPNS_9sub_matchINS_11__wrap_iterIPKcEEEEEEEEvEEu7__decayIDTclsr19__to_address_helperIT_EE6__callclsr3stdE7declvalIRKSB_EEEEESD_, symObjAddr: 0x2E9C7C, symBinAddr: 0x1002EADB8, symSize: 0x24 }
  - { offsetInCU: 0xCEE4B, offset: 0xCEE4B, size: 0x8, addend: 0x0, symName: __ZNSt3__14prevB8ue170006INS_16reverse_iteratorIPNS_9sub_matchINS_11__wrap_iterIPKcEEEEEEEENS_9enable_ifIXsr29__has_input_iterator_categoryIT_EE5valueESB_E4typeESB_NS_15iterator_traitsISB_E15difference_typeE, symObjAddr: 0x2EA1C0, symBinAddr: 0x1002EB2FC, symSize: 0x294 }
  - { offsetInCU: 0xCEE96, offset: 0xCEE96, size: 0x8, addend: 0x0, symName: __ZNSt3__19__advanceB8ue170006INS_16reverse_iteratorIPNS_9sub_matchINS_11__wrap_iterIPKcEEEEEEEEvRT_NS_15iterator_traitsISA_E15difference_typeENS_26random_access_iterator_tagE, symObjAddr: 0x2EA48C, symBinAddr: 0x1002EB5C8, symSize: 0x2C }
  - { offsetInCU: 0xCF2A9, offset: 0xCF2A9, size: 0x8, addend: 0x0, symName: __ZNSt3__14swapB8ue170006IPPcEENS_9enable_ifIXaasr21is_move_constructibleIT_EE5valuesr18is_move_assignableIS4_EE5valueEvE4typeERS4_S7_, symObjAddr: 0x2EF99C, symBinAddr: 0x1002F0AD8, symSize: 0x134 }
  - { offsetInCU: 0xCF2FE, offset: 0xCF2FE, size: 0x8, addend: 0x0, symName: __ZNSt3__14moveB8ue170006IPPcS2_EET0_T_S4_S3_, symObjAddr: 0x2EFB78, symBinAddr: 0x1002F0CB4, symSize: 0x26C }
  - { offsetInCU: 0xCF35F, offset: 0xCF35F, size: 0x8, addend: 0x0, symName: __ZNSt3__16__moveB8ue170006INS_17_ClassicAlgPolicyEPPcS3_S3_EENS_4pairIT0_T2_EES5_T1_S6_, symObjAddr: 0x2F021C, symBinAddr: 0x1002F1358, symSize: 0x22C }
  - { offsetInCU: 0xCF3D2, offset: 0xCF3D2, size: 0x8, addend: 0x0, symName: __ZNSt3__123__dispatch_copy_or_moveB8ue170006INS_17_ClassicAlgPolicyENS_11__move_loopIS1_EENS_14__move_trivialEPPcS6_S6_EENS_4pairIT2_T4_EES8_T3_S9_, symObjAddr: 0x2F0448, symBinAddr: 0x1002F1584, symSize: 0x22C }
  - { offsetInCU: 0xCF457, offset: 0xCF457, size: 0x8, addend: 0x0, symName: __ZNSt3__121__unwrap_and_dispatchB8ue170006INS_10__overloadINS_11__move_loopINS_17_ClassicAlgPolicyEEENS_14__move_trivialEEEPPcS8_S8_Li0EEENS_4pairIT0_T2_EESA_T1_SB_, symObjAddr: 0x2F0674, symBinAddr: 0x1002F17B0, symSize: 0x5A4 }
  - { offsetInCU: 0xCF4F7, offset: 0xCF4F7, size: 0x8, addend: 0x0, symName: __ZNSt3__114__unwrap_rangeB8ue170006IPPcS2_EEDaT_T0_, symObjAddr: 0x2F0C18, symBinAddr: 0x1002F1D54, symSize: 0x224 }
  - { offsetInCU: 0xCF685, offset: 0xCF685, size: 0x8, addend: 0x0, symName: __ZNSt3__113__unwrap_iterB8ue170006IPPcNS_18__unwrap_iter_implIS2_Lb1EEELi0EEEDTclsrT0_8__unwrapclsr3stdE7declvalIT_EEEES6_, symObjAddr: 0x2F106C, symBinAddr: 0x1002F21A8, symSize: 0x24 }
  - { offsetInCU: 0xCF6CB, offset: 0xCF6CB, size: 0x8, addend: 0x0, symName: __ZNSt3__19make_pairB8ue170006IPPcS2_EENS_4pairINS_18__unwrap_ref_decayIT_E4typeENS4_IT0_E4typeEEEOS5_OS8_, symObjAddr: 0x2F1090, symBinAddr: 0x1002F21CC, symSize: 0x20C }
  - { offsetInCU: 0xCF71D, offset: 0xCF71D, size: 0x8, addend: 0x0, symName: __ZNSt3__114__rewrap_rangeB8ue170006IPPcS2_S2_EET0_S3_T1_, symObjAddr: 0x2F129C, symBinAddr: 0x1002F23D8, symSize: 0x2C }
  - { offsetInCU: 0xCF775, offset: 0xCF775, size: 0x8, addend: 0x0, symName: __ZNSt3__113__rewrap_iterB8ue170006IPPcS2_NS_18__unwrap_iter_implIS2_Lb1EEEEET_S5_T0_, symObjAddr: 0x2F12C8, symBinAddr: 0x1002F2404, symSize: 0x48 }
  - { offsetInCU: 0xCF820, offset: 0xCF820, size: 0x8, addend: 0x0, symName: __ZNSt3__119__copy_trivial_implB8ue170006IPcS1_EENS_4pairIPT_PT0_EES4_S4_S6_, symObjAddr: 0x2F1790, symBinAddr: 0x1002F28CC, symSize: 0x3B4 }
  - { offsetInCU: 0xCF894, offset: 0xCF894, size: 0x8, addend: 0x0, symName: __ZNSt3__119__constexpr_memmoveB8ue170006IPcS1_Li0EEEPT_S3_PT0_NS_15__element_countE, symObjAddr: 0x2F1B44, symBinAddr: 0x1002F2C80, symSize: 0x64 }
  - { offsetInCU: 0xCF907, offset: 0xCF907, size: 0x8, addend: 0x0, symName: __ZNSt3__19make_pairB8ue170006IRPPcS2_EENS_4pairINS_18__unwrap_ref_decayIT_E4typeENS5_IT0_E4typeEEEOS6_OS9_, symObjAddr: 0x2F1BA8, symBinAddr: 0x1002F2CE4, symSize: 0x20C }
  - { offsetInCU: 0xCF9B1, offset: 0xCF9B1, size: 0x8, addend: 0x0, symName: __ZNSt3__18distanceB8ue170006INS_13move_iteratorIPPcEEEENS_15iterator_traitsIT_E15difference_typeES6_S6_, symObjAddr: 0x2F244C, symBinAddr: 0x1002F3588, symSize: 0x350 }
  - { offsetInCU: 0xCFA26, offset: 0xCFA26, size: 0x8, addend: 0x0, symName: __ZNSt3__112construct_atB8ue170006IPcJS1_EPS1_EEPT_S4_DpOT0_, symObjAddr: 0x2F2A74, symBinAddr: 0x1002F3BB0, symSize: 0xB8 }
  - { offsetInCU: 0xCFA9E, offset: 0xCFA9E, size: 0x8, addend: 0x0, symName: __ZNSt3__110__distanceB8ue170006INS_13move_iteratorIPPcEEEENS_15iterator_traitsIT_E15difference_typeES6_S6_NS_26random_access_iterator_tagE, symObjAddr: 0x2F2CF8, symBinAddr: 0x1002F3E34, symSize: 0x274 }
  - { offsetInCU: 0xCFAF7, offset: 0xCFAF7, size: 0x8, addend: 0x0, symName: __ZNSt3__1miB8ue170006IPPcS2_EEDTmicldtfp_4baseEcldtfp0_4baseEERKNS_13move_iteratorIT_EERKNS4_IT0_EE, symObjAddr: 0x2F2F6C, symBinAddr: 0x1002F40A8, symSize: 0xC4 }
  - { offsetInCU: 0xCFB47, offset: 0xCFB47, size: 0x8, addend: 0x0, symName: __ZNSt3__112construct_atB8ue170006IPcJRKS1_EPS1_EEPT_S6_DpOT0_, symObjAddr: 0x2F30B4, symBinAddr: 0x1002F41F0, symSize: 0xB8 }
  - { offsetInCU: 0xCFBBF, offset: 0xCFBBF, size: 0x8, addend: 0x0, symName: __ZNSt3__113move_backwardB8ue170006IPPcS2_EET0_T_S4_S3_, symObjAddr: 0x2F316C, symBinAddr: 0x1002F42A8, symSize: 0x26C }
  - { offsetInCU: 0xCFC20, offset: 0xCFC20, size: 0x8, addend: 0x0, symName: __ZNSt3__115__move_backwardB8ue170006INS_17_ClassicAlgPolicyEPPcS3_S3_EENS_4pairIT0_T2_EES5_T1_S6_, symObjAddr: 0x2F33D8, symBinAddr: 0x1002F4514, symSize: 0x22C }
  - { offsetInCU: 0xCFC93, offset: 0xCFC93, size: 0x8, addend: 0x0, symName: __ZNSt3__123__dispatch_copy_or_moveB8ue170006INS_17_ClassicAlgPolicyENS_20__move_backward_loopIS1_EENS_23__move_backward_trivialEPPcS6_S6_EENS_4pairIT2_T4_EES8_T3_S9_, symObjAddr: 0x2F3604, symBinAddr: 0x1002F4740, symSize: 0x22C }
  - { offsetInCU: 0xCFD18, offset: 0xCFD18, size: 0x8, addend: 0x0, symName: __ZNSt3__121__unwrap_and_dispatchB8ue170006INS_10__overloadINS_20__move_backward_loopINS_17_ClassicAlgPolicyEEENS_23__move_backward_trivialEEEPPcS8_S8_Li0EEENS_4pairIT0_T2_EESA_T1_SB_, symObjAddr: 0x2F3830, symBinAddr: 0x1002F496C, symSize: 0x5A4 }
  - { offsetInCU: 0xCFDB8, offset: 0xCFDB8, size: 0x8, addend: 0x0, symName: __ZNSt3__128__copy_backward_trivial_implB8ue170006IPcS1_EENS_4pairIPT_PT0_EES4_S4_S6_, symObjAddr: 0x2F4004, symBinAddr: 0x1002F5140, symSize: 0x3DC }
  - { offsetInCU: 0xCFE2E, offset: 0xCFE2E, size: 0x8, addend: 0x0, symName: __ZNSt3__19make_pairB8ue170006IRPPcS3_EENS_4pairINS_18__unwrap_ref_decayIT_E4typeENS5_IT0_E4typeEEEOS6_OS9_, symObjAddr: 0x2F43E0, symBinAddr: 0x1002F551C, symSize: 0x20C }
  - { offsetInCU: 0xCFE80, offset: 0xCFE80, size: 0x8, addend: 0x0, symName: __ZNSt3__119__allocate_at_leastB8ue170006INS_9allocatorIPcEEEENS_19__allocation_resultINS_16allocator_traitsIT_E7pointerEEERS6_m, symObjAddr: 0x2F4CBC, symBinAddr: 0x1002F5DF8, symSize: 0x28C }
  - { offsetInCU: 0xCFEC8, offset: 0xCFEC8, size: 0x8, addend: 0x0, symName: __ZNSt3__110destroy_atB8ue170006INS_4pairIKNS_12basic_stringIcNS_11char_traitsIcEENS_9allocatorIcEEEENS_10shared_ptrIN5Catch16IReporterFactoryEEEEELi0EEEvPT_, symObjAddr: 0x2F9C30, symBinAddr: 0x1002FAD6C, symSize: 0x24 }
  - { offsetInCU: 0xCFF02, offset: 0xCFF02, size: 0x8, addend: 0x0, symName: __ZNSt3__112__destroy_atB8ue170006INS_4pairIKNS_12basic_stringIcNS_11char_traitsIcEENS_9allocatorIcEEEENS_10shared_ptrIN5Catch16IReporterFactoryEEEEELi0EEEvPT_, symObjAddr: 0x2F9C54, symBinAddr: 0x1002FAD90, symSize: 0x24 }
  - { offsetInCU: 0xCFF3B, offset: 0xCFF3B, size: 0x8, addend: 0x0, symName: __ZNSt3__17launderB8ue170006INS_4pairIKNS_12basic_stringIcNS_11char_traitsIcEENS_9allocatorIcEEEENS_10shared_ptrIN5Catch16IReporterFactoryEEEEEEEPT_SF_, symObjAddr: 0x2F9D00, symBinAddr: 0x1002FAE3C, symSize: 0x24 }
  - { offsetInCU: 0xCFF72, offset: 0xCFF72, size: 0x8, addend: 0x0, symName: __ZNSt3__19__launderB8ue170006INS_4pairIKNS_12basic_stringIcNS_11char_traitsIcEENS_9allocatorIcEEEENS_10shared_ptrIN5Catch16IReporterFactoryEEEEEEEPT_SF_, symObjAddr: 0x2F9D24, symBinAddr: 0x1002FAE60, symSize: 0x14 }
  - { offsetInCU: 0xD004E, offset: 0xD004E, size: 0x8, addend: 0x0, symName: __ZNSt3__112construct_atB8ue170006INS_4pairIKNS_12basic_stringIcNS_11char_traitsIcEENS_9allocatorIcEEEENS_10shared_ptrIN5Catch16IReporterFactoryEEEEEJRS8_RKSC_EPSD_EEPT_SJ_DpOT0_, symObjAddr: 0x2FB8C0, symBinAddr: 0x1002FC9FC, symSize: 0x44 }
  - { offsetInCU: 0xD00DB, offset: 0xD00DB, size: 0x8, addend: 0x0, symName: __ZNSt3__14swapB8ue170006IPN5Catch6ConfigEEENS_9enable_ifIXaasr21is_move_constructibleIT_EE5valuesr18is_move_assignableIS5_EE5valueEvE4typeERS5_S8_, symObjAddr: 0x2FCFBC, symBinAddr: 0x1002FE0F8, symSize: 0x134 }
  - { offsetInCU: 0xD012F, offset: 0xD012F, size: 0x8, addend: 0x0, symName: __ZNSt3__115allocate_sharedB8ue170006IN5Catch6ConfigENS_9allocatorIS2_EEJRNS1_10ConfigDataEEvEENS_10shared_ptrIT_EERKT0_DpOT1_, symObjAddr: 0x2FD150, symBinAddr: 0x1002FE28C, symSize: 0x300 }
  - { offsetInCU: 0xD0507, offset: 0xD0507, size: 0x8, addend: 0x0, symName: __ZNSt3__112construct_atB8ue170006IN5Catch6ConfigEJRNS1_10ConfigDataEEPS2_EEPT_S7_DpOT0_, symObjAddr: 0x2FE44C, symBinAddr: 0x1002FF588, symSize: 0x3C }
